///////////////////////////////////////////////////////////////////////////////
//
// IAR C/C++ Compiler V9.30.1.3056 for 8051               28/Aug/2016  10:30:46
// Copyright 2004-2015 IAR Systems AB.
//
//    Core               =  plain
//    Code model         =  banked
//    Data model         =  large
//    Calling convention =  xdata reentrant
//    Constant location  =  data_rom
//    Dptr setup         =  1,16
//                          
//    Source file        =  
//        C:\Texas Instruments\Z-Stack Home 1.2.2a.44539\Components\mt\MT_AF.c
//    Command line       =  
//        -f "C:\Texas Instruments\Z-Stack Home
//        1.2.2a.44539\Projects\zstack\HomeAutomation\Zigbee-HomeAutomatic\CC2530DB\..\..\..\Tools\CC2530DB\f8wCoord.cfg"
//        (-DCPU32MHZ -DROOT=__near_func -DMAC_CFG_APP_PENDING_QUEUE=TRUE
//        -DMAC_CFG_TX_DATA_MAX=5 -DMAC_CFG_TX_MAX=8 -DMAC_CFG_RX_MAX=5
//        -DZDO_COORDINATOR -DRTR_NWK) -f "C:\Texas Instruments\Z-Stack Home
//        1.2.2a.44539\Projects\zstack\HomeAutomation\Zigbee-HomeAutomatic\CC2530DB\..\..\..\Tools\CC2530DB\f8wConfig.cfg"
//        (-DZIGBEEPRO -DSECURE=1 -DZG_SECURE_DYNAMIC=0 -DREFLECTOR
//        -DDEFAULT_CHANLIST=0x00000800 -DZDAPP_CONFIG_PAN_ID=0xFFFF
//        -DNWK_START_DELAY=100 -DEXTENDED_JOINING_RANDOM_MASK=0x007F
//        -DBEACON_REQUEST_DELAY=100 -DBEACON_REQ_DELAY_MASK=0x00FF
//        -DLINK_STATUS_JITTER_MASK=0x007F -DROUTE_EXPIRY_TIME=30
//        -DAPSC_ACK_WAIT_DURATION_POLLED=3000 -DNWK_INDIRECT_MSG_TIMEOUT=7
//        -DMAX_RREQ_ENTRIES=8 -DAPSC_MAX_FRAME_RETRIES=3
//        -DNWK_MAX_DATA_RETRIES=2 -DMAX_POLL_FAILURE_RETRIES=2 -DMAX_BCAST=9
//        -DAPS_MAX_GROUPS=16 -DMAX_RTG_ENTRIES=40 -DNWK_MAX_BINDING_ENTRIES=4
//        -DMAX_BINDING_CLUSTER_IDS=4 "-DDEFAULT_KEY={0x01, 0x03, 0x05, 0x07,
//        0x09, 0x0B, 0x0D, 0x0F, 0x00, 0x02, 0x04, 0x06, 0x08, 0x0A, 0x0C,
//        0x0D}" -DMAC_MAX_FRAME_SIZE=116 -DZDNWKMGR_MIN_TRANSMISSIONS=20
//        "-DCONST=const __code" -DGENERIC=__generic -DRFD_RCVC_ALWAYS_ON=FALSE
//        -DPOLL_RATE=1000 -DQUEUED_POLL_RATE=100 -DRESPONSE_POLL_RATE=100
//        -DREJOIN_POLL_RATE=440 -DREJOIN_BACKOFF=900000 -DREJOIN_SCAN=900000)
//        -f "C:\Texas Instruments\Z-Stack Home
//        1.2.2a.44539\Projects\zstack\HomeAutomation\Zigbee-HomeAutomatic\CC2530DB\..\..\..\Tools\CC2530DB\f8wZCL.cfg"
//        "C:\Texas Instruments\Z-Stack Home
//        1.2.2a.44539\Components\mt\MT_AF.c" -D SECURE=1 -D TC_LINKKEY_JOIN -D
//        NV_INIT -D xNV_RESTORE -D xHOLD_AUTO_START -D ZTOOL_P1 -D xMT_TASK -D
//        xMT_APP_FUNC -D xMT_SYS_FUNC -D xMT_ZDO_FUNC -D xLCD_SUPPORTED=DEBUG
//        -D MULTICAST_ENABLED=FALSE -D ZCL_READ -D ZCL_WRITE -D ZCL_REPORT -D
//        ZCL_EZMODE -D ZCL_BASIC -D ZCL_IDENTIFY -D ZCL_ON_OFF -D ZCL_SCENES
//        -D ZCL_GROUPS -D xZCL_LEVEL_CTRL -D ZCL_DIAGNOSTIC -D
//        FEATURE_SYSTEM_STATS -lC "C:\Texas Instruments\Z-Stack Home
//        1.2.2a.44539\Projects\zstack\HomeAutomation\Zigbee-HomeAutomatic\CC2530DB\CoordinatorEB\List"
//        -lA "C:\Texas Instruments\Z-Stack Home
//        1.2.2a.44539\Projects\zstack\HomeAutomation\Zigbee-HomeAutomatic\CC2530DB\CoordinatorEB\List"
//        --diag_suppress Pe001,Pa010 -o "C:\Texas Instruments\Z-Stack Home
//        1.2.2a.44539\Projects\zstack\HomeAutomation\Zigbee-HomeAutomatic\CC2530DB\CoordinatorEB\Obj"
//        -e --debug --core=plain --dptr=16,1 --data_model=large
//        --code_model=banked --calling_convention=xdata_reentrant
//        --place_constants=data_rom --nr_virtual_regs 16 -I "C:\Texas
//        Instruments\Z-Stack Home
//        1.2.2a.44539\Projects\zstack\HomeAutomation\Zigbee-HomeAutomatic\CC2530DB\"
//        -I "C:\Texas Instruments\Z-Stack Home
//        1.2.2a.44539\Projects\zstack\HomeAutomation\Zigbee-HomeAutomatic\CC2530DB\..\Source\"
//        -I "C:\Texas Instruments\Z-Stack Home
//        1.2.2a.44539\Projects\zstack\HomeAutomation\Zigbee-HomeAutomatic\CC2530DB\..\..\Source\"
//        -I "C:\Texas Instruments\Z-Stack Home
//        1.2.2a.44539\Projects\zstack\HomeAutomation\Zigbee-HomeAutomatic\CC2530DB\..\..\..\ZMain\TI2530DB\"
//        -I "C:\Texas Instruments\Z-Stack Home
//        1.2.2a.44539\Projects\zstack\HomeAutomation\Zigbee-HomeAutomatic\CC2530DB\..\..\..\..\..\Components\hal\include\"
//        -I "C:\Texas Instruments\Z-Stack Home
//        1.2.2a.44539\Projects\zstack\HomeAutomation\Zigbee-HomeAutomatic\CC2530DB\..\..\..\..\..\Components\hal\target\CC2530EB\"
//        -I "C:\Texas Instruments\Z-Stack Home
//        1.2.2a.44539\Projects\zstack\HomeAutomation\Zigbee-HomeAutomatic\CC2530DB\..\..\..\..\..\Components\mac\include\"
//        -I "C:\Texas Instruments\Z-Stack Home
//        1.2.2a.44539\Projects\zstack\HomeAutomation\Zigbee-HomeAutomatic\CC2530DB\..\..\..\..\..\Components\mac\high_level\"
//        -I "C:\Texas Instruments\Z-Stack Home
//        1.2.2a.44539\Projects\zstack\HomeAutomation\Zigbee-HomeAutomatic\CC2530DB\..\..\..\..\..\Components\mac\low_level\srf04\"
//        -I "C:\Texas Instruments\Z-Stack Home
//        1.2.2a.44539\Projects\zstack\HomeAutomation\Zigbee-HomeAutomatic\CC2530DB\..\..\..\..\..\Components\mac\low_level\srf04\single_chip\"
//        -I "C:\Texas Instruments\Z-Stack Home
//        1.2.2a.44539\Projects\zstack\HomeAutomation\Zigbee-HomeAutomatic\CC2530DB\..\..\..\..\..\Components\mt\"
//        -I "C:\Texas Instruments\Z-Stack Home
//        1.2.2a.44539\Projects\zstack\HomeAutomation\Zigbee-HomeAutomatic\CC2530DB\..\..\..\..\..\Components\osal\include\"
//        -I "C:\Texas Instruments\Z-Stack Home
//        1.2.2a.44539\Projects\zstack\HomeAutomation\Zigbee-HomeAutomatic\CC2530DB\..\..\..\..\..\Components\services\saddr\"
//        -I "C:\Texas Instruments\Z-Stack Home
//        1.2.2a.44539\Projects\zstack\HomeAutomation\Zigbee-HomeAutomatic\CC2530DB\..\..\..\..\..\Components\services\sdata\"
//        -I "C:\Texas Instruments\Z-Stack Home
//        1.2.2a.44539\Projects\zstack\HomeAutomation\Zigbee-HomeAutomatic\CC2530DB\..\..\..\..\..\Components\stack\af\"
//        -I "C:\Texas Instruments\Z-Stack Home
//        1.2.2a.44539\Projects\zstack\HomeAutomation\Zigbee-HomeAutomatic\CC2530DB\..\..\..\..\..\Components\stack\nwk\"
//        -I "C:\Texas Instruments\Z-Stack Home
//        1.2.2a.44539\Projects\zstack\HomeAutomation\Zigbee-HomeAutomatic\CC2530DB\..\..\..\..\..\Components\stack\sapi\"
//        -I "C:\Texas Instruments\Z-Stack Home
//        1.2.2a.44539\Projects\zstack\HomeAutomation\Zigbee-HomeAutomatic\CC2530DB\..\..\..\..\..\Components\stack\sec\"
//        -I "C:\Texas Instruments\Z-Stack Home
//        1.2.2a.44539\Projects\zstack\HomeAutomation\Zigbee-HomeAutomatic\CC2530DB\..\..\..\..\..\Components\stack\sys\"
//        -I "C:\Texas Instruments\Z-Stack Home
//        1.2.2a.44539\Projects\zstack\HomeAutomation\Zigbee-HomeAutomatic\CC2530DB\..\..\..\..\..\Components\stack\zcl\"
//        -I "C:\Texas Instruments\Z-Stack Home
//        1.2.2a.44539\Projects\zstack\HomeAutomation\Zigbee-HomeAutomatic\CC2530DB\..\..\..\..\..\Components\stack\zdo\"
//        -I "C:\Texas Instruments\Z-Stack Home
//        1.2.2a.44539\Projects\zstack\HomeAutomation\Zigbee-HomeAutomatic\CC2530DB\..\..\..\..\..\Components\zmac\"
//        -I "C:\Texas Instruments\Z-Stack Home
//        1.2.2a.44539\Projects\zstack\HomeAutomation\Zigbee-HomeAutomatic\CC2530DB\..\..\..\..\..\Components\zmac\f8w\"
//        -Ohz --require_prototypes
//    List file          =  
//        C:\Texas Instruments\Z-Stack Home
//        1.2.2a.44539\Projects\zstack\HomeAutomation\Zigbee-HomeAutomatic\CC2530DB\CoordinatorEB\List\MT_AF.s51
//
///////////////////////////////////////////////////////////////////////////////

        NAME MT_AF

        RTMODEL "__SystemLibrary", "CLib"
        RTMODEL "__calling_convention", "xdata_reentrant"
        RTMODEL "__code_model", "banked"
        RTMODEL "__core", "plain"
        RTMODEL "__data_model", "large"
        RTMODEL "__dptr_size", "16"
        RTMODEL "__extended_stack", "disabled"
        RTMODEL "__location_for_constants", "data"
        RTMODEL "__number_of_dptrs", "1"
        RTMODEL "__rt_version", "1"

        RSEG DOVERLAY:DATA:NOROOT(0)
        RSEG IOVERLAY:IDATA:NOROOT(0)
        RSEG ISTACK:IDATA:NOROOT(0)
        RSEG PSTACK:XDATA:NOROOT(0)
        RSEG XSTACK:XDATA:NOROOT(0)

        EXTERN ?V0
        EXTERN ?V1
        EXTERN ?V2
        EXTERN ?V3
        EXTERN ?V4
        EXTERN ?V5
        EXTERN ?V6
        EXTERN ?V7
        EXTERN ?V8
        EXTERN ?V9
        EXTERN ?V10
        EXTERN ?V11
        EXTERN ?V12
        EXTERN ?V13
        EXTERN ?V14
        EXTERN ?V15
        EXTERN ?ALLOC_XSTACK8
        EXTERN ?BANKED_ENTER_XDATA
        EXTERN ?BANKED_LEAVE_XDATA
        EXTERN ?BDISPATCH
        EXTERN ?BRET
        EXTERN ?DEALLOC_XSTACK8
        EXTERN ?L_EQ_X
        EXTERN ?MOVE_LONG8_XDATA_XDATA
        EXTERN ?PUSH_XSTACK8_X_FOUR
        EXTERN ?PUSH_XSTACK8_X_TWO
        EXTERN ?PUSH_XSTACK_I_ONE
        EXTERN ?PUSH_XSTACK_I_THREE
        EXTERN ?PUSH_XSTACK_I_TWO
        EXTERN ?XLOAD_R0123
        EXTERN ?XSP
        EXTERN ?XSTACK_DISP0_8
        EXTERN ?XSTACK_DISP100_8
        EXTERN ?XSTACK_DISP101_8
        EXTERN ?XSTACK_DISP102_8
        EXTERN ?XSTORE_R0123
        EXTERN __INIT_XDATA_Z

        PUBLIC `??MT_AfCommandProcessing::?relay`
        FUNCTION `??MT_AfCommandProcessing::?relay`,0203H
        PUBLIC `??MT_AfDataConfirm::?relay`
        FUNCTION `??MT_AfDataConfirm::?relay`,0203H
        FUNCTION `??MT_AfDataRequest::?relay`,0203H
        FUNCTION `??MT_AfDataRequestSrcRtg::?relay`,0203H
        FUNCTION `??MT_AfDataRetrieve::?relay`,0203H
        FUNCTION `??MT_AfDataStore::?relay`,0203H
        PUBLIC `??MT_AfExec::?relay`
        FUNCTION `??MT_AfExec::?relay`,0203H
        PUBLIC `??MT_AfIncomingMsg::?relay`
        FUNCTION `??MT_AfIncomingMsg::?relay`,0203H
        PUBLIC `??MT_AfReflectError::?relay`
        FUNCTION `??MT_AfReflectError::?relay`,0203H
        PUBLIC MT_AfCommandProcessing
        FUNCTION MT_AfCommandProcessing,0a1203H
        ARGFRAME XSTACK, 0, STACK
        LOCFRAME ISTACK, 1, STACK
        LOCFRAME XSTACK, 19, STACK
        PUBLIC MT_AfDataConfirm
        FUNCTION MT_AfDataConfirm,021203H
        ARGFRAME XSTACK, 0, STACK
        LOCFRAME ISTACK, 3, STACK
        LOCFRAME XSTACK, 3, STACK
        FUNCTION MT_AfDataRequest,0a1203H
        ARGFRAME XSTACK, 19, STACK
        ARGFRAME IOVERLAY, 0, STATIC
        ARGFRAME DOVERLAY, 0, STATIC
        LOCFRAME ISTACK, 1, STACK
        LOCFRAME XSTACK, 44, STACK
        FUNCTION MT_AfDataRequestSrcRtg,0a1203H
        ARGFRAME XSTACK, 19, STACK
        ARGFRAME IOVERLAY, 0, STATIC
        ARGFRAME DOVERLAY, 0, STATIC
        LOCFRAME ISTACK, 1, STACK
        LOCFRAME XSTACK, 46, STACK
        FUNCTION MT_AfDataRetrieve,0a1203H
        ARGFRAME XSTACK, 19, STACK
        ARGFRAME IOVERLAY, 0, STATIC
        ARGFRAME DOVERLAY, 0, STATIC
        LOCFRAME ISTACK, 1, STACK
        LOCFRAME XSTACK, 22, STACK
        FUNCTION MT_AfDataStore,0a1203H
        ARGFRAME XSTACK, 19, STACK
        ARGFRAME IOVERLAY, 0, STATIC
        ARGFRAME DOVERLAY, 0, STATIC
        LOCFRAME ISTACK, 1, STACK
        LOCFRAME XSTACK, 24, STACK
        PUBLIC MT_AfExec
        FUNCTION MT_AfExec,021203H
        ARGFRAME XSTACK, 0, STACK
        LOCFRAME XSTACK, 13, STACK
        PUBLIC MT_AfIncomingMsg
        FUNCTION MT_AfIncomingMsg,0a1203H
        ARGFRAME XSTACK, 0, STACK
        LOCFRAME ISTACK, 1, STACK
        LOCFRAME XSTACK, 29, STACK
        PUBLIC MT_AfReflectError
        FUNCTION MT_AfReflectError,021203H
        ARGFRAME XSTACK, 0, STACK
        LOCFRAME ISTACK, 3, STACK
        LOCFRAME XSTACK, 6, STACK
        PUBWEAK __Constant_3e8
        PUBLIC pMtAfDataReq
        PUBLIC pMtAfInMsgList
        
          CFI Names cfiNames0
          CFI StackFrame CFA_SP SP IDATA
          CFI StackFrame CFA_PSP16 PSP16 XDATA
          CFI StackFrame CFA_XSP16 XSP16 XDATA
          CFI StaticOverlayFrame CFA_IOVERLAY IOVERLAY
          CFI StaticOverlayFrame CFA_DOVERLAY DOVERLAY
          CFI Resource `PSW.CY`:1, `B.BR0`:1, `B.BR1`:1, `B.BR2`:1, `B.BR3`:1
          CFI Resource `B.BR4`:1, `B.BR5`:1, `B.BR6`:1, `B.BR7`:1, `VB.BR8`:1
          CFI Resource `VB.BR9`:1, `VB.BR10`:1, `VB.BR11`:1, `VB.BR12`:1
          CFI Resource `VB.BR13`:1, `VB.BR14`:1, `VB.BR15`:1, VB:8, B:8, A:8
          CFI Resource PSW:8, DPL0:8, DPH0:8, R0:8, R1:8, R2:8, R3:8, R4:8, R5:8
          CFI Resource R6:8, R7:8, V0:8, V1:8, V2:8, V3:8, V4:8, V5:8, V6:8, V7:8
          CFI Resource V8:8, V9:8, V10:8, V11:8, V12:8, V13:8, V14:8, V15:8, SP:8
          CFI Resource PSPH:8, PSPL:8, PSP16:16, XSPH:8, XSPL:8, XSP16:16
          CFI VirtualResource ?RET:24
          CFI Resource ?BRET_EXT:8
          CFI VirtualResource ?RET_HIGH:8, ?RET_LOW:8
          CFI ResourceParts PSP16 PSPH, PSPL
          CFI ResourceParts XSP16 XSPH, XSPL
          CFI ResourceParts ?RET ?BRET_EXT, ?RET_HIGH, ?RET_LOW
          CFI EndNames cfiNames0
        
          CFI Common cfiCommon0 Using cfiNames0
          CFI CodeAlign 1
          CFI DataAlign -1
          CFI ReturnAddress ?RET CODE
          CFI CFA_DOVERLAY Used
          CFI CFA_IOVERLAY Used
          CFI CFA_SP SP+-3
          CFI CFA_PSP16 PSP16+0
          CFI CFA_XSP16 XSP16+0
          CFI `PSW.CY` SameValue
          CFI `B.BR0` SameValue
          CFI `B.BR1` SameValue
          CFI `B.BR2` SameValue
          CFI `B.BR3` SameValue
          CFI `B.BR4` SameValue
          CFI `B.BR5` SameValue
          CFI `B.BR6` SameValue
          CFI `B.BR7` SameValue
          CFI `VB.BR8` SameValue
          CFI `VB.BR9` SameValue
          CFI `VB.BR10` SameValue
          CFI `VB.BR11` SameValue
          CFI `VB.BR12` SameValue
          CFI `VB.BR13` SameValue
          CFI `VB.BR14` SameValue
          CFI `VB.BR15` SameValue
          CFI VB SameValue
          CFI B Undefined
          CFI A Undefined
          CFI PSW SameValue
          CFI DPL0 SameValue
          CFI DPH0 SameValue
          CFI R0 Undefined
          CFI R1 Undefined
          CFI R2 Undefined
          CFI R3 Undefined
          CFI R4 Undefined
          CFI R5 Undefined
          CFI R6 SameValue
          CFI R7 SameValue
          CFI V0 SameValue
          CFI V1 SameValue
          CFI V2 SameValue
          CFI V3 SameValue
          CFI V4 SameValue
          CFI V5 SameValue
          CFI V6 SameValue
          CFI V7 SameValue
          CFI V8 SameValue
          CFI V9 SameValue
          CFI V10 SameValue
          CFI V11 SameValue
          CFI V12 SameValue
          CFI V13 SameValue
          CFI V14 SameValue
          CFI V15 SameValue
          CFI PSPH Undefined
          CFI PSPL Undefined
          CFI XSPH Undefined
          CFI XSPL Undefined
          CFI ?RET Concat
          CFI ?BRET_EXT Frame(CFA_SP, 3)
          CFI ?RET_HIGH Frame(CFA_SP, 2)
          CFI ?RET_LOW Frame(CFA_SP, 1)
          CFI EndCommon cfiCommon0
        
        
          CFI Common cfiCommon1 Using cfiNames0
          CFI CodeAlign 1
          CFI DataAlign -1
          CFI ReturnAddress ?RET CODE
          CFI CFA_DOVERLAY Used
          CFI CFA_IOVERLAY Used
          CFI CFA_SP SP+-2
          CFI CFA_PSP16 PSP16+0
          CFI CFA_XSP16 XSP16+0
          CFI `PSW.CY` SameValue
          CFI `B.BR0` SameValue
          CFI `B.BR1` SameValue
          CFI `B.BR2` SameValue
          CFI `B.BR3` SameValue
          CFI `B.BR4` SameValue
          CFI `B.BR5` SameValue
          CFI `B.BR6` SameValue
          CFI `B.BR7` SameValue
          CFI `VB.BR8` SameValue
          CFI `VB.BR9` SameValue
          CFI `VB.BR10` SameValue
          CFI `VB.BR11` SameValue
          CFI `VB.BR12` SameValue
          CFI `VB.BR13` SameValue
          CFI `VB.BR14` SameValue
          CFI `VB.BR15` SameValue
          CFI VB SameValue
          CFI B SameValue
          CFI A SameValue
          CFI PSW SameValue
          CFI DPL0 SameValue
          CFI DPH0 SameValue
          CFI R0 SameValue
          CFI R1 SameValue
          CFI R2 SameValue
          CFI R3 SameValue
          CFI R4 SameValue
          CFI R5 SameValue
          CFI R6 SameValue
          CFI R7 SameValue
          CFI V0 SameValue
          CFI V1 SameValue
          CFI V2 SameValue
          CFI V3 SameValue
          CFI V4 SameValue
          CFI V5 SameValue
          CFI V6 SameValue
          CFI V7 SameValue
          CFI V8 SameValue
          CFI V9 SameValue
          CFI V10 SameValue
          CFI V11 SameValue
          CFI V12 SameValue
          CFI V13 SameValue
          CFI V14 SameValue
          CFI V15 SameValue
          CFI PSPH Undefined
          CFI PSPL Undefined
          CFI XSPH Undefined
          CFI XSPL Undefined
          CFI ?RET Concat
          CFI ?BRET_EXT SameValue
          CFI ?RET_HIGH Frame(CFA_SP, 2)
          CFI ?RET_LOW Frame(CFA_SP, 1)
          CFI EndCommon cfiCommon1
        
AF_DataRequest      SYMBOL "AF_DataRequest"
`??AF_DataRequest::?relay` SYMBOL "?relay", AF_DataRequest
AF_DataRequestSrcRtg SYMBOL "AF_DataRequestSrcRtg"
`??AF_DataRequestSrcRtg::?relay` SYMBOL "?relay", AF_DataRequestSrcRtg
MT_BuildAndSendZToolResponse SYMBOL "MT_BuildAndSendZToolResponse"
`??MT_BuildAndSendZToolResponse::?relay` SYMBOL "?relay", MT_BuildAndSendZToolResponse
MT_BuildEndpointDesc SYMBOL "MT_BuildEndpointDesc"
`??MT_BuildEndpointDesc::?relay` SYMBOL "?relay", MT_BuildEndpointDesc
afAPSF_ConfigGet    SYMBOL "afAPSF_ConfigGet"
`??afAPSF_ConfigGet::?relay` SYMBOL "?relay", afAPSF_ConfigGet
afAPSF_ConfigSet    SYMBOL "afAPSF_ConfigSet"
`??afAPSF_ConfigSet::?relay` SYMBOL "?relay", afAPSF_ConfigSet
afDelete            SYMBOL "afDelete"
`??afDelete::?relay` SYMBOL "?relay", afDelete
afFindEndPointDesc  SYMBOL "afFindEndPointDesc"
`??afFindEndPointDesc::?relay` SYMBOL "?relay", afFindEndPointDesc
afRegister          SYMBOL "afRegister"
`??afRegister::?relay` SYMBOL "?relay", afRegister
osal_buffer_uint32  SYMBOL "osal_buffer_uint32"
`??osal_buffer_uint32::?relay` SYMBOL "?relay", osal_buffer_uint32
osal_build_uint16   SYMBOL "osal_build_uint16"
`??osal_build_uint16::?relay` SYMBOL "?relay", osal_build_uint16
osal_build_uint32   SYMBOL "osal_build_uint32"
`??osal_build_uint32::?relay` SYMBOL "?relay", osal_build_uint32
osal_mem_alloc      SYMBOL "osal_mem_alloc"
`??osal_mem_alloc::?relay` SYMBOL "?relay", osal_mem_alloc
osal_mem_free       SYMBOL "osal_mem_free"
`??osal_mem_free::?relay` SYMBOL "?relay", osal_mem_free
osal_memcpy         SYMBOL "osal_memcpy"
`??osal_memcpy::?relay` SYMBOL "?relay", osal_memcpy
osal_memset         SYMBOL "osal_memset"
`??osal_memset::?relay` SYMBOL "?relay", osal_memset
osal_set_event      SYMBOL "osal_set_event"
`??osal_set_event::?relay` SYMBOL "?relay", osal_set_event
osal_start_timerEx  SYMBOL "osal_start_timerEx"
`??osal_start_timerEx::?relay` SYMBOL "?relay", osal_start_timerEx
MT_AfCommandProcessing SYMBOL "MT_AfCommandProcessing"
`??MT_AfCommandProcessing::?relay` SYMBOL "?relay", MT_AfCommandProcessing
MT_AfDataConfirm    SYMBOL "MT_AfDataConfirm"
`??MT_AfDataConfirm::?relay` SYMBOL "?relay", MT_AfDataConfirm
MT_AfExec           SYMBOL "MT_AfExec"
`??MT_AfExec::?relay` SYMBOL "?relay", MT_AfExec
MT_AfIncomingMsg    SYMBOL "MT_AfIncomingMsg"
`??MT_AfIncomingMsg::?relay` SYMBOL "?relay", MT_AfIncomingMsg
MT_AfReflectError   SYMBOL "MT_AfReflectError"
`??MT_AfReflectError::?relay` SYMBOL "?relay", MT_AfReflectError

        EXTERN `??AF_DataRequest::?relay`
        FUNCTION `??AF_DataRequest::?relay`,00H
        EXTERN `??AF_DataRequestSrcRtg::?relay`
        FUNCTION `??AF_DataRequestSrcRtg::?relay`,00H
        EXTERN `??MT_BuildAndSendZToolResponse::?relay`
        FUNCTION `??MT_BuildAndSendZToolResponse::?relay`,00H
        EXTERN `??MT_BuildEndpointDesc::?relay`
        FUNCTION `??MT_BuildEndpointDesc::?relay`,00H
        EXTERN `??afAPSF_ConfigGet::?relay`
        FUNCTION `??afAPSF_ConfigGet::?relay`,00H
        EXTERN `??afAPSF_ConfigSet::?relay`
        FUNCTION `??afAPSF_ConfigSet::?relay`,00H
        EXTERN `??afDelete::?relay`
        FUNCTION `??afDelete::?relay`,00H
        EXTERN `??afFindEndPointDesc::?relay`
        FUNCTION `??afFindEndPointDesc::?relay`,00H
        EXTERN `??afRegister::?relay`
        FUNCTION `??afRegister::?relay`,00H
        EXTERN `??osal_buffer_uint32::?relay`
        FUNCTION `??osal_buffer_uint32::?relay`,00H
        EXTERN `??osal_build_uint16::?relay`
        FUNCTION `??osal_build_uint16::?relay`,00H
        EXTERN `??osal_build_uint32::?relay`
        FUNCTION `??osal_build_uint32::?relay`,00H
        EXTERN `??osal_mem_alloc::?relay`
        FUNCTION `??osal_mem_alloc::?relay`,00H
        EXTERN `??osal_mem_free::?relay`
        FUNCTION `??osal_mem_free::?relay`,00H
        EXTERN `??osal_memcpy::?relay`
        FUNCTION `??osal_memcpy::?relay`,00H
        EXTERN `??osal_memset::?relay`
        FUNCTION `??osal_memset::?relay`,00H
        EXTERN `??osal_set_event::?relay`
        FUNCTION `??osal_set_event::?relay`,00H
        EXTERN `??osal_start_timerEx::?relay`
        FUNCTION `??osal_start_timerEx::?relay`,00H
        EXTERN AF_DataRequest
        FUNCTION AF_DataRequest,0202H
        ARGFRAME ISTACK, 0, STACK
        ARGFRAME PSTACK, 0, STACK
        ARGFRAME XSTACK, 44, STACK
        ARGFRAME IOVERLAY, 0, STATIC
        ARGFRAME DOVERLAY, 0, STATIC
        EXTERN AF_DataRequestSrcRtg
        FUNCTION AF_DataRequestSrcRtg,0202H
        ARGFRAME ISTACK, 0, STACK
        ARGFRAME PSTACK, 0, STACK
        ARGFRAME XSTACK, 46, STACK
        ARGFRAME IOVERLAY, 0, STATIC
        ARGFRAME DOVERLAY, 0, STATIC
        EXTERN MT_BuildAndSendZToolResponse
        FUNCTION MT_BuildAndSendZToolResponse,0202H
        ARGFRAME ISTACK, 2, STACK
        ARGFRAME PSTACK, 0, STACK
        ARGFRAME XSTACK, 35, STACK
        ARGFRAME IOVERLAY, 0, STATIC
        ARGFRAME DOVERLAY, 0, STATIC
        EXTERN MT_BuildEndpointDesc
        FUNCTION MT_BuildEndpointDesc,0202H
        ARGFRAME ISTACK, 0, STACK
        ARGFRAME PSTACK, 0, STACK
        ARGFRAME XSTACK, 19, STACK
        ARGFRAME IOVERLAY, 0, STATIC
        ARGFRAME DOVERLAY, 0, STATIC
        EXTERN MT_TaskID
        EXTERN afAPSF_ConfigGet
        FUNCTION afAPSF_ConfigGet,0202H
        ARGFRAME ISTACK, 0, STACK
        ARGFRAME PSTACK, 0, STACK
        ARGFRAME XSTACK, 19, STACK
        ARGFRAME IOVERLAY, 0, STATIC
        ARGFRAME DOVERLAY, 0, STATIC
        EXTERN afAPSF_ConfigSet
        FUNCTION afAPSF_ConfigSet,0202H
        ARGFRAME ISTACK, 0, STACK
        ARGFRAME PSTACK, 0, STACK
        ARGFRAME XSTACK, 19, STACK
        ARGFRAME IOVERLAY, 0, STATIC
        ARGFRAME DOVERLAY, 0, STATIC
        EXTERN afDelete
        FUNCTION afDelete,0202H
        ARGFRAME ISTACK, 0, STACK
        ARGFRAME PSTACK, 0, STACK
        ARGFRAME XSTACK, 19, STACK
        ARGFRAME IOVERLAY, 0, STATIC
        ARGFRAME DOVERLAY, 0, STATIC
        EXTERN afFindEndPointDesc
        FUNCTION afFindEndPointDesc,0202H
        ARGFRAME ISTACK, 0, STACK
        ARGFRAME PSTACK, 0, STACK
        ARGFRAME XSTACK, 35, STACK
        ARGFRAME IOVERLAY, 0, STATIC
        ARGFRAME DOVERLAY, 0, STATIC
        EXTERN afRegister
        FUNCTION afRegister,0202H
        ARGFRAME ISTACK, 0, STACK
        ARGFRAME PSTACK, 0, STACK
        ARGFRAME XSTACK, 19, STACK
        ARGFRAME IOVERLAY, 0, STATIC
        ARGFRAME DOVERLAY, 0, STATIC
        EXTERN osal_buffer_uint32
        FUNCTION osal_buffer_uint32,0202H
        ARGFRAME ISTACK, 0, STACK
        ARGFRAME PSTACK, 0, STACK
        ARGFRAME XSTACK, 29, STACK
        ARGFRAME IOVERLAY, 0, STATIC
        ARGFRAME DOVERLAY, 0, STATIC
        EXTERN osal_build_uint16
        FUNCTION osal_build_uint16,0202H
        ARGFRAME ISTACK, 0, STACK
        ARGFRAME PSTACK, 0, STACK
        ARGFRAME XSTACK, 35, STACK
        ARGFRAME IOVERLAY, 0, STATIC
        ARGFRAME DOVERLAY, 0, STATIC
        EXTERN osal_build_uint32
        FUNCTION osal_build_uint32,0202H
        ARGFRAME ISTACK, 0, STACK
        ARGFRAME PSTACK, 0, STACK
        ARGFRAME XSTACK, 19, STACK
        ARGFRAME IOVERLAY, 0, STATIC
        ARGFRAME DOVERLAY, 0, STATIC
        EXTERN osal_mem_alloc
        FUNCTION osal_mem_alloc,0202H
        ARGFRAME ISTACK, 0, STACK
        ARGFRAME PSTACK, 0, STACK
        ARGFRAME XSTACK, 35, STACK
        ARGFRAME IOVERLAY, 0, STATIC
        ARGFRAME DOVERLAY, 0, STATIC
        EXTERN osal_mem_free
        FUNCTION osal_mem_free,0202H
        ARGFRAME ISTACK, 0, STACK
        ARGFRAME PSTACK, 0, STACK
        ARGFRAME XSTACK, 34, STACK
        ARGFRAME IOVERLAY, 0, STATIC
        ARGFRAME DOVERLAY, 0, STATIC
        EXTERN osal_memcpy
        FUNCTION osal_memcpy,0202H
        ARGFRAME ISTACK, 0, STACK
        ARGFRAME PSTACK, 0, STACK
        ARGFRAME XSTACK, 38, STACK
        ARGFRAME IOVERLAY, 0, STATIC
        ARGFRAME DOVERLAY, 0, STATIC
        EXTERN osal_memset
        FUNCTION osal_memset,0202H
        ARGFRAME ISTACK, 0, STACK
        ARGFRAME PSTACK, 0, STACK
        ARGFRAME XSTACK, 34, STACK
        ARGFRAME IOVERLAY, 0, STATIC
        ARGFRAME DOVERLAY, 0, STATIC
        EXTERN osal_set_event
        FUNCTION osal_set_event,0202H
        ARGFRAME ISTACK, 0, STACK
        ARGFRAME PSTACK, 0, STACK
        ARGFRAME XSTACK, 35, STACK
        ARGFRAME IOVERLAY, 0, STATIC
        ARGFRAME DOVERLAY, 0, STATIC
        EXTERN osal_start_timerEx
        FUNCTION osal_start_timerEx,0202H
        ARGFRAME ISTACK, 0, STACK
        ARGFRAME PSTACK, 0, STACK
        ARGFRAME XSTACK, 39, STACK
        ARGFRAME IOVERLAY, 0, STATIC
        ARGFRAME DOVERLAY, 0, STATIC

// C:\Texas Instruments\Z-Stack Home 1.2.2a.44539\Components\mt\MT_AF.c
//    1 /**************************************************************************************************
//    2   Filename:       MT_AF.c
//    3   Revised:        $Date: 2015-01-26 08:25:50 -0800 (Mon, 26 Jan 2015) $
//    4   Revision:       $Revision: 42025 $
//    5 
//    6   Description:    MonitorTest functions for the AF layer.
//    7 
//    8   Copyright 2007-2015 Texas Instruments Incorporated. All rights reserved.
//    9 
//   10   IMPORTANT: Your use of this Software is limited to those specific rights
//   11   granted under the terms of a software license agreement between the user
//   12   who downloaded the software, his/her employer (which must be your employer)
//   13   and Texas Instruments Incorporated (the "License"). You may not use this
//   14   Software unless you agree to abide by the terms of the License. The License
//   15   limits your use, and you acknowledge, that the Software may not be modified,
//   16   copied or distributed unless embedded on a Texas Instruments microcontroller
//   17   or used solely and exclusively in conjunction with a Texas Instruments radio
//   18   frequency transceiver, which is integrated into your product. Other than for
//   19   the foregoing purpose, you may not use, reproduce, copy, prepare derivative
//   20   works of, modify, distribute, perform, display or sell this Software and/or
//   21   its documentation for any purpose.
//   22 
//   23   YOU FURTHER ACKNOWLEDGE AND AGREE THAT THE SOFTWARE AND DOCUMENTATION ARE
//   24   PROVIDED “AS IS” WITHOUT WARRANTY OF ANY KIND, EITHER EXPRESS OR IMPLIED,
//   25   INCLUDING WITHOUT LIMITATION, ANY WARRANTY OF MERCHANTABILITY, TITLE,
//   26   NON-INFRINGEMENT AND FITNESS FOR A PARTICULAR PURPOSE. IN NO EVENT SHALL
//   27   TEXAS INSTRUMENTS OR ITS LICENSORS BE LIABLE OR OBLIGATED UNDER CONTRACT,
//   28   NEGLIGENCE, STRICT LIABILITY, CONTRIBUTION, BREACH OF WARRANTY, OR OTHER
//   29   LEGAL EQUITABLE THEORY ANY DIRECT OR INDIRECT DAMAGES OR EXPENSES
//   30   INCLUDING BUT NOT LIMITED TO ANY INCIDENTAL, SPECIAL, INDIRECT, PUNITIVE
//   31   OR CONSEQUENTIAL DAMAGES, LOST PROFITS OR LOST DATA, COST OF PROCUREMENT
//   32   OF SUBSTITUTE GOODS, TECHNOLOGY, SERVICES, OR ANY CLAIMS BY THIRD PARTIES
//   33   (INCLUDING BUT NOT LIMITED TO ANY DEFENSE THEREOF), OR OTHER SIMILAR COSTS.
//   34 
//   35   Should you have any questions regarding your right to use this Software,
//   36   contact Texas Instruments Incorporated at www.TI.com.
//   37 
//   38 **************************************************************************************************/
//   39 
//   40 /* ------------------------------------------------------------------------------------------------
//   41  *                                          Includes
//   42  * ------------------------------------------------------------------------------------------------
//   43  */
//   44 #include "ZComDef.h"
//   45 #include "OSAL.h"
//   46 #include "MT.h"
//   47 #include "MT_AF.h"
//   48 #include "MT_ZDO.h"
//   49 #include "nwk.h"
//   50 #include "OnBoard.h"
//   51 #include "MT_UART.h"
//   52 
//   53 #if defined INTER_PAN
//   54 #include "stub_aps.h"
//   55 #endif
//   56 
//   57 #if defined ( MT_GP_FUNC )
//   58 #include "MT_GP.h"
//   59 #endif
//   60 
//   61 /* ------------------------------------------------------------------------------------------------
//   62  *                                          Constants
//   63  * ------------------------------------------------------------------------------------------------
//   64  */
//   65 
//   66 #if !defined MT_AF_EXEC_CNT
//   67 #define MT_AF_EXEC_CNT  15
//   68 #endif
//   69 
//   70 #if !defined MT_AF_EXEC_DLY
//   71 #define MT_AF_EXEC_DLY  1000
//   72 #endif
//   73 
//   74 /* ------------------------------------------------------------------------------------------------
//   75  *                                           Typedefs
//   76  * ------------------------------------------------------------------------------------------------
//   77  */
//   78 
//   79 typedef struct
//   80 {
//   81   uint8 *data;
//   82   afAddrType_t dstAddr;
//   83   endPointDesc_t *epDesc;
//   84   uint16 cId;
//   85   uint16 dataLen;
//   86   uint8 transId;
//   87   uint8 txOpts;
//   88   uint8 radius;
//   89   uint8 tick;
//   90 } mtAfDataReq_t;
//   91 
//   92 typedef struct _mtAfInMsgList_t
//   93 {
//   94   struct _mtAfInMsgList_t *next;
//   95   uint8 *data;
//   96   uint32 timestamp;         // Receipt timestamp from MAC.
//   97   uint8 tick;
//   98 } mtAfInMsgList_t;
//   99 
//  100 /* ------------------------------------------------------------------------------------------------
//  101  *                                        Local Variables
//  102  * ------------------------------------------------------------------------------------------------
//  103  */
//  104 

        RSEG XDATA_Z:XDATA:NOROOT(0)
        DATA16
//  105 mtAfInMsgList_t *pMtAfInMsgList = NULL;
pMtAfInMsgList:
        DS 2
        REQUIRE __INIT_XDATA_Z

        RSEG XDATA_Z:XDATA:NOROOT(0)
        DATA16
//  106 mtAfDataReq_t *pMtAfDataReq = NULL;
pMtAfDataReq:
        DS 2
        REQUIRE __INIT_XDATA_Z
//  107 
//  108 /* ------------------------------------------------------------------------------------------------
//  109  *                                        Global Variables
//  110  * ------------------------------------------------------------------------------------------------
//  111  */
//  112 
//  113 #if defined ( MT_AF_CB_FUNC )
//  114 uint16 _afCallbackSub;
//  115 #endif
//  116 
//  117 /* ------------------------------------------------------------------------------------------------
//  118  *                                        Local Functions
//  119  * ------------------------------------------------------------------------------------------------
//  120  */
//  121 
//  122 static void MT_AfRegister(uint8 *pBuf);
//  123 static void MT_AfDelete(uint8 *pBuf);
//  124 static void MT_AfDataRequest(uint8 *pBuf);
//  125 
//  126 #if defined ( ZIGBEEPRO )
//  127 static void MT_AfDataRequestSrcRtg(uint8 *pBuf);
//  128 #endif
//  129 
//  130 #if defined INTER_PAN
//  131 static void MT_AfInterPanCtl(uint8 *pBuf);
//  132 #endif
//  133 
//  134 static void MT_AfDataRetrieve(uint8 *pBuf);
//  135 static void MT_AfDataStore(uint8 *pBuf);
//  136 static void MT_AfAPSF_ConfigSet(uint8 *pBuf);
//  137 static void MT_AfAPSF_ConfigGet(uint8 *pBuf);
//  138 
//  139 
//  140 /**************************************************************************************************
//  141  * @fn          MT_AfExec
//  142  *
//  143  * @brief       This function is invoked by an MT timer event.
//  144  *
//  145  * input parameters
//  146  *
//  147  * None.
//  148  *
//  149  * output parameters
//  150  *
//  151  * None.
//  152  *
//  153  * @return      None.
//  154  **************************************************************************************************
//  155  */

        RSEG BANKED_CODE:CODE:NOROOT(0)
//  156 void MT_AfExec(void)
MT_AfExec:
          CFI Block cfiBlock0 Using cfiCommon0
          CFI Function MT_AfExec
        CODE
//  157 {
        FUNCALL MT_AfExec, osal_mem_free
        LOCFRAME ISTACK, 0, STACK
        LOCFRAME PSTACK, 0, STACK
        LOCFRAME XSTACK, 9, STACK
        LOCFRAME IOVERLAY, 0, STATIC
        LOCFRAME DOVERLAY, 0, STATIC
        ARGFRAME ISTACK, 0, STACK
        ARGFRAME PSTACK, 0, STACK
        ARGFRAME XSTACK, 9, STACK
        ARGFRAME IOVERLAY, 0, STATIC
        ARGFRAME DOVERLAY, 0, STATIC
        FUNCALL MT_AfExec, osal_mem_free
        LOCFRAME ISTACK, 0, STACK
        LOCFRAME PSTACK, 0, STACK
        LOCFRAME XSTACK, 9, STACK
        LOCFRAME IOVERLAY, 0, STATIC
        LOCFRAME DOVERLAY, 0, STATIC
        ARGFRAME ISTACK, 0, STACK
        ARGFRAME PSTACK, 0, STACK
        ARGFRAME XSTACK, 9, STACK
        ARGFRAME IOVERLAY, 0, STATIC
        ARGFRAME DOVERLAY, 0, STATIC
        FUNCALL MT_AfExec, osal_mem_free
        LOCFRAME ISTACK, 0, STACK
        LOCFRAME PSTACK, 0, STACK
        LOCFRAME XSTACK, 9, STACK
        LOCFRAME IOVERLAY, 0, STATIC
        LOCFRAME DOVERLAY, 0, STATIC
        ARGFRAME ISTACK, 0, STACK
        ARGFRAME PSTACK, 0, STACK
        ARGFRAME XSTACK, 9, STACK
        ARGFRAME IOVERLAY, 0, STATIC
        ARGFRAME DOVERLAY, 0, STATIC
        FUNCALL MT_AfExec, osal_start_timerEx
        LOCFRAME ISTACK, 0, STACK
        LOCFRAME PSTACK, 0, STACK
        LOCFRAME XSTACK, 13, STACK
        LOCFRAME IOVERLAY, 0, STATIC
        LOCFRAME DOVERLAY, 0, STATIC
        ARGFRAME ISTACK, 0, STACK
        ARGFRAME PSTACK, 0, STACK
        ARGFRAME XSTACK, 13, STACK
        ARGFRAME IOVERLAY, 0, STATIC
        ARGFRAME DOVERLAY, 0, STATIC
        FUNCALL MT_AfExec, osal_set_event
        LOCFRAME ISTACK, 0, STACK
        LOCFRAME PSTACK, 0, STACK
        LOCFRAME XSTACK, 9, STACK
        LOCFRAME IOVERLAY, 0, STATIC
        LOCFRAME DOVERLAY, 0, STATIC
        ARGFRAME ISTACK, 0, STACK
        ARGFRAME PSTACK, 0, STACK
        ARGFRAME XSTACK, 9, STACK
        ARGFRAME IOVERLAY, 0, STATIC
        ARGFRAME DOVERLAY, 0, STATIC
        MOV     A,#-0x9
        LCALL   ?BANKED_ENTER_XDATA
          CFI R6 load(1, XDATA, add(CFA_XSP16, literal(-9)))
          CFI VB load(1, XDATA, add(CFA_XSP16, literal(-8)))
          CFI V0 load(1, XDATA, add(CFA_XSP16, literal(-7)))
          CFI R7 load(1, XDATA, add(CFA_XSP16, literal(-6)))
          CFI ?RET_LOW load(1, XDATA, add(CFA_XSP16, literal(-5)))
          CFI ?RET_HIGH load(1, XDATA, add(CFA_XSP16, literal(-4)))
          CFI ?BRET_EXT load(1, XDATA, add(CFA_XSP16, literal(-3)))
          CFI DPL0 load(1, XDATA, add(CFA_XSP16, literal(-2)))
          CFI DPH0 load(1, XDATA, add(CFA_XSP16, literal(-1)))
          CFI CFA_SP SP+0
          CFI CFA_XSP16 add(XSP16, 9)
        ; Saved register size: 9
        ; Auto size: 0
//  158   mtAfInMsgList_t *pPrev, *pItem = pMtAfInMsgList;
??MT_AfExec_0:
        MOV     DPTR,#pMtAfInMsgList
        SJMP    ??MT_AfExec_1
//  159 
//  160   while (pItem != NULL)
//  161   {
//  162     if (--(pItem->tick) == 0)
//  163     {
//  164       if (pMtAfInMsgList == pItem)
//  165       {
//  166         pMtAfInMsgList = pItem->next;
//  167         (void)osal_mem_free(pItem);
//  168         pItem = pMtAfInMsgList;
//  169       }
//  170       else
//  171       {
//  172         pPrev->next = pItem->next;
//  173         (void)osal_mem_free(pItem);
//  174         pItem = pPrev->next;
//  175       }
//  176     }
//  177     else
//  178     {
//  179       pPrev = pItem;
??MT_AfExec_2:
        MOV     A,R2
        MOV     R6,A
        MOV     A,R3
        MOV     R7,A
//  180       pItem = pItem->next;
        MOV     DPL,R2
        MOV     DPH,R3
//  181     }
??MT_AfExec_1:
        LCALL   ??Subroutine47_0 & 0xFFFF
??CrossCallReturnLabel_102:
        MOV     A,R2
        ORL     A,R3
        JZ      ??MT_AfExec_3
        MOV     A,R2
        ADD     A,#0x8
        MOV     DPL,A
        CLR     A
        ADDC    A,R3
        MOV     DPH,A
        MOVX    A,@DPTR
        DEC     A
        MOVX    @DPTR,A
        JNZ     ??MT_AfExec_2
        LCALL   ?Subroutine31 & 0xFFFF
??CrossCallReturnLabel_99:
        MOV     A,R2
        XRL     A,R0
        JNZ     ??MT_AfExec_4
        MOV     A,R3
        XRL     A,R1
??MT_AfExec_4:
        MOV     DPL,R2
        MOV     DPH,R3
        JNZ     ??MT_AfExec_5
        LCALL   ?Subroutine18 & 0xFFFF
??CrossCallReturnLabel_28:
        MOV     A,R0
        MOVX    @DPTR,A
        INC     DPTR
        MOV     A,R1
        MOVX    @DPTR,A
        ; Setup parameters for call to function osal_mem_free
        LCALL   `??osal_mem_free::?relay`; Banked call to: osal_mem_free
        SJMP    ??MT_AfExec_0
??MT_AfExec_5:
        LCALL   ??Subroutine46_0 & 0xFFFF
??CrossCallReturnLabel_97:
        MOV     DPL,R6
        MOV     DPH,R7
        MOV     A,R0
        MOVX    @DPTR,A
        INC     DPTR
        MOV     A,R1
        MOVX    @DPTR,A
        ; Setup parameters for call to function osal_mem_free
        LCALL   `??osal_mem_free::?relay`; Banked call to: osal_mem_free
        MOV     DPL,R6
        MOV     DPH,R7
        SJMP    ??MT_AfExec_1
//  182   }
//  183 
//  184   if (pMtAfDataReq != NULL)
??MT_AfExec_3:
        LCALL   ?Subroutine2 & 0xFFFF
??CrossCallReturnLabel_83:
        JZ      ??MT_AfExec_6
//  185   {
//  186     if (--(pMtAfDataReq->tick) == 0)
        MOVX    A,@DPTR
        XCH     A,R0
        LCALL   ?Subroutine37 & 0xFFFF
??CrossCallReturnLabel_58:
        MOVX    A,@DPTR
        DEC     A
        LCALL   ?Subroutine4 & 0xFFFF
??CrossCallReturnLabel_3:
        MOVX    A,@DPTR
        JNZ     ??MT_AfExec_6
//  187     {
//  188       (void)osal_mem_free(pMtAfDataReq);
        ; Setup parameters for call to function osal_mem_free
        LCALL   ?Subroutine11 & 0xFFFF
??CrossCallReturnLabel_105:
        LCALL   `??osal_mem_free::?relay`; Banked call to: osal_mem_free
//  189       pMtAfDataReq = NULL;
        MOV     DPTR,#pMtAfDataReq
        CLR     A
        MOVX    @DPTR,A
        INC     DPTR
        MOVX    @DPTR,A
//  190     }
//  191   }
//  192 
//  193   if ((pMtAfInMsgList != NULL) || (pMtAfDataReq != NULL))
??MT_AfExec_6:
        MOV     DPTR,#pMtAfInMsgList
        LCALL   ??Subroutine43_0 & 0xFFFF
??CrossCallReturnLabel_82:
        JNZ     ??MT_AfExec_7
        LCALL   ?Subroutine2 & 0xFFFF
??CrossCallReturnLabel_84:
        JZ      ??MT_AfExec_8
//  194   {
//  195     if (ZSuccess != osal_start_timerEx(MT_TaskID, MT_AF_EXEC_EVT, MT_AF_EXEC_DLY))
??MT_AfExec_7:
        ; Setup parameters for call to function osal_start_timerEx
        MOV     DPTR,#__Constant_3e8
        LCALL   ?PUSH_XSTACK8_X_FOUR
          CFI CFA_XSP16 add(XSP16, 13)
        MOV     R2,#0x8
        MOV     R3,#0x0
        MOV     DPTR,#MT_TaskID
        MOVX    A,@DPTR
        MOV     R1,A
        LCALL   `??osal_start_timerEx::?relay`; Banked call to: osal_start_timerEx
        MOV     A,#0x4
        LCALL   ?DEALLOC_XSTACK8
          CFI CFA_XSP16 add(XSP16, 9)
        MOV     A,R1
        JZ      ??MT_AfExec_8
//  196     {
//  197       osal_set_event(MT_TaskID, MT_AF_EXEC_EVT);
        ; Setup parameters for call to function osal_set_event
        MOV     R2,#0x8
        MOV     R3,#0x0
        MOV     DPTR,#MT_TaskID
        MOVX    A,@DPTR
        MOV     R1,A
        LCALL   `??osal_set_event::?relay`; Banked call to: osal_set_event
//  198     }
//  199   }
//  200 }
??MT_AfExec_8:
        MOV     R7,#0x1
        LJMP    ?BANKED_LEAVE_XDATA
          CFI EndBlock cfiBlock0
//  201 
//  202 /***************************************************************************************************
//  203  * @fn      MT_AfCommandProcessing
//  204  *
//  205  * @brief   Process all the AF commands that are issued by test tool
//  206  *
//  207  * @param   pBuf - pointer to the received buffer
//  208  *
//  209  * @return  status
//  210  ***************************************************************************************************/

        RSEG BANKED_CODE:CODE:NOROOT(0)
//  211 uint8 MT_AfCommandProcessing(uint8 *pBuf)
MT_AfCommandProcessing:
          CFI Block cfiBlock1 Using cfiCommon0
          CFI Function MT_AfCommandProcessing
        CODE
//  212 {
        FUNCALL MT_AfCommandProcessing, osal_mem_alloc
        LOCFRAME ISTACK, 0, STACK
        LOCFRAME PSTACK, 0, STACK
        LOCFRAME XSTACK, 19, STACK
        LOCFRAME IOVERLAY, 0, STATIC
        LOCFRAME DOVERLAY, 0, STATIC
        ARGFRAME ISTACK, 0, STACK
        ARGFRAME PSTACK, 0, STACK
        ARGFRAME XSTACK, 19, STACK
        ARGFRAME IOVERLAY, 0, STATIC
        ARGFRAME DOVERLAY, 0, STATIC
        FUNCALL MT_AfCommandProcessing, MT_BuildEndpointDesc
        LOCFRAME ISTACK, 0, STACK
        LOCFRAME PSTACK, 0, STACK
        LOCFRAME XSTACK, 19, STACK
        LOCFRAME IOVERLAY, 0, STATIC
        LOCFRAME DOVERLAY, 0, STATIC
        ARGFRAME ISTACK, 0, STACK
        ARGFRAME PSTACK, 0, STACK
        ARGFRAME XSTACK, 19, STACK
        ARGFRAME IOVERLAY, 0, STATIC
        ARGFRAME DOVERLAY, 0, STATIC
        FUNCALL MT_AfCommandProcessing, afRegister
        LOCFRAME ISTACK, 0, STACK
        LOCFRAME PSTACK, 0, STACK
        LOCFRAME XSTACK, 19, STACK
        LOCFRAME IOVERLAY, 0, STATIC
        LOCFRAME DOVERLAY, 0, STATIC
        ARGFRAME ISTACK, 0, STACK
        ARGFRAME PSTACK, 0, STACK
        ARGFRAME XSTACK, 19, STACK
        ARGFRAME IOVERLAY, 0, STATIC
        ARGFRAME DOVERLAY, 0, STATIC
        FUNCALL MT_AfCommandProcessing, osal_mem_free
        LOCFRAME ISTACK, 0, STACK
        LOCFRAME PSTACK, 0, STACK
        LOCFRAME XSTACK, 19, STACK
        LOCFRAME IOVERLAY, 0, STATIC
        LOCFRAME DOVERLAY, 0, STATIC
        ARGFRAME ISTACK, 0, STACK
        ARGFRAME PSTACK, 0, STACK
        ARGFRAME XSTACK, 19, STACK
        ARGFRAME IOVERLAY, 0, STATIC
        ARGFRAME DOVERLAY, 0, STATIC
        FUNCALL MT_AfCommandProcessing, MT_BuildAndSendZToolResponse
        LOCFRAME ISTACK, 0, STACK
        LOCFRAME PSTACK, 0, STACK
        LOCFRAME XSTACK, 19, STACK
        LOCFRAME IOVERLAY, 0, STATIC
        LOCFRAME DOVERLAY, 0, STATIC
        ARGFRAME ISTACK, 0, STACK
        ARGFRAME PSTACK, 0, STACK
        ARGFRAME XSTACK, 19, STACK
        ARGFRAME IOVERLAY, 0, STATIC
        ARGFRAME DOVERLAY, 0, STATIC
        FUNCALL MT_AfCommandProcessing, afDelete
        LOCFRAME ISTACK, 0, STACK
        LOCFRAME PSTACK, 0, STACK
        LOCFRAME XSTACK, 19, STACK
        LOCFRAME IOVERLAY, 0, STATIC
        LOCFRAME DOVERLAY, 0, STATIC
        ARGFRAME ISTACK, 0, STACK
        ARGFRAME PSTACK, 0, STACK
        ARGFRAME XSTACK, 19, STACK
        ARGFRAME IOVERLAY, 0, STATIC
        ARGFRAME DOVERLAY, 0, STATIC
        FUNCALL MT_AfCommandProcessing, MT_BuildAndSendZToolResponse
        LOCFRAME ISTACK, 0, STACK
        LOCFRAME PSTACK, 0, STACK
        LOCFRAME XSTACK, 19, STACK
        LOCFRAME IOVERLAY, 0, STATIC
        LOCFRAME DOVERLAY, 0, STATIC
        ARGFRAME ISTACK, 0, STACK
        ARGFRAME PSTACK, 0, STACK
        ARGFRAME XSTACK, 19, STACK
        ARGFRAME IOVERLAY, 0, STATIC
        ARGFRAME DOVERLAY, 0, STATIC
        FUNCALL MT_AfCommandProcessing, MT_AfDataRequest
        LOCFRAME ISTACK, 0, STACK
        LOCFRAME PSTACK, 0, STACK
        LOCFRAME XSTACK, 19, STACK
        LOCFRAME IOVERLAY, 0, STATIC
        LOCFRAME DOVERLAY, 0, STATIC
        ARGFRAME ISTACK, 0, STACK
        ARGFRAME PSTACK, 0, STACK
        ARGFRAME XSTACK, 19, STACK
        ARGFRAME IOVERLAY, 0, STATIC
        ARGFRAME DOVERLAY, 0, STATIC
        FUNCALL MT_AfCommandProcessing, MT_AfDataRequestSrcRtg
        LOCFRAME ISTACK, 0, STACK
        LOCFRAME PSTACK, 0, STACK
        LOCFRAME XSTACK, 19, STACK
        LOCFRAME IOVERLAY, 0, STATIC
        LOCFRAME DOVERLAY, 0, STATIC
        ARGFRAME ISTACK, 0, STACK
        ARGFRAME PSTACK, 0, STACK
        ARGFRAME XSTACK, 19, STACK
        ARGFRAME IOVERLAY, 0, STATIC
        ARGFRAME DOVERLAY, 0, STATIC
        FUNCALL MT_AfCommandProcessing, MT_AfDataRetrieve
        LOCFRAME ISTACK, 0, STACK
        LOCFRAME PSTACK, 0, STACK
        LOCFRAME XSTACK, 19, STACK
        LOCFRAME IOVERLAY, 0, STATIC
        LOCFRAME DOVERLAY, 0, STATIC
        ARGFRAME ISTACK, 0, STACK
        ARGFRAME PSTACK, 0, STACK
        ARGFRAME XSTACK, 19, STACK
        ARGFRAME IOVERLAY, 0, STATIC
        ARGFRAME DOVERLAY, 0, STATIC
        FUNCALL MT_AfCommandProcessing, MT_AfDataStore
        LOCFRAME ISTACK, 0, STACK
        LOCFRAME PSTACK, 0, STACK
        LOCFRAME XSTACK, 19, STACK
        LOCFRAME IOVERLAY, 0, STATIC
        LOCFRAME DOVERLAY, 0, STATIC
        ARGFRAME ISTACK, 0, STACK
        ARGFRAME PSTACK, 0, STACK
        ARGFRAME XSTACK, 19, STACK
        ARGFRAME IOVERLAY, 0, STATIC
        ARGFRAME DOVERLAY, 0, STATIC
        FUNCALL MT_AfCommandProcessing, afAPSF_ConfigSet
        LOCFRAME ISTACK, 0, STACK
        LOCFRAME PSTACK, 0, STACK
        LOCFRAME XSTACK, 19, STACK
        LOCFRAME IOVERLAY, 0, STATIC
        LOCFRAME DOVERLAY, 0, STATIC
        ARGFRAME ISTACK, 0, STACK
        ARGFRAME PSTACK, 0, STACK
        ARGFRAME XSTACK, 19, STACK
        ARGFRAME IOVERLAY, 0, STATIC
        ARGFRAME DOVERLAY, 0, STATIC
        FUNCALL MT_AfCommandProcessing, MT_BuildAndSendZToolResponse
        LOCFRAME ISTACK, 0, STACK
        LOCFRAME PSTACK, 0, STACK
        LOCFRAME XSTACK, 19, STACK
        LOCFRAME IOVERLAY, 0, STATIC
        LOCFRAME DOVERLAY, 0, STATIC
        ARGFRAME ISTACK, 0, STACK
        ARGFRAME PSTACK, 0, STACK
        ARGFRAME XSTACK, 19, STACK
        ARGFRAME IOVERLAY, 0, STATIC
        ARGFRAME DOVERLAY, 0, STATIC
        FUNCALL MT_AfCommandProcessing, afAPSF_ConfigGet
        LOCFRAME ISTACK, 0, STACK
        LOCFRAME PSTACK, 0, STACK
        LOCFRAME XSTACK, 19, STACK
        LOCFRAME IOVERLAY, 0, STATIC
        LOCFRAME DOVERLAY, 0, STATIC
        ARGFRAME ISTACK, 0, STACK
        ARGFRAME PSTACK, 0, STACK
        ARGFRAME XSTACK, 19, STACK
        ARGFRAME IOVERLAY, 0, STATIC
        ARGFRAME DOVERLAY, 0, STATIC
        FUNCALL MT_AfCommandProcessing, MT_BuildAndSendZToolResponse
        LOCFRAME ISTACK, 0, STACK
        LOCFRAME PSTACK, 0, STACK
        LOCFRAME XSTACK, 19, STACK
        LOCFRAME IOVERLAY, 0, STATIC
        LOCFRAME DOVERLAY, 0, STATIC
        ARGFRAME ISTACK, 0, STACK
        ARGFRAME PSTACK, 0, STACK
        ARGFRAME XSTACK, 19, STACK
        ARGFRAME IOVERLAY, 0, STATIC
        ARGFRAME DOVERLAY, 0, STATIC
        REQUIRE ?V0
        REQUIRE ?V1
        REQUIRE ?V2
        REQUIRE ?V3
        REQUIRE ?V4
        REQUIRE ?V5
        MOV     A,#-0xe
        LCALL   ?BANKED_ENTER_XDATA
          CFI DPH0 load(1, XDATA, add(CFA_XSP16, literal(-1)))
          CFI DPL0 load(1, XDATA, add(CFA_XSP16, literal(-2)))
          CFI ?BRET_EXT load(1, XDATA, add(CFA_XSP16, literal(-3)))
          CFI ?RET_HIGH load(1, XDATA, add(CFA_XSP16, literal(-4)))
          CFI ?RET_LOW load(1, XDATA, add(CFA_XSP16, literal(-5)))
          CFI R7 load(1, XDATA, add(CFA_XSP16, literal(-6)))
          CFI V5 load(1, XDATA, add(CFA_XSP16, literal(-7)))
          CFI V4 load(1, XDATA, add(CFA_XSP16, literal(-8)))
          CFI V3 load(1, XDATA, add(CFA_XSP16, literal(-9)))
          CFI V2 load(1, XDATA, add(CFA_XSP16, literal(-10)))
          CFI V1 load(1, XDATA, add(CFA_XSP16, literal(-11)))
          CFI V0 load(1, XDATA, add(CFA_XSP16, literal(-12)))
          CFI VB load(1, XDATA, add(CFA_XSP16, literal(-13)))
          CFI R6 load(1, XDATA, add(CFA_XSP16, literal(-14)))
          CFI CFA_SP SP+0
          CFI CFA_XSP16 add(XSP16, 14)
        ; Saved register size: 14
        ; Auto size: 5
        MOV     A,#-0x5
        LCALL   ?ALLOC_XSTACK8
          CFI CFA_XSP16 add(XSP16, 19)
//  213   uint8 status = MT_RPC_SUCCESS;
        MOV     ?V0,#0x0
//  214 
//  215   switch (pBuf[MT_RPC_POS_CMD1])
        MOV     A,R2
        ADD     A,#0x3
        MOV     ?V2,A
        CLR     A
        ADDC    A,R3
        MOV     ?V3,A
        MOV     A,R2
        ADD     A,#0x2
        MOV     R0,A
        CLR     A
        ADDC    A,R3
        MOV     R1,A
        MOV     DPL,R0
        MOV     DPH,R1
        MOVX    A,@DPTR
        JZ      ??MT_AfCommandProcessing_0
        DEC     A
        JNZ     $+5
        LJMP    ??MT_AfCommandProcessing_1 & 0xFFFF
        DEC     A
        JNZ     $+5
        LJMP    ??MT_AfCommandProcessing_1 & 0xFFFF
        DEC     A
        JNZ     $+5
        LJMP    ??MT_AfCommandProcessing_2 & 0xFFFF
        DEC     A
        JZ      ??MT_AfCommandProcessing_3
        ADD     A,#-0xd
        JNZ     $+5
        LJMP    ??MT_AfCommandProcessing_4 & 0xFFFF
        DEC     A
        JNZ     $+5
        LJMP    ??MT_AfCommandProcessing_5 & 0xFFFF
        DEC     A
        JNZ     $+5
        LJMP    ??MT_AfCommandProcessing_6 & 0xFFFF
        DEC     A
        JNZ     $+5
        LJMP    ??MT_AfCommandProcessing_7 & 0xFFFF
        LJMP    ??MT_AfCommandProcessing_8 & 0xFFFF
//  216   {
//  217     case MT_AF_REGISTER:
//  218       MT_AfRegister(pBuf);
??MT_AfCommandProcessing_0:
        LCALL   ?Subroutine23 & 0xFFFF
??CrossCallReturnLabel_88:
        MOVX    A,@DPTR
        MOV     ?V1,A
        ; Setup parameters for call to function osal_mem_alloc
        MOV     R2,#0x6
        MOV     R3,#0x0
        LCALL   `??osal_mem_alloc::?relay`; Banked call to: osal_mem_alloc
        MOV     ?V4,R2
        MOV     ?V5,R3
        MOV     R6,?V4
        MOV     R7,?V5
        MOV     A,R6
        ORL     A,R7
        JZ      ??MT_AfCommandProcessing_9
        MOV     DPL,R6
        MOV     DPH,R7
        INC     DPTR
        MOV     A,#MT_TaskID & 0xff
        MOVX    @DPTR,A
        INC     DPTR
        MOV     A,#(MT_TaskID >> 8) & 0xff
        MOVX    @DPTR,A
        ; Setup parameters for call to function MT_BuildEndpointDesc
        MOV     A,R6
        MOV     R4,A
        MOV     A,R7
        MOV     R5,A
        MOV     R2,?V2
        MOV     R3,?V3
        LCALL   `??MT_BuildEndpointDesc::?relay`; Banked call to: MT_BuildEndpointDesc
        MOV     A,R1
        MOV     DPL,?XSP + 0
        MOV     DPH,?XSP + 1
        MOVX    @DPTR,A
        JNZ     ??MT_AfCommandProcessing_10
        ; Setup parameters for call to function afRegister
        MOV     A,R6
        MOV     R2,A
        MOV     A,R7
        MOV     R3,A
        LCALL   `??afRegister::?relay`; Banked call to: afRegister
        MOV     A,R1
        MOV     DPL,?XSP + 0
        MOV     DPH,?XSP + 1
        MOVX    @DPTR,A
??MT_AfCommandProcessing_10:
        MOVX    A,@DPTR
        JZ      ??MT_AfCommandProcessing_9
        ; Setup parameters for call to function osal_mem_free
        MOV     A,R6
        MOV     R2,A
        MOV     A,R7
        MOV     R3,A
        LCALL   `??osal_mem_free::?relay`; Banked call to: osal_mem_free
??MT_AfCommandProcessing_9:
        ; Setup parameters for call to function MT_BuildAndSendZToolResponse
        MOV     R4,?XSP + 0
        MOV     R5,?XSP + 1
        MOV     R3,#0x1
        MOV     R2,?V1
        LJMP    ??MT_AfCommandProcessing_11 & 0xFFFF
//  219       break;
//  220 
//  221     case MT_AF_DELETE:
//  222       MT_AfDelete( pBuf );
??MT_AfCommandProcessing_3:
        LCALL   ?Subroutine23 & 0xFFFF
??CrossCallReturnLabel_89:
        MOVX    A,@DPTR
        MOV     R6,A
        ; Setup parameters for call to function afDelete
        MOV     DPL,?V2
        MOV     DPH,?V3
        MOVX    A,@DPTR
        MOV     R1,A
        LCALL   `??afDelete::?relay` ; Banked call to: afDelete
        LCALL   ?Subroutine24 & 0xFFFF
??CrossCallReturnLabel_72:
        MOV     A,R6
        MOV     R2,A
        LJMP    ??MT_AfCommandProcessing_11 & 0xFFFF
//  223       break;
//  224 
//  225     case MT_AF_DATA_REQUEST:
//  226     case MT_AF_DATA_REQUEST_EXT:
//  227       MT_AfDataRequest(pBuf);
??MT_AfCommandProcessing_1:
        ; Setup parameters for call to function MT_AfDataRequest
        LCALL   `??MT_AfDataRequest::?relay`; Banked call to: MT_AfDataRequest
//  228       break;
        LJMP    ??MT_AfCommandProcessing_12 & 0xFFFF
//  229 
//  230 #if defined( ZIGBEEPRO )
//  231     case MT_AF_DATA_REQUEST_SRCRTG:
//  232       MT_AfDataRequestSrcRtg(pBuf);
??MT_AfCommandProcessing_2:
        ; Setup parameters for call to function MT_AfDataRequestSrcRtg
        LCALL   `??MT_AfDataRequestSrcRtg::?relay`; Banked call to: MT_AfDataRequestSrcRtg
//  233       break;
        LJMP    ??MT_AfCommandProcessing_12 & 0xFFFF
//  234 #endif
//  235 
//  236 #if defined INTER_PAN
//  237     case MT_AF_INTER_PAN_CTL:
//  238       MT_AfInterPanCtl(pBuf);
//  239       break;
//  240 #endif
//  241 
//  242     case MT_AF_DATA_RETRIEVE:
//  243       MT_AfDataRetrieve(pBuf);
??MT_AfCommandProcessing_5:
        ; Setup parameters for call to function MT_AfDataRetrieve
        LCALL   `??MT_AfDataRetrieve::?relay`; Banked call to: MT_AfDataRetrieve
//  244       break;
        LJMP    ??MT_AfCommandProcessing_12 & 0xFFFF
//  245 
//  246     case MT_AF_DATA_STORE:
//  247       MT_AfDataStore(pBuf);
??MT_AfCommandProcessing_4:
        ; Setup parameters for call to function MT_AfDataStore
        LCALL   `??MT_AfDataStore::?relay`; Banked call to: MT_AfDataStore
//  248       break;
        LJMP    ??MT_AfCommandProcessing_12 & 0xFFFF
//  249 
//  250     case MT_AF_APSF_CONFIG_SET:
//  251       MT_AfAPSF_ConfigSet(pBuf);
??MT_AfCommandProcessing_6:
        MOV     DPL,R2
        MOV     DPH,R3
        INC     DPTR
        INC     DPTR
        INC     DPTR
        INC     DPTR
        MOVX    A,@DPTR
        PUSH    A
          CFI CFA_SP SP+-1
        MOV     A,#0x1
        LCALL   ?XSTACK_DISP0_8
        POP     A
          CFI CFA_SP SP+0
        LCALL   ?Subroutine25 & 0xFFFF
??CrossCallReturnLabel_36:
        INC     DPTR
        MOVX    A,@DPTR
        PUSH    A
          CFI CFA_SP SP+-1
        MOV     A,#0x2
        LCALL   ?XSTACK_DISP0_8
        POP     A
          CFI CFA_SP SP+0
        MOVX    @DPTR,A
        ; Setup parameters for call to function afAPSF_ConfigSet
        MOV     A,#0x1
        LCALL   ?XSTACK_DISP101_8
        MOV     DPL,?V2
        MOV     DPH,?V3
        MOVX    A,@DPTR
        MOV     R1,A
        LCALL   `??afAPSF_ConfigSet::?relay`; Banked call to: afAPSF_ConfigSet
        LCALL   ?Subroutine24 & 0xFFFF
??CrossCallReturnLabel_73:
        MOV     R2,#0x13
        SJMP    ??MT_AfCommandProcessing_11
//  252       break;
//  253 
//  254     case MT_AF_APSF_CONFIG_GET:
//  255       MT_AfAPSF_ConfigGet(pBuf);
??MT_AfCommandProcessing_7:
        MOV     DPTR,#`?<Constant {0, 0}>`
        MOV     A,#0x1
        LCALL   ?XSTACK_DISP102_8
        MOV     A,#0x2
        LCALL   ?MOVE_LONG8_XDATA_XDATA
        ; Setup parameters for call to function afAPSF_ConfigGet
        INC     A
        LCALL   ?XSTACK_DISP101_8
        MOV     DPL,?V2
        MOV     DPH,?V3
        MOVX    A,@DPTR
        MOV     R1,A
        LCALL   `??afAPSF_ConfigGet::?relay`; Banked call to: afAPSF_ConfigGet
        MOV     A,#0x1
        LCALL   ?XSTACK_DISP0_8
        MOVX    A,@DPTR
        PUSH    A
          CFI CFA_SP SP+-1
        MOV     A,#0x3
        LCALL   ?XSTACK_DISP0_8
        POP     A
          CFI CFA_SP SP+0
        MOVX    @DPTR,A
        MOV     A,#0x2
        LCALL   ?XSTACK_DISP0_8
        MOVX    A,@DPTR
        PUSH    A
          CFI CFA_SP SP+-1
        MOV     A,#0x4
        LCALL   ?XSTACK_DISP0_8
        POP     A
          CFI CFA_SP SP+0
        MOVX    @DPTR,A
        ; Setup parameters for call to function MT_BuildAndSendZToolResponse
        MOV     A,#0x3
        LCALL   ?XSTACK_DISP102_8
        MOV     R3,#0x3
        MOV     R2,#0x14
??MT_AfCommandProcessing_11:
        MOV     R1,#0x64
        LCALL   `??MT_BuildAndSendZToolResponse::?relay`; Banked call to: MT_BuildAndSendZToolResponse
//  256       break;
        SJMP    ??MT_AfCommandProcessing_12
//  257 
//  258     default:
//  259       status = MT_RPC_ERR_COMMAND_ID;
??MT_AfCommandProcessing_8:
        MOV     ?V0,#0x2
//  260       break;
//  261   }
//  262 
//  263   return status;
??MT_AfCommandProcessing_12:
        MOV     R1,?V0
        MOV     A,#0x5
          CFI EndBlock cfiBlock1
        REQUIRE ?Subroutine0
        ; // Fall through to label ?Subroutine0
//  264 }

        RSEG BANKED_CODE:CODE:NOROOT(0)
?Subroutine0:
          CFI Block cfiBlock2 Using cfiCommon0
          CFI NoFunction
          CFI CFA_SP SP+0
          CFI CFA_XSP16 add(XSP16, 19)
          CFI VB load(1, XDATA, add(CFA_XSP16, literal(-13)))
          CFI DPL0 load(1, XDATA, add(CFA_XSP16, literal(-2)))
          CFI DPH0 load(1, XDATA, add(CFA_XSP16, literal(-1)))
          CFI R6 load(1, XDATA, add(CFA_XSP16, literal(-14)))
          CFI R7 load(1, XDATA, add(CFA_XSP16, literal(-6)))
          CFI V0 load(1, XDATA, add(CFA_XSP16, literal(-12)))
          CFI V1 load(1, XDATA, add(CFA_XSP16, literal(-11)))
          CFI V2 load(1, XDATA, add(CFA_XSP16, literal(-10)))
          CFI V3 load(1, XDATA, add(CFA_XSP16, literal(-9)))
          CFI V4 load(1, XDATA, add(CFA_XSP16, literal(-8)))
          CFI V5 load(1, XDATA, add(CFA_XSP16, literal(-7)))
          CFI ?BRET_EXT load(1, XDATA, add(CFA_XSP16, literal(-3)))
          CFI ?RET_HIGH load(1, XDATA, add(CFA_XSP16, literal(-4)))
          CFI ?RET_LOW load(1, XDATA, add(CFA_XSP16, literal(-5)))
          CFI Invalid
        LCALL   ?DEALLOC_XSTACK8
          CFI CFA_XSP16 add(XSP16, 14)
          CFI Valid
        MOV     R7,#0x6
        LJMP    ?BANKED_LEAVE_XDATA
          CFI EndBlock cfiBlock2

        RSEG BANKED_CODE:CODE:NOROOT(0)
?Subroutine24:
          CFI Block cfiCond3 Using cfiCommon0
          CFI Function MT_AfCommandProcessing
          CFI Conditional ??CrossCallReturnLabel_72
          CFI R6 load(1, XDATA, add(CFA_XSP16, literal(-14)))
          CFI VB load(1, XDATA, add(CFA_XSP16, literal(-13)))
          CFI V0 load(1, XDATA, add(CFA_XSP16, literal(-12)))
          CFI V1 load(1, XDATA, add(CFA_XSP16, literal(-11)))
          CFI V2 load(1, XDATA, add(CFA_XSP16, literal(-10)))
          CFI V3 load(1, XDATA, add(CFA_XSP16, literal(-9)))
          CFI V4 load(1, XDATA, add(CFA_XSP16, literal(-8)))
          CFI V5 load(1, XDATA, add(CFA_XSP16, literal(-7)))
          CFI R7 load(1, XDATA, add(CFA_XSP16, literal(-6)))
          CFI ?RET_LOW load(1, XDATA, add(CFA_XSP16, literal(-5)))
          CFI ?RET_HIGH load(1, XDATA, add(CFA_XSP16, literal(-4)))
          CFI ?BRET_EXT load(1, XDATA, add(CFA_XSP16, literal(-3)))
          CFI DPL0 load(1, XDATA, add(CFA_XSP16, literal(-2)))
          CFI DPH0 load(1, XDATA, add(CFA_XSP16, literal(-1)))
          CFI CFA_SP SP+-2
          CFI CFA_XSP16 add(XSP16, 19)
          CFI Block cfiCond4 Using cfiCommon0
          CFI (cfiCond4) Function MT_AfCommandProcessing
          CFI (cfiCond4) Conditional ??CrossCallReturnLabel_73
          CFI (cfiCond4) R6 load(1, XDATA, add(CFA_XSP16, literal(-14)))
          CFI (cfiCond4) VB load(1, XDATA, add(CFA_XSP16, literal(-13)))
          CFI (cfiCond4) V0 load(1, XDATA, add(CFA_XSP16, literal(-12)))
          CFI (cfiCond4) V1 load(1, XDATA, add(CFA_XSP16, literal(-11)))
          CFI (cfiCond4) V2 load(1, XDATA, add(CFA_XSP16, literal(-10)))
          CFI (cfiCond4) V3 load(1, XDATA, add(CFA_XSP16, literal(-9)))
          CFI (cfiCond4) V4 load(1, XDATA, add(CFA_XSP16, literal(-8)))
          CFI (cfiCond4) V5 load(1, XDATA, add(CFA_XSP16, literal(-7)))
          CFI (cfiCond4) R7 load(1, XDATA, add(CFA_XSP16, literal(-6)))
          CFI (cfiCond4) ?RET_LOW load(1, XDATA, add(CFA_XSP16, literal(-5)))
          CFI (cfiCond4) ?RET_HIGH load(1, XDATA, add(CFA_XSP16, literal(-4)))
          CFI (cfiCond4) ?BRET_EXT load(1, XDATA, add(CFA_XSP16, literal(-3)))
          CFI (cfiCond4) DPL0 load(1, XDATA, add(CFA_XSP16, literal(-2)))
          CFI (cfiCond4) DPH0 load(1, XDATA, add(CFA_XSP16, literal(-1)))
          CFI (cfiCond4) CFA_SP SP+-2
          CFI (cfiCond4) CFA_XSP16 add(XSP16, 19)
          CFI Block cfiPicker5 Using cfiCommon1
          CFI (cfiPicker5) NoFunction
          CFI (cfiPicker5) Picker
        MOV     A,R1
        MOV     DPL,?XSP + 0
        MOV     DPH,?XSP + 1
          CFI EndBlock cfiCond3
          CFI EndBlock cfiCond4
          CFI EndBlock cfiPicker5
        REQUIRE ??Subroutine41_0
        ; // Fall through to label ??Subroutine41_0

        RSEG BANKED_CODE:CODE:NOROOT(0)
??Subroutine41_0:
          CFI Block cfiCond6 Using cfiCommon0
          CFI Function MT_AfDataStore
          CFI Conditional ??CrossCallReturnLabel_74
          CFI R6 load(1, XDATA, add(CFA_XSP16, literal(-14)))
          CFI VB load(1, XDATA, add(CFA_XSP16, literal(-13)))
          CFI V0 load(1, XDATA, add(CFA_XSP16, literal(-12)))
          CFI V1 load(1, XDATA, add(CFA_XSP16, literal(-11)))
          CFI V2 load(1, XDATA, add(CFA_XSP16, literal(-10)))
          CFI V3 load(1, XDATA, add(CFA_XSP16, literal(-9)))
          CFI V4 load(1, XDATA, add(CFA_XSP16, literal(-8)))
          CFI V5 load(1, XDATA, add(CFA_XSP16, literal(-7)))
          CFI R7 load(1, XDATA, add(CFA_XSP16, literal(-6)))
          CFI ?RET_LOW load(1, XDATA, add(CFA_XSP16, literal(-5)))
          CFI ?RET_HIGH load(1, XDATA, add(CFA_XSP16, literal(-4)))
          CFI ?BRET_EXT load(1, XDATA, add(CFA_XSP16, literal(-3)))
          CFI DPL0 load(1, XDATA, add(CFA_XSP16, literal(-2)))
          CFI DPH0 load(1, XDATA, add(CFA_XSP16, literal(-1)))
          CFI CFA_SP SP+-2
          CFI CFA_XSP16 add(XSP16, 15)
          CFI Block cfiCond7 Using cfiCommon0
          CFI (cfiCond7) Function MT_AfCommandProcessing
          CFI (cfiCond7) Conditional ??CrossCallReturnLabel_72
          CFI (cfiCond7) R6 load(1, XDATA, add(CFA_XSP16, literal(-14)))
          CFI (cfiCond7) VB load(1, XDATA, add(CFA_XSP16, literal(-13)))
          CFI (cfiCond7) V0 load(1, XDATA, add(CFA_XSP16, literal(-12)))
          CFI (cfiCond7) V1 load(1, XDATA, add(CFA_XSP16, literal(-11)))
          CFI (cfiCond7) V2 load(1, XDATA, add(CFA_XSP16, literal(-10)))
          CFI (cfiCond7) V3 load(1, XDATA, add(CFA_XSP16, literal(-9)))
          CFI (cfiCond7) V4 load(1, XDATA, add(CFA_XSP16, literal(-8)))
          CFI (cfiCond7) V5 load(1, XDATA, add(CFA_XSP16, literal(-7)))
          CFI (cfiCond7) R7 load(1, XDATA, add(CFA_XSP16, literal(-6)))
          CFI (cfiCond7) ?RET_LOW load(1, XDATA, add(CFA_XSP16, literal(-5)))
          CFI (cfiCond7) ?RET_HIGH load(1, XDATA, add(CFA_XSP16, literal(-4)))
          CFI (cfiCond7) ?BRET_EXT load(1, XDATA, add(CFA_XSP16, literal(-3)))
          CFI (cfiCond7) DPL0 load(1, XDATA, add(CFA_XSP16, literal(-2)))
          CFI (cfiCond7) DPH0 load(1, XDATA, add(CFA_XSP16, literal(-1)))
          CFI (cfiCond7) CFA_SP SP+-2
          CFI (cfiCond7) CFA_XSP16 add(XSP16, 19)
          CFI Block cfiCond8 Using cfiCommon0
          CFI (cfiCond8) Function MT_AfCommandProcessing
          CFI (cfiCond8) Conditional ??CrossCallReturnLabel_73
          CFI (cfiCond8) R6 load(1, XDATA, add(CFA_XSP16, literal(-14)))
          CFI (cfiCond8) VB load(1, XDATA, add(CFA_XSP16, literal(-13)))
          CFI (cfiCond8) V0 load(1, XDATA, add(CFA_XSP16, literal(-12)))
          CFI (cfiCond8) V1 load(1, XDATA, add(CFA_XSP16, literal(-11)))
          CFI (cfiCond8) V2 load(1, XDATA, add(CFA_XSP16, literal(-10)))
          CFI (cfiCond8) V3 load(1, XDATA, add(CFA_XSP16, literal(-9)))
          CFI (cfiCond8) V4 load(1, XDATA, add(CFA_XSP16, literal(-8)))
          CFI (cfiCond8) V5 load(1, XDATA, add(CFA_XSP16, literal(-7)))
          CFI (cfiCond8) R7 load(1, XDATA, add(CFA_XSP16, literal(-6)))
          CFI (cfiCond8) ?RET_LOW load(1, XDATA, add(CFA_XSP16, literal(-5)))
          CFI (cfiCond8) ?RET_HIGH load(1, XDATA, add(CFA_XSP16, literal(-4)))
          CFI (cfiCond8) ?BRET_EXT load(1, XDATA, add(CFA_XSP16, literal(-3)))
          CFI (cfiCond8) DPL0 load(1, XDATA, add(CFA_XSP16, literal(-2)))
          CFI (cfiCond8) DPH0 load(1, XDATA, add(CFA_XSP16, literal(-1)))
          CFI (cfiCond8) CFA_SP SP+-2
          CFI (cfiCond8) CFA_XSP16 add(XSP16, 19)
          CFI Block cfiPicker9 Using cfiCommon1
          CFI (cfiPicker9) NoFunction
          CFI (cfiPicker9) Picker
        MOVX    @DPTR,A
        ; Setup parameters for call to function MT_BuildAndSendZToolResponse
        ; Setup parameters for call to function MT_BuildAndSendZToolResponse
        ; Setup parameters for call to function MT_BuildAndSendZToolResponse
        MOV     R4,?XSP + 0
        MOV     R5,?XSP + 1
        MOV     R3,#0x1
        RET
          CFI EndBlock cfiCond6
          CFI EndBlock cfiCond7
          CFI EndBlock cfiCond8
          CFI EndBlock cfiPicker9
//  265 
//  266 /***************************************************************************************************
//  267  * @fn      MT_AfRegister
//  268  *
//  269  * @brief   Process AF Register command
//  270  *
//  271  * @param   pBuf - pointer to the received buffer
//  272  *
//  273  * @return  none
//  274  ***************************************************************************************************/
//  275 static void MT_AfRegister(uint8 *pBuf)
//  276 {
//  277   uint8 cmdId;
//  278   uint8 retValue = ZMemError;
//  279   endPointDesc_t *epDesc;
//  280 
//  281   /* parse header */
//  282   cmdId = pBuf[MT_RPC_POS_CMD1];
//  283   pBuf += MT_RPC_FRAME_HDR_SZ;
//  284 
//  285   epDesc = (endPointDesc_t *)osal_mem_alloc(sizeof(endPointDesc_t));
//  286   if ( epDesc )
//  287   {
//  288     epDesc->task_id = &MT_TaskID;
//  289     retValue = MT_BuildEndpointDesc( pBuf, epDesc );
//  290     if ( retValue == ZSuccess )
//  291     {
//  292       retValue = afRegister( epDesc );
//  293     }
//  294 
//  295     if ( retValue != ZSuccess )
//  296     {
//  297       osal_mem_free( epDesc );
//  298     }
//  299   }
//  300 
//  301   /* Build and send back the response */
//  302   MT_BuildAndSendZToolResponse(((uint8)MT_RPC_CMD_SRSP | (uint8)MT_RPC_SYS_AF), cmdId, 1, &retValue);
//  303 }
//  304 
//  305 /***************************************************************************************************
//  306  * @fn      MT_AfDelete
//  307  *
//  308  * @brief   Process AF Delete Endpoint command
//  309  *
//  310  * @param   pBuf - pointer to the received buffer
//  311  *
//  312  * @return  none
//  313  ***************************************************************************************************/
//  314 static void MT_AfDelete(uint8 *pBuf)
//  315 {
//  316   uint8 cmdId;
//  317   uint8 retValue = ZMemError;
//  318 
//  319   /* parse header */
//  320   cmdId = pBuf[MT_RPC_POS_CMD1];
//  321   pBuf += MT_RPC_FRAME_HDR_SZ;
//  322 
//  323   retValue = afDelete( *pBuf );
//  324 
//  325   /* Build and send back the response */
//  326   MT_BuildAndSendZToolResponse(((uint8)MT_RPC_CMD_SRSP | (uint8)MT_RPC_SYS_AF), cmdId, 1, &retValue);
//  327 }
//  328 
//  329 /***************************************************************************************************
//  330  * @fn      MT_AfDataRequest
//  331  *
//  332  * @brief   Process AF Register command
//  333  *
//  334  * @param   pBuf - pointer to the received buffer
//  335  *
//  336  * @return  none
//  337  ***************************************************************************************************/

        RSEG BANKED_CODE:CODE:NOROOT(0)
//  338 static void MT_AfDataRequest(uint8 *pBuf)
MT_AfDataRequest:
          CFI Block cfiBlock10 Using cfiCommon0
          CFI Function MT_AfDataRequest
        CODE
//  339 {
        FUNCALL MT_AfDataRequest, osal_memcpy
        LOCFRAME ISTACK, 0, STACK
        LOCFRAME PSTACK, 0, STACK
        LOCFRAME XSTACK, 38, STACK
        LOCFRAME IOVERLAY, 0, STATIC
        LOCFRAME DOVERLAY, 0, STATIC
        ARGFRAME ISTACK, 0, STACK
        ARGFRAME PSTACK, 0, STACK
        ARGFRAME XSTACK, 38, STACK
        ARGFRAME IOVERLAY, 0, STATIC
        ARGFRAME DOVERLAY, 0, STATIC
        FUNCALL MT_AfDataRequest, osal_build_uint16
        LOCFRAME ISTACK, 0, STACK
        LOCFRAME PSTACK, 0, STACK
        LOCFRAME XSTACK, 35, STACK
        LOCFRAME IOVERLAY, 0, STATIC
        LOCFRAME DOVERLAY, 0, STATIC
        ARGFRAME ISTACK, 0, STACK
        ARGFRAME PSTACK, 0, STACK
        ARGFRAME XSTACK, 35, STACK
        ARGFRAME IOVERLAY, 0, STATIC
        ARGFRAME DOVERLAY, 0, STATIC
        FUNCALL MT_AfDataRequest, osal_build_uint16
        LOCFRAME ISTACK, 0, STACK
        LOCFRAME PSTACK, 0, STACK
        LOCFRAME XSTACK, 35, STACK
        LOCFRAME IOVERLAY, 0, STATIC
        LOCFRAME DOVERLAY, 0, STATIC
        ARGFRAME ISTACK, 0, STACK
        ARGFRAME PSTACK, 0, STACK
        ARGFRAME XSTACK, 35, STACK
        ARGFRAME IOVERLAY, 0, STATIC
        ARGFRAME DOVERLAY, 0, STATIC
        FUNCALL MT_AfDataRequest, osal_build_uint16
        LOCFRAME ISTACK, 0, STACK
        LOCFRAME PSTACK, 0, STACK
        LOCFRAME XSTACK, 35, STACK
        LOCFRAME IOVERLAY, 0, STATIC
        LOCFRAME DOVERLAY, 0, STATIC
        ARGFRAME ISTACK, 0, STACK
        ARGFRAME PSTACK, 0, STACK
        ARGFRAME XSTACK, 35, STACK
        ARGFRAME IOVERLAY, 0, STATIC
        ARGFRAME DOVERLAY, 0, STATIC
        FUNCALL MT_AfDataRequest, afFindEndPointDesc
        LOCFRAME ISTACK, 0, STACK
        LOCFRAME PSTACK, 0, STACK
        LOCFRAME XSTACK, 35, STACK
        LOCFRAME IOVERLAY, 0, STATIC
        LOCFRAME DOVERLAY, 0, STATIC
        ARGFRAME ISTACK, 0, STACK
        ARGFRAME PSTACK, 0, STACK
        ARGFRAME XSTACK, 35, STACK
        ARGFRAME IOVERLAY, 0, STATIC
        ARGFRAME DOVERLAY, 0, STATIC
        FUNCALL MT_AfDataRequest, osal_build_uint16
        LOCFRAME ISTACK, 0, STACK
        LOCFRAME PSTACK, 0, STACK
        LOCFRAME XSTACK, 35, STACK
        LOCFRAME IOVERLAY, 0, STATIC
        LOCFRAME DOVERLAY, 0, STATIC
        ARGFRAME ISTACK, 0, STACK
        ARGFRAME PSTACK, 0, STACK
        ARGFRAME XSTACK, 35, STACK
        ARGFRAME IOVERLAY, 0, STATIC
        ARGFRAME DOVERLAY, 0, STATIC
        FUNCALL MT_AfDataRequest, osal_build_uint16
        LOCFRAME ISTACK, 0, STACK
        LOCFRAME PSTACK, 0, STACK
        LOCFRAME XSTACK, 35, STACK
        LOCFRAME IOVERLAY, 0, STATIC
        LOCFRAME DOVERLAY, 0, STATIC
        ARGFRAME ISTACK, 0, STACK
        ARGFRAME PSTACK, 0, STACK
        ARGFRAME XSTACK, 35, STACK
        ARGFRAME IOVERLAY, 0, STATIC
        ARGFRAME DOVERLAY, 0, STATIC
        FUNCALL MT_AfDataRequest, osal_mem_alloc
        LOCFRAME ISTACK, 0, STACK
        LOCFRAME PSTACK, 0, STACK
        LOCFRAME XSTACK, 35, STACK
        LOCFRAME IOVERLAY, 0, STATIC
        LOCFRAME DOVERLAY, 0, STATIC
        ARGFRAME ISTACK, 0, STACK
        ARGFRAME PSTACK, 0, STACK
        ARGFRAME XSTACK, 35, STACK
        ARGFRAME IOVERLAY, 0, STATIC
        ARGFRAME DOVERLAY, 0, STATIC
        FUNCALL MT_AfDataRequest, osal_memcpy
        LOCFRAME ISTACK, 0, STACK
        LOCFRAME PSTACK, 0, STACK
        LOCFRAME XSTACK, 38, STACK
        LOCFRAME IOVERLAY, 0, STATIC
        LOCFRAME DOVERLAY, 0, STATIC
        ARGFRAME ISTACK, 0, STACK
        ARGFRAME PSTACK, 0, STACK
        ARGFRAME XSTACK, 38, STACK
        ARGFRAME IOVERLAY, 0, STATIC
        ARGFRAME DOVERLAY, 0, STATIC
        FUNCALL MT_AfDataRequest, osal_start_timerEx
        LOCFRAME ISTACK, 0, STACK
        LOCFRAME PSTACK, 0, STACK
        LOCFRAME XSTACK, 39, STACK
        LOCFRAME IOVERLAY, 0, STATIC
        LOCFRAME DOVERLAY, 0, STATIC
        ARGFRAME ISTACK, 0, STACK
        ARGFRAME PSTACK, 0, STACK
        ARGFRAME XSTACK, 39, STACK
        ARGFRAME IOVERLAY, 0, STATIC
        ARGFRAME DOVERLAY, 0, STATIC
        FUNCALL MT_AfDataRequest, osal_set_event
        LOCFRAME ISTACK, 0, STACK
        LOCFRAME PSTACK, 0, STACK
        LOCFRAME XSTACK, 35, STACK
        LOCFRAME IOVERLAY, 0, STATIC
        LOCFRAME DOVERLAY, 0, STATIC
        ARGFRAME ISTACK, 0, STACK
        ARGFRAME PSTACK, 0, STACK
        ARGFRAME XSTACK, 35, STACK
        ARGFRAME IOVERLAY, 0, STATIC
        ARGFRAME DOVERLAY, 0, STATIC
        FUNCALL MT_AfDataRequest, AF_DataRequest
        LOCFRAME ISTACK, 0, STACK
        LOCFRAME PSTACK, 0, STACK
        LOCFRAME XSTACK, 44, STACK
        LOCFRAME IOVERLAY, 0, STATIC
        LOCFRAME DOVERLAY, 0, STATIC
        ARGFRAME ISTACK, 0, STACK
        ARGFRAME PSTACK, 0, STACK
        ARGFRAME XSTACK, 44, STACK
        ARGFRAME IOVERLAY, 0, STATIC
        ARGFRAME DOVERLAY, 0, STATIC
        FUNCALL MT_AfDataRequest, MT_BuildAndSendZToolResponse
        LOCFRAME ISTACK, 0, STACK
        LOCFRAME PSTACK, 0, STACK
        LOCFRAME XSTACK, 35, STACK
        LOCFRAME IOVERLAY, 0, STATIC
        LOCFRAME DOVERLAY, 0, STATIC
        ARGFRAME ISTACK, 0, STACK
        ARGFRAME PSTACK, 0, STACK
        ARGFRAME XSTACK, 35, STACK
        ARGFRAME IOVERLAY, 0, STATIC
        ARGFRAME DOVERLAY, 0, STATIC
        REQUIRE ?V0
        REQUIRE ?V1
        REQUIRE ?V2
        REQUIRE ?V3
        REQUIRE ?V4
        REQUIRE ?V5
        REQUIRE ?V6
        REQUIRE ?V7
        REQUIRE ?V8
        REQUIRE ?V9
        REQUIRE ?V10
        REQUIRE ?V11
        REQUIRE ?V12
        MOV     A,#-0x15
        LCALL   ?BANKED_ENTER_XDATA
          CFI DPH0 load(1, XDATA, add(CFA_XSP16, literal(-1)))
          CFI DPL0 load(1, XDATA, add(CFA_XSP16, literal(-2)))
          CFI ?BRET_EXT load(1, XDATA, add(CFA_XSP16, literal(-3)))
          CFI ?RET_HIGH load(1, XDATA, add(CFA_XSP16, literal(-4)))
          CFI ?RET_LOW load(1, XDATA, add(CFA_XSP16, literal(-5)))
          CFI R7 load(1, XDATA, add(CFA_XSP16, literal(-6)))
          CFI V12 load(1, XDATA, add(CFA_XSP16, literal(-7)))
          CFI V11 load(1, XDATA, add(CFA_XSP16, literal(-8)))
          CFI V10 load(1, XDATA, add(CFA_XSP16, literal(-9)))
          CFI V9 load(1, XDATA, add(CFA_XSP16, literal(-10)))
          CFI V8 load(1, XDATA, add(CFA_XSP16, literal(-11)))
          CFI V7 load(1, XDATA, add(CFA_XSP16, literal(-12)))
          CFI V6 load(1, XDATA, add(CFA_XSP16, literal(-13)))
          CFI V5 load(1, XDATA, add(CFA_XSP16, literal(-14)))
          CFI V4 load(1, XDATA, add(CFA_XSP16, literal(-15)))
          CFI V3 load(1, XDATA, add(CFA_XSP16, literal(-16)))
          CFI V2 load(1, XDATA, add(CFA_XSP16, literal(-17)))
          CFI V1 load(1, XDATA, add(CFA_XSP16, literal(-18)))
          CFI V0 load(1, XDATA, add(CFA_XSP16, literal(-19)))
          CFI VB load(1, XDATA, add(CFA_XSP16, literal(-20)))
          CFI R6 load(1, XDATA, add(CFA_XSP16, literal(-21)))
          CFI CFA_SP SP+0
          CFI CFA_XSP16 add(XSP16, 21)
        ; Saved register size: 21
        ; Auto size: 14
        MOV     A,#-0xe
        LCALL   ?ALLOC_XSTACK8
          CFI CFA_XSP16 add(XSP16, 35)
        MOV     A,R2
        MOV     R6,A
        MOV     A,R3
        MOV     R7,A
//  340   #define MT_AF_REQ_MSG_LEN  10
//  341   #define MT_AF_REQ_MSG_EXT  10
//  342 
//  343   endPointDesc_t *epDesc;
//  344   afAddrType_t dstAddr;
//  345   cId_t cId;
//  346   uint8 transId, txOpts, radius;
//  347   uint8 cmd0, cmd1;
//  348   uint8 retValue = ZFailure;
        MOV     DPL,?XSP + 0
        MOV     DPH,?XSP + 1
        MOV     A,#0x1
        LCALL   ?Subroutine34 & 0xFFFF
//  349   uint16 dataLen, tempLen;
//  350 
//  351   /* Parse header */
//  352   cmd0 = pBuf[MT_RPC_POS_CMD0];
??CrossCallReturnLabel_78:
        MOVX    A,@DPTR
        MOV     ?V12,A
//  353   cmd1 = pBuf[MT_RPC_POS_CMD1];
        MOV     DPL,R6
        MOV     DPH,R7
        INC     DPTR
        INC     DPTR
        MOVX    A,@DPTR
        MOV     ?V9,A
//  354   pBuf += MT_RPC_FRAME_HDR_SZ;
        MOV     A,R6
        ADD     A,#0x3
        MOV     R6,A
        JNC     ??MT_AfDataRequest_0
        INC     R7
//  355 
//  356   if (cmd1 == MT_AF_DATA_REQUEST_EXT)
??MT_AfDataRequest_0:
        MOV     A,#0x2
        XRL     A,?V9
        JNZ     ??MT_AfDataRequest_1
//  357   {
//  358     dstAddr.addrMode = (afAddrMode_t)*pBuf++;
        MOV     DPL,R6
        MOV     DPH,R7
        MOVX    A,@DPTR
        MOV     R0,A
        MOV     A,#0xa
        LCALL   ?XSTACK_DISP0_8
        MOV     A,R0
        LCALL   ?Subroutine34 & 0xFFFF
??CrossCallReturnLabel_81:
        MOV     R6,DPL
        MOV     R7,DPH
//  359 
//  360     if (dstAddr.addrMode == afAddr64Bit)
        MOV     A,#0x3
        XRL     A,R0
        JNZ     ??MT_AfDataRequest_2
//  361     {
//  362       (void)osal_memcpy(dstAddr.addr.extAddr, pBuf, Z_EXTADDR_LEN);
        ; Setup parameters for call to function osal_memcpy
        MOV     ?V0,R6
        MOV     ?V1,R7
        MOV     ?V2,#0x0
        MOV     R0,#?V0
        LCALL   ?PUSH_XSTACK_I_THREE
          CFI CFA_XSP16 add(XSP16, 38)
        MOV     R4,#0x8
        MOV     R5,#0x0
        MOV     A,#0x5
        LCALL   ?XSTACK_DISP101_8
        LCALL   `??osal_memcpy::?relay`; Banked call to: osal_memcpy
        MOV     A,#0x3
        LCALL   ?DEALLOC_XSTACK8
          CFI CFA_XSP16 add(XSP16, 35)
        SJMP    ??MT_AfDataRequest_3
//  363     }
//  364     else
//  365     {
//  366       dstAddr.addr.shortAddr = osal_build_uint16( pBuf );
??MT_AfDataRequest_2:
        ; Setup parameters for call to function osal_build_uint16
        MOV     A,R6
        MOV     R2,A
        MOV     A,R7
        MOV     R3,A
        LCALL   `??osal_build_uint16::?relay`; Banked call to: osal_build_uint16
        MOV     A,#0x2
        LCALL   ?XSTACK_DISP0_8
        MOV     A,R2
        MOVX    @DPTR,A
        INC     DPTR
        MOV     A,R3
        MOVX    @DPTR,A
//  367     }
//  368     pBuf += Z_EXTADDR_LEN;
//  369 
//  370     dstAddr.endPoint = *pBuf++;
??MT_AfDataRequest_3:
        MOV     DPL,R6
        MOV     DPH,R7
        INC     DPTR
        INC     DPTR
        INC     DPTR
        INC     DPTR
        INC     DPTR
        INC     DPTR
        INC     DPTR
        INC     DPTR
        MOVX    A,@DPTR
        PUSH    A
          CFI CFA_SP SP+-1
        MOV     A,#0xb
        LCALL   ?XSTACK_DISP0_8
        POP     A
          CFI CFA_SP SP+0
        MOVX    @DPTR,A
        MOV     A,R6
        ADD     A,#0x9
        MOV     R6,A
        JNC     ??MT_AfDataRequest_4
        INC     R7
//  371     dstAddr.panId = osal_build_uint16( pBuf );
??MT_AfDataRequest_4:
        ; Setup parameters for call to function osal_build_uint16
        MOV     R2,A
        MOV     A,R7
        MOV     R3,A
        LCALL   `??osal_build_uint16::?relay`; Banked call to: osal_build_uint16
        MOV     A,#0xc
        LCALL   ?XSTACK_DISP0_8
        LCALL   ?Subroutine28 & 0xFFFF
//  372     pBuf += 2;
//  373   }
??CrossCallReturnLabel_42:
        JNC     ??MT_AfDataRequest_5
        INC     R7
        SJMP    ??MT_AfDataRequest_5
//  374   else
//  375   {
//  376     /* Destination address */
//  377     dstAddr.addrMode = afAddr16Bit;
??MT_AfDataRequest_1:
        MOV     A,#0xa
        LCALL   ?XSTACK_DISP0_8
        MOV     A,#0x2
        MOVX    @DPTR,A
//  378     dstAddr.addr.shortAddr = osal_build_uint16( pBuf );
        ; Setup parameters for call to function osal_build_uint16
        INC     R2
        INC     R2
        INC     R2
        MOV     A,R7
        MOV     R3,A
        LCALL   `??osal_build_uint16::?relay`; Banked call to: osal_build_uint16
        MOV     A,#0x2
        LCALL   ?XSTACK_DISP0_8
        LCALL   ?Subroutine22 & 0xFFFF
//  379     pBuf += 2;
//  380 
//  381     /* Destination endpoint */
//  382     dstAddr.endPoint = *pBuf++;
??CrossCallReturnLabel_75:
        PUSH    A
          CFI CFA_SP SP+-1
        MOV     A,#0xb
        LCALL   ?XSTACK_DISP0_8
        POP     A
          CFI CFA_SP SP+0
        MOVX    @DPTR,A
        MOV     A,R6
        ADD     A,#0x3
        MOV     R6,A
        JNC     ??MT_AfDataRequest_6
        INC     R7
//  383     dstAddr.panId = 0;
??MT_AfDataRequest_6:
        MOV     A,#0xc
        LCALL   ?XSTACK_DISP0_8
        CLR     A
        MOVX    @DPTR,A
        INC     DPTR
        MOVX    @DPTR,A
//  384   }
//  385 
//  386   /* Source endpoint */
//  387   epDesc = afFindEndPointDesc(*pBuf++);
??MT_AfDataRequest_5:
        ; Setup parameters for call to function afFindEndPointDesc
        MOV     DPL,R6
        MOV     DPH,R7
        MOVX    A,@DPTR
        MOV     R1,A
        LCALL   `??afFindEndPointDesc::?relay`; Banked call to: afFindEndPointDesc
        MOV     ?V10,R2
        MOV     ?V11,R3
        MOV     DPL,R6
        MOV     DPH,R7
        INC     DPTR
        MOV     R6,DPL
        MOV     R7,DPH
//  388 
//  389   /* ClusterId */
//  390   cId = osal_build_uint16( pBuf );
        ; Setup parameters for call to function osal_build_uint16
        MOV     A,R6
        MOV     R2,A
        MOV     A,R7
        MOV     R3,A
        LCALL   `??osal_build_uint16::?relay`; Banked call to: osal_build_uint16
        MOV     ?V2,R2
        MOV     ?V3,R3
//  391   pBuf +=2;
//  392 
//  393   /* TransId */
//  394   transId = *pBuf++;
        MOV     DPL,R6
        MOV     DPH,R7
        INC     DPTR
        INC     DPTR
        MOVX    A,@DPTR
        PUSH    A
          CFI CFA_SP SP+-1
        MOV     A,#0x1
        LCALL   ?XSTACK_DISP0_8
        POP     A
          CFI CFA_SP SP+0
        MOVX    @DPTR,A
//  395 
//  396   /* TxOption */
//  397   txOpts = *pBuf++;
        MOV     DPL,R6
        MOV     DPH,R7
        LCALL   ?Subroutine12 & 0xFFFF
//  398 
//  399   /* Radius */
//  400   radius = *pBuf++;
??CrossCallReturnLabel_16:
        MOVX    A,@DPTR
        MOV     ?V7,A
        MOV     A,R6
        ADD     A,#0x5
        MOV     R6,A
        JNC     ??MT_AfDataRequest_7
        INC     R7
//  401 
//  402   /* Length */
//  403   if (cmd1 == MT_AF_DATA_REQUEST_EXT)
??MT_AfDataRequest_7:
        MOV     A,#0x2
        XRL     A,?V9
        JNZ     ??MT_AfDataRequest_8
//  404   {
//  405     dataLen = osal_build_uint16( pBuf );
        ; Setup parameters for call to function osal_build_uint16
        MOV     A,R6
        MOV     R2,A
        MOV     A,R7
        MOV     R3,A
        LCALL   `??osal_build_uint16::?relay`; Banked call to: osal_build_uint16
        MOV     ?V0,R2
        MOV     ?V1,R3
//  406     tempLen = dataLen + MT_AF_REQ_MSG_LEN + MT_AF_REQ_MSG_EXT;
        MOV     A,R2
        ADD     A,#0x14
        MOV     R0,A
        CLR     A
        ADDC    A,?V1
        MOV     R1,A
//  407     pBuf += 2;
        MOV     A,R6
        ADD     A,#0x2
        MOV     R6,A
        JNC     ??MT_AfDataRequest_9
        INC     R7
        SJMP    ??MT_AfDataRequest_9
//  408   }
//  409   else
//  410   {
//  411     dataLen = *pBuf++;
??MT_AfDataRequest_8:
        MOV     DPL,R6
        MOV     DPH,R7
        MOVX    A,@DPTR
        MOV     ?V0,A
        MOV     ?V1,#0x0
        INC     DPTR
        INC     R6
        MOV     R7,DPH
//  412     tempLen = dataLen + MT_AF_REQ_MSG_LEN;
        ADD     A,#0xa
        MOV     R0,A
        CLR     A
        ADDC    A,#0x0
        MOV     R1,A
//  413   }
//  414 
//  415   if ( epDesc == NULL )
??MT_AfDataRequest_9:
        MOV     A,?V10
        ORL     A,?V11
        JZ      ??MT_AfDataRequest_10
//  416   {
//  417     retValue = afStatus_INVALID_PARAMETER;
//  418   }
//  419   else if (tempLen > (uint16)MT_RPC_DATA_MAX)
        CLR     C
        MOV     A,R0
        SUBB    A,#-0x5
        MOV     A,R1
        SUBB    A,#0x0
        JNC     $+5
        LJMP    ??MT_AfDataRequest_11 & 0xFFFF
//  420   {
//  421     if (pMtAfDataReq != NULL)
        LCALL   ?Subroutine2 & 0xFFFF
??CrossCallReturnLabel_85:
        JZ      ??MT_AfDataRequest_12
//  422     {
//  423       retValue = afStatus_INVALID_PARAMETER;
??MT_AfDataRequest_10:
        MOV     DPL,?XSP + 0
        MOV     DPH,?XSP + 1
        MOV     A,#0x2
        LJMP    ??MT_AfDataRequest_13 & 0xFFFF
//  424     }
//  425     else if ((pMtAfDataReq = osal_mem_alloc(sizeof(mtAfDataReq_t) + dataLen)) == NULL)
??MT_AfDataRequest_12:
        ; Setup parameters for call to function osal_mem_alloc
        MOV     A,?V0
        ADD     A,#0x18
        MOV     R2,A
        CLR     A
        ADDC    A,?V1
        MOV     R3,A
        LCALL   `??osal_mem_alloc::?relay`; Banked call to: osal_mem_alloc
        MOV     DPTR,#pMtAfDataReq
        MOV     A,R2
        MOVX    @DPTR,A
        INC     DPTR
        MOV     A,R3
        MOVX    @DPTR,A
        LCALL   ?Subroutine2 & 0xFFFF
??CrossCallReturnLabel_86:
        MOV     DPL,?XSP + 0
        MOV     DPH,?XSP + 1
        JNZ     ??MT_AfDataRequest_14
//  426     {
//  427       retValue = afStatus_MEM_FAIL;
        MOV     A,#0x10
        LJMP    ??MT_AfDataRequest_13 & 0xFFFF
//  428     }
//  429     else
//  430     {
//  431       retValue = afStatus_SUCCESS;
??MT_AfDataRequest_14:
        CLR     A
        MOVX    @DPTR,A
//  432 
//  433       pMtAfDataReq->data = (uint8 *)(pMtAfDataReq+1);
        MOV     DPTR,#pMtAfDataReq
        MOVX    A,@DPTR
        ADD     A,#0x18
        MOV     R2,A
        INC     DPTR
        MOVX    A,@DPTR
        ADDC    A,#0x0
        MOV     R3,A
        MOV     DPTR,#pMtAfDataReq
        MOVX    A,@DPTR
        MOV     R0,A
        INC     DPTR
        MOVX    A,@DPTR
        MOV     DPH,A
        MOV     DPL,R0
        MOV     A,R2
        MOVX    @DPTR,A
        INC     DPTR
        MOV     A,R3
        MOVX    @DPTR,A
//  434       (void)osal_memcpy(&(pMtAfDataReq->dstAddr), &dstAddr, sizeof(afAddrType_t));
        ; Setup parameters for call to function osal_memcpy
        MOV     A,#0x2
        LCALL   ?XSTACK_DISP100_8
        MOV     ?V4,R0
        MOV     ?V5,R1
        MOV     ?V6,#0x0
        MOV     R0,#?V4
        LCALL   ?PUSH_XSTACK_I_THREE
          CFI CFA_XSP16 add(XSP16, 38)
        MOV     R4,#0xc
        MOV     R5,#0x0
        LCALL   ?Subroutine17 & 0xFFFF
??CrossCallReturnLabel_26:
        LCALL   `??osal_memcpy::?relay`; Banked call to: osal_memcpy
        MOV     A,#0x3
        LCALL   ?DEALLOC_XSTACK8
          CFI CFA_XSP16 add(XSP16, 35)
//  435       pMtAfDataReq->epDesc = epDesc;
        LCALL   ?Subroutine5 & 0xFFFF
??CrossCallReturnLabel_4:
        MOV     A,?V10
        MOVX    @DPTR,A
        INC     DPTR
        MOV     A,?V11
        MOVX    @DPTR,A
//  436       pMtAfDataReq->cId = cId;
        LCALL   ?Subroutine6 & 0xFFFF
??CrossCallReturnLabel_6:
        MOV     A,?V2
        MOVX    @DPTR,A
        INC     DPTR
        MOV     A,?V3
        MOVX    @DPTR,A
//  437       pMtAfDataReq->dataLen = dataLen;
        LCALL   ?Subroutine7 & 0xFFFF
??CrossCallReturnLabel_8:
        MOV     A,?V0
        MOVX    @DPTR,A
        INC     DPTR
        MOV     A,?V1
        MOVX    @DPTR,A
//  438       pMtAfDataReq->transId = transId;
        MOV     A,#0x1
        LCALL   ?XSTACK_DISP0_8
        MOVX    A,@DPTR
        PUSH    A
          CFI CFA_SP SP+-1
        LCALL   ?Subroutine30 & 0xFFFF
??CrossCallReturnLabel_46:
        ADD     A,#0x14
        MOV     DPL,A
        CLR     A
        ADDC    A,R0
        MOV     DPH,A
        POP     A
          CFI CFA_SP SP+0
        MOVX    @DPTR,A
//  439       pMtAfDataReq->txOpts = txOpts;
        LCALL   ?Subroutine8 & 0xFFFF
??CrossCallReturnLabel_10:
        MOV     A,?V8
        MOVX    @DPTR,A
//  440       pMtAfDataReq->radius = radius;
        MOV     DPTR,#pMtAfDataReq
        MOVX    A,@DPTR
        MOV     R0,A
        INC     DPTR
        LCALL   ?Subroutine14 & 0xFFFF
??CrossCallReturnLabel_20:
        MOV     A,?V7
        LCALL   ?Subroutine4 & 0xFFFF
//  441 
//  442       // Setup to time-out the huge outgoing item if host does not MT_AF_DATA_STORE it.
//  443       pMtAfDataReq->tick = MT_AF_EXEC_CNT;
??CrossCallReturnLabel_2:
        MOV     A,#0xf
        MOVX    @DPTR,A
//  444       if (ZSuccess != osal_start_timerEx(MT_TaskID, MT_AF_EXEC_EVT, MT_AF_EXEC_DLY))
        ; Setup parameters for call to function osal_start_timerEx
        MOV     DPTR,#__Constant_3e8
        LCALL   ?PUSH_XSTACK8_X_FOUR
          CFI CFA_XSP16 add(XSP16, 39)
        MOV     R2,#0x8
        MOV     R3,#0x0
        MOV     DPTR,#MT_TaskID
        MOVX    A,@DPTR
        MOV     R1,A
        LCALL   `??osal_start_timerEx::?relay`; Banked call to: osal_start_timerEx
        MOV     A,#0x4
        LCALL   ?DEALLOC_XSTACK8
          CFI CFA_XSP16 add(XSP16, 35)
        MOV     A,R1
        JZ      ??MT_AfDataRequest_15
//  445       {
//  446         (void)osal_set_event(MT_TaskID, MT_AF_EXEC_EVT);
        ; Setup parameters for call to function osal_set_event
        MOV     R2,#0x8
        MOV     R3,#0x0
        MOV     DPTR,#MT_TaskID
        MOVX    A,@DPTR
        MOV     R1,A
        LCALL   `??osal_set_event::?relay`; Banked call to: osal_set_event
        SJMP    ??MT_AfDataRequest_15
//  447       }
//  448     }
//  449   }
//  450 #if defined ( MT_GP_FUNC )
//  451   else if ( ( cmd1 == MT_AF_DATA_REQUEST_EXT )
//  452            && ( dstAddr.endPoint == ZGP_ENDPOINT_ID )
//  453            && ( dstAddr.panId == 0 )
//  454            && ( dstAddr.addrMode == afAddr64Bit ) )// loopback support
//  455   {
//  456     retValue = MT_GpGenerateResponse( dstAddr.addr.extAddr, dataLen, pBuf );
//  457   }
//  458 #endif
//  459   else
//  460   {
//  461     retValue = AF_DataRequest(&dstAddr, epDesc, cId, dataLen, pBuf, &transId, txOpts, radius);
??MT_AfDataRequest_11:
        ; Setup parameters for call to function AF_DataRequest
        MOV     A,?V7
        MOV     ?V4,A
        MOV     R0,#?V4
        LCALL   ?PUSH_XSTACK_I_ONE
          CFI CFA_XSP16 add(XSP16, 36)
        MOV     A,#0x2
        LCALL   ?XSTACK_DISP100_8
        MOV     ?V4,R0
        MOV     ?V5,R1
        MOV     R0,#?V4
        LCALL   ?PUSH_XSTACK_I_TWO
          CFI CFA_XSP16 add(XSP16, 38)
        MOV     ?V4,R6
        MOV     ?V5,R7
        MOV     R0,#?V4
        LCALL   ?PUSH_XSTACK_I_TWO
          CFI CFA_XSP16 add(XSP16, 40)
        MOV     R0,#?V0
        LCALL   ?PUSH_XSTACK_I_TWO
          CFI CFA_XSP16 add(XSP16, 42)
        MOV     R0,#?V2
        LCALL   ?PUSH_XSTACK_I_TWO
          CFI CFA_XSP16 add(XSP16, 44)
        MOV     R1,?V8
        MOV     R4,?V10
        MOV     R5,?V11
        MOV     A,#0xb
        LCALL   ?XSTACK_DISP101_8
        LCALL   `??AF_DataRequest::?relay`; Banked call to: AF_DataRequest
        MOV     A,#0x9
        LCALL   ?DEALLOC_XSTACK8
          CFI CFA_XSP16 add(XSP16, 35)
        MOV     A,R1
        MOV     DPL,?XSP + 0
        MOV     DPH,?XSP + 1
??MT_AfDataRequest_13:
        MOVX    @DPTR,A
//  462   }
//  463 
//  464   if (MT_RPC_CMD_SREQ == (cmd0 & MT_RPC_CMD_TYPE_MASK))
??MT_AfDataRequest_15:
        MOV     A,#-0x20
        ANL     A,?V12
        XRL     A,#0x20
        JNZ     ??MT_AfDataRequest_16
//  465   {
//  466     MT_BuildAndSendZToolResponse(((uint8)MT_RPC_CMD_SRSP|(uint8)MT_RPC_SYS_AF), cmd1, 1, &retValue);
        ; Setup parameters for call to function MT_BuildAndSendZToolResponse
        MOV     R4,?XSP + 0
        MOV     R5,?XSP + 1
        MOV     R3,#0x1
        MOV     R2,?V9
        MOV     R1,#0x64
        LCALL   `??MT_BuildAndSendZToolResponse::?relay`; Banked call to: MT_BuildAndSendZToolResponse
//  467   }
//  468 }
??MT_AfDataRequest_16:
        MOV     A,#0xe
        LCALL   ?DEALLOC_XSTACK8
          CFI CFA_XSP16 add(XSP16, 21)
        MOV     R7,#0xd
        LJMP    ?BANKED_LEAVE_XDATA
          CFI EndBlock cfiBlock10

        RSEG BANKED_CODE:CODE:NOROOT(0)
?Subroutine22:
          CFI Block cfiCond11 Using cfiCommon0
          CFI Function MT_AfDataRequest
          CFI Conditional ??CrossCallReturnLabel_75
          CFI R6 load(1, XDATA, add(CFA_XSP16, literal(-21)))
          CFI VB load(1, XDATA, add(CFA_XSP16, literal(-20)))
          CFI V0 load(1, XDATA, add(CFA_XSP16, literal(-19)))
          CFI V1 load(1, XDATA, add(CFA_XSP16, literal(-18)))
          CFI V2 load(1, XDATA, add(CFA_XSP16, literal(-17)))
          CFI V3 load(1, XDATA, add(CFA_XSP16, literal(-16)))
          CFI V4 load(1, XDATA, add(CFA_XSP16, literal(-15)))
          CFI V5 load(1, XDATA, add(CFA_XSP16, literal(-14)))
          CFI V6 load(1, XDATA, add(CFA_XSP16, literal(-13)))
          CFI V7 load(1, XDATA, add(CFA_XSP16, literal(-12)))
          CFI V8 load(1, XDATA, add(CFA_XSP16, literal(-11)))
          CFI V9 load(1, XDATA, add(CFA_XSP16, literal(-10)))
          CFI V10 load(1, XDATA, add(CFA_XSP16, literal(-9)))
          CFI V11 load(1, XDATA, add(CFA_XSP16, literal(-8)))
          CFI V12 load(1, XDATA, add(CFA_XSP16, literal(-7)))
          CFI R7 load(1, XDATA, add(CFA_XSP16, literal(-6)))
          CFI ?RET_LOW load(1, XDATA, add(CFA_XSP16, literal(-5)))
          CFI ?RET_HIGH load(1, XDATA, add(CFA_XSP16, literal(-4)))
          CFI ?BRET_EXT load(1, XDATA, add(CFA_XSP16, literal(-3)))
          CFI DPL0 load(1, XDATA, add(CFA_XSP16, literal(-2)))
          CFI DPH0 load(1, XDATA, add(CFA_XSP16, literal(-1)))
          CFI CFA_SP SP+-2
          CFI CFA_XSP16 add(XSP16, 35)
          CFI Block cfiCond12 Using cfiCommon0
          CFI (cfiCond12) Function MT_AfDataRequestSrcRtg
          CFI (cfiCond12) Conditional ??CrossCallReturnLabel_76
          CFI (cfiCond12) R6 load(1, XDATA, add(CFA_XSP16, literal(-20)))
          CFI (cfiCond12) VB load(1, XDATA, add(CFA_XSP16, literal(-19)))
          CFI (cfiCond12) V0 load(1, XDATA, add(CFA_XSP16, literal(-18)))
          CFI (cfiCond12) V1 load(1, XDATA, add(CFA_XSP16, literal(-17)))
          CFI (cfiCond12) V2 load(1, XDATA, add(CFA_XSP16, literal(-16)))
          CFI (cfiCond12) V3 load(1, XDATA, add(CFA_XSP16, literal(-15)))
          CFI (cfiCond12) V4 load(1, XDATA, add(CFA_XSP16, literal(-14)))
          CFI (cfiCond12) V5 load(1, XDATA, add(CFA_XSP16, literal(-13)))
          CFI (cfiCond12) V6 load(1, XDATA, add(CFA_XSP16, literal(-12)))
          CFI (cfiCond12) V7 load(1, XDATA, add(CFA_XSP16, literal(-11)))
          CFI (cfiCond12) V8 load(1, XDATA, add(CFA_XSP16, literal(-10)))
          CFI (cfiCond12) V9 load(1, XDATA, add(CFA_XSP16, literal(-9)))
          CFI (cfiCond12) V10 load(1, XDATA, add(CFA_XSP16, literal(-8)))
          CFI (cfiCond12) V11 load(1, XDATA, add(CFA_XSP16, literal(-7)))
          CFI (cfiCond12) R7 load(1, XDATA, add(CFA_XSP16, literal(-6)))
          CFI (cfiCond12) ?RET_LOW load(1, XDATA, add(CFA_XSP16, literal(-5)))
          CFI (cfiCond12) ?RET_HIGH load(1, XDATA, add(CFA_XSP16, literal(-4)))
          CFI (cfiCond12) ?BRET_EXT load(1, XDATA, add(CFA_XSP16, literal(-3)))
          CFI (cfiCond12) DPL0 load(1, XDATA, add(CFA_XSP16, literal(-2)))
          CFI (cfiCond12) DPH0 load(1, XDATA, add(CFA_XSP16, literal(-1)))
          CFI (cfiCond12) CFA_SP SP+-2
          CFI (cfiCond12) CFA_XSP16 add(XSP16, 34)
          CFI Block cfiPicker13 Using cfiCommon1
          CFI (cfiPicker13) NoFunction
          CFI (cfiPicker13) Picker
        MOV     A,R2
        MOVX    @DPTR,A
        INC     DPTR
        MOV     A,R3
          CFI EndBlock cfiCond11
          CFI EndBlock cfiCond12
          CFI EndBlock cfiPicker13
        REQUIRE ??Subroutine42_0
        ; // Fall through to label ??Subroutine42_0

        RSEG BANKED_CODE:CODE:NOROOT(0)
??Subroutine42_0:
          CFI Block cfiCond14 Using cfiCommon0
          CFI Function MT_AfDataRequestSrcRtg
          CFI Conditional ??CrossCallReturnLabel_77
          CFI R6 load(1, XDATA, add(CFA_XSP16, literal(-20)))
          CFI VB load(1, XDATA, add(CFA_XSP16, literal(-19)))
          CFI V0 load(1, XDATA, add(CFA_XSP16, literal(-18)))
          CFI V1 load(1, XDATA, add(CFA_XSP16, literal(-17)))
          CFI V2 load(1, XDATA, add(CFA_XSP16, literal(-16)))
          CFI V3 load(1, XDATA, add(CFA_XSP16, literal(-15)))
          CFI V4 load(1, XDATA, add(CFA_XSP16, literal(-14)))
          CFI V5 load(1, XDATA, add(CFA_XSP16, literal(-13)))
          CFI V6 load(1, XDATA, add(CFA_XSP16, literal(-12)))
          CFI V7 load(1, XDATA, add(CFA_XSP16, literal(-11)))
          CFI V8 load(1, XDATA, add(CFA_XSP16, literal(-10)))
          CFI V9 load(1, XDATA, add(CFA_XSP16, literal(-9)))
          CFI V10 load(1, XDATA, add(CFA_XSP16, literal(-8)))
          CFI V11 load(1, XDATA, add(CFA_XSP16, literal(-7)))
          CFI R7 load(1, XDATA, add(CFA_XSP16, literal(-6)))
          CFI ?RET_LOW load(1, XDATA, add(CFA_XSP16, literal(-5)))
          CFI ?RET_HIGH load(1, XDATA, add(CFA_XSP16, literal(-4)))
          CFI ?BRET_EXT load(1, XDATA, add(CFA_XSP16, literal(-3)))
          CFI DPL0 load(1, XDATA, add(CFA_XSP16, literal(-2)))
          CFI DPH0 load(1, XDATA, add(CFA_XSP16, literal(-1)))
          CFI CFA_SP SP+-2
          CFI CFA_XSP16 add(XSP16, 34)
          CFI Block cfiCond15 Using cfiCommon0
          CFI (cfiCond15) Function MT_AfDataRequest
          CFI (cfiCond15) Conditional ??CrossCallReturnLabel_75
          CFI (cfiCond15) R6 load(1, XDATA, add(CFA_XSP16, literal(-21)))
          CFI (cfiCond15) VB load(1, XDATA, add(CFA_XSP16, literal(-20)))
          CFI (cfiCond15) V0 load(1, XDATA, add(CFA_XSP16, literal(-19)))
          CFI (cfiCond15) V1 load(1, XDATA, add(CFA_XSP16, literal(-18)))
          CFI (cfiCond15) V2 load(1, XDATA, add(CFA_XSP16, literal(-17)))
          CFI (cfiCond15) V3 load(1, XDATA, add(CFA_XSP16, literal(-16)))
          CFI (cfiCond15) V4 load(1, XDATA, add(CFA_XSP16, literal(-15)))
          CFI (cfiCond15) V5 load(1, XDATA, add(CFA_XSP16, literal(-14)))
          CFI (cfiCond15) V6 load(1, XDATA, add(CFA_XSP16, literal(-13)))
          CFI (cfiCond15) V7 load(1, XDATA, add(CFA_XSP16, literal(-12)))
          CFI (cfiCond15) V8 load(1, XDATA, add(CFA_XSP16, literal(-11)))
          CFI (cfiCond15) V9 load(1, XDATA, add(CFA_XSP16, literal(-10)))
          CFI (cfiCond15) V10 load(1, XDATA, add(CFA_XSP16, literal(-9)))
          CFI (cfiCond15) V11 load(1, XDATA, add(CFA_XSP16, literal(-8)))
          CFI (cfiCond15) V12 load(1, XDATA, add(CFA_XSP16, literal(-7)))
          CFI (cfiCond15) R7 load(1, XDATA, add(CFA_XSP16, literal(-6)))
          CFI (cfiCond15) ?RET_LOW load(1, XDATA, add(CFA_XSP16, literal(-5)))
          CFI (cfiCond15) ?RET_HIGH load(1, XDATA, add(CFA_XSP16, literal(-4)))
          CFI (cfiCond15) ?BRET_EXT load(1, XDATA, add(CFA_XSP16, literal(-3)))
          CFI (cfiCond15) DPL0 load(1, XDATA, add(CFA_XSP16, literal(-2)))
          CFI (cfiCond15) DPH0 load(1, XDATA, add(CFA_XSP16, literal(-1)))
          CFI (cfiCond15) CFA_SP SP+-2
          CFI (cfiCond15) CFA_XSP16 add(XSP16, 35)
          CFI Block cfiCond16 Using cfiCommon0
          CFI (cfiCond16) Function MT_AfDataRequestSrcRtg
          CFI (cfiCond16) Conditional ??CrossCallReturnLabel_76
          CFI (cfiCond16) R6 load(1, XDATA, add(CFA_XSP16, literal(-20)))
          CFI (cfiCond16) VB load(1, XDATA, add(CFA_XSP16, literal(-19)))
          CFI (cfiCond16) V0 load(1, XDATA, add(CFA_XSP16, literal(-18)))
          CFI (cfiCond16) V1 load(1, XDATA, add(CFA_XSP16, literal(-17)))
          CFI (cfiCond16) V2 load(1, XDATA, add(CFA_XSP16, literal(-16)))
          CFI (cfiCond16) V3 load(1, XDATA, add(CFA_XSP16, literal(-15)))
          CFI (cfiCond16) V4 load(1, XDATA, add(CFA_XSP16, literal(-14)))
          CFI (cfiCond16) V5 load(1, XDATA, add(CFA_XSP16, literal(-13)))
          CFI (cfiCond16) V6 load(1, XDATA, add(CFA_XSP16, literal(-12)))
          CFI (cfiCond16) V7 load(1, XDATA, add(CFA_XSP16, literal(-11)))
          CFI (cfiCond16) V8 load(1, XDATA, add(CFA_XSP16, literal(-10)))
          CFI (cfiCond16) V9 load(1, XDATA, add(CFA_XSP16, literal(-9)))
          CFI (cfiCond16) V10 load(1, XDATA, add(CFA_XSP16, literal(-8)))
          CFI (cfiCond16) V11 load(1, XDATA, add(CFA_XSP16, literal(-7)))
          CFI (cfiCond16) R7 load(1, XDATA, add(CFA_XSP16, literal(-6)))
          CFI (cfiCond16) ?RET_LOW load(1, XDATA, add(CFA_XSP16, literal(-5)))
          CFI (cfiCond16) ?RET_HIGH load(1, XDATA, add(CFA_XSP16, literal(-4)))
          CFI (cfiCond16) ?BRET_EXT load(1, XDATA, add(CFA_XSP16, literal(-3)))
          CFI (cfiCond16) DPL0 load(1, XDATA, add(CFA_XSP16, literal(-2)))
          CFI (cfiCond16) DPH0 load(1, XDATA, add(CFA_XSP16, literal(-1)))
          CFI (cfiCond16) CFA_SP SP+-2
          CFI (cfiCond16) CFA_XSP16 add(XSP16, 34)
          CFI Block cfiPicker17 Using cfiCommon1
          CFI (cfiPicker17) NoFunction
          CFI (cfiPicker17) Picker
        LCALL   ?Subroutine34 & 0xFFFF
??CrossCallReturnLabel_79:
        INC     DPTR
        MOVX    A,@DPTR
        RET
          CFI EndBlock cfiCond14
          CFI EndBlock cfiCond15
          CFI EndBlock cfiCond16
          CFI EndBlock cfiPicker17

        RSEG BANKED_CODE:CODE:NOROOT(0)
?Subroutine34:
          CFI Block cfiCond18 Using cfiCommon0
          CFI Function MT_AfDataRequest
          CFI Conditional ??CrossCallReturnLabel_78
          CFI R6 load(1, XDATA, add(CFA_XSP16, literal(-21)))
          CFI VB load(1, XDATA, add(CFA_XSP16, literal(-20)))
          CFI V0 load(1, XDATA, add(CFA_XSP16, literal(-19)))
          CFI V1 load(1, XDATA, add(CFA_XSP16, literal(-18)))
          CFI V2 load(1, XDATA, add(CFA_XSP16, literal(-17)))
          CFI V3 load(1, XDATA, add(CFA_XSP16, literal(-16)))
          CFI V4 load(1, XDATA, add(CFA_XSP16, literal(-15)))
          CFI V5 load(1, XDATA, add(CFA_XSP16, literal(-14)))
          CFI V6 load(1, XDATA, add(CFA_XSP16, literal(-13)))
          CFI V7 load(1, XDATA, add(CFA_XSP16, literal(-12)))
          CFI V8 load(1, XDATA, add(CFA_XSP16, literal(-11)))
          CFI V9 load(1, XDATA, add(CFA_XSP16, literal(-10)))
          CFI V10 load(1, XDATA, add(CFA_XSP16, literal(-9)))
          CFI V11 load(1, XDATA, add(CFA_XSP16, literal(-8)))
          CFI V12 load(1, XDATA, add(CFA_XSP16, literal(-7)))
          CFI R7 load(1, XDATA, add(CFA_XSP16, literal(-6)))
          CFI ?RET_LOW load(1, XDATA, add(CFA_XSP16, literal(-5)))
          CFI ?RET_HIGH load(1, XDATA, add(CFA_XSP16, literal(-4)))
          CFI ?BRET_EXT load(1, XDATA, add(CFA_XSP16, literal(-3)))
          CFI DPL0 load(1, XDATA, add(CFA_XSP16, literal(-2)))
          CFI DPH0 load(1, XDATA, add(CFA_XSP16, literal(-1)))
          CFI CFA_SP SP+-2
          CFI CFA_XSP16 add(XSP16, 35)
          CFI Block cfiCond19 Using cfiCommon0
          CFI (cfiCond19) Function MT_AfDataRequest
          CFI (cfiCond19) Conditional ??CrossCallReturnLabel_81
          CFI (cfiCond19) R6 load(1, XDATA, add(CFA_XSP16, literal(-21)))
          CFI (cfiCond19) VB load(1, XDATA, add(CFA_XSP16, literal(-20)))
          CFI (cfiCond19) V0 load(1, XDATA, add(CFA_XSP16, literal(-19)))
          CFI (cfiCond19) V1 load(1, XDATA, add(CFA_XSP16, literal(-18)))
          CFI (cfiCond19) V2 load(1, XDATA, add(CFA_XSP16, literal(-17)))
          CFI (cfiCond19) V3 load(1, XDATA, add(CFA_XSP16, literal(-16)))
          CFI (cfiCond19) V4 load(1, XDATA, add(CFA_XSP16, literal(-15)))
          CFI (cfiCond19) V5 load(1, XDATA, add(CFA_XSP16, literal(-14)))
          CFI (cfiCond19) V6 load(1, XDATA, add(CFA_XSP16, literal(-13)))
          CFI (cfiCond19) V7 load(1, XDATA, add(CFA_XSP16, literal(-12)))
          CFI (cfiCond19) V8 load(1, XDATA, add(CFA_XSP16, literal(-11)))
          CFI (cfiCond19) V9 load(1, XDATA, add(CFA_XSP16, literal(-10)))
          CFI (cfiCond19) V10 load(1, XDATA, add(CFA_XSP16, literal(-9)))
          CFI (cfiCond19) V11 load(1, XDATA, add(CFA_XSP16, literal(-8)))
          CFI (cfiCond19) V12 load(1, XDATA, add(CFA_XSP16, literal(-7)))
          CFI (cfiCond19) R7 load(1, XDATA, add(CFA_XSP16, literal(-6)))
          CFI (cfiCond19) ?RET_LOW load(1, XDATA, add(CFA_XSP16, literal(-5)))
          CFI (cfiCond19) ?RET_HIGH load(1, XDATA, add(CFA_XSP16, literal(-4)))
          CFI (cfiCond19) ?BRET_EXT load(1, XDATA, add(CFA_XSP16, literal(-3)))
          CFI (cfiCond19) DPL0 load(1, XDATA, add(CFA_XSP16, literal(-2)))
          CFI (cfiCond19) DPH0 load(1, XDATA, add(CFA_XSP16, literal(-1)))
          CFI (cfiCond19) CFA_SP SP+-2
          CFI (cfiCond19) CFA_XSP16 add(XSP16, 35)
          CFI Block cfiCond20 Using cfiCommon0
          CFI (cfiCond20) Function MT_AfDataRequest
          CFI (cfiCond20) Conditional ??CrossCallReturnLabel_79, ??CrossCallReturnLabel_75
          CFI (cfiCond20) R6 load(1, XDATA, add(CFA_XSP16, literal(-21)))
          CFI (cfiCond20) VB load(1, XDATA, add(CFA_XSP16, literal(-20)))
          CFI (cfiCond20) V0 load(1, XDATA, add(CFA_XSP16, literal(-19)))
          CFI (cfiCond20) V1 load(1, XDATA, add(CFA_XSP16, literal(-18)))
          CFI (cfiCond20) V2 load(1, XDATA, add(CFA_XSP16, literal(-17)))
          CFI (cfiCond20) V3 load(1, XDATA, add(CFA_XSP16, literal(-16)))
          CFI (cfiCond20) V4 load(1, XDATA, add(CFA_XSP16, literal(-15)))
          CFI (cfiCond20) V5 load(1, XDATA, add(CFA_XSP16, literal(-14)))
          CFI (cfiCond20) V6 load(1, XDATA, add(CFA_XSP16, literal(-13)))
          CFI (cfiCond20) V7 load(1, XDATA, add(CFA_XSP16, literal(-12)))
          CFI (cfiCond20) V8 load(1, XDATA, add(CFA_XSP16, literal(-11)))
          CFI (cfiCond20) V9 load(1, XDATA, add(CFA_XSP16, literal(-10)))
          CFI (cfiCond20) V10 load(1, XDATA, add(CFA_XSP16, literal(-9)))
          CFI (cfiCond20) V11 load(1, XDATA, add(CFA_XSP16, literal(-8)))
          CFI (cfiCond20) V12 load(1, XDATA, add(CFA_XSP16, literal(-7)))
          CFI (cfiCond20) R7 load(1, XDATA, add(CFA_XSP16, literal(-6)))
          CFI (cfiCond20) ?RET_LOW load(1, XDATA, add(CFA_XSP16, literal(-5)))
          CFI (cfiCond20) ?RET_HIGH load(1, XDATA, add(CFA_XSP16, literal(-4)))
          CFI (cfiCond20) ?BRET_EXT load(1, XDATA, add(CFA_XSP16, literal(-3)))
          CFI (cfiCond20) DPL0 load(1, XDATA, add(CFA_XSP16, literal(-2)))
          CFI (cfiCond20) DPH0 load(1, XDATA, add(CFA_XSP16, literal(-1)))
          CFI (cfiCond20) CFA_SP SP+-4
          CFI (cfiCond20) CFA_XSP16 add(XSP16, 35)
          CFI Block cfiCond21 Using cfiCommon0
          CFI (cfiCond21) Function MT_AfDataRequestSrcRtg
          CFI (cfiCond21) Conditional ??CrossCallReturnLabel_79, ??CrossCallReturnLabel_76
          CFI (cfiCond21) R6 load(1, XDATA, add(CFA_XSP16, literal(-20)))
          CFI (cfiCond21) VB load(1, XDATA, add(CFA_XSP16, literal(-19)))
          CFI (cfiCond21) V0 load(1, XDATA, add(CFA_XSP16, literal(-18)))
          CFI (cfiCond21) V1 load(1, XDATA, add(CFA_XSP16, literal(-17)))
          CFI (cfiCond21) V2 load(1, XDATA, add(CFA_XSP16, literal(-16)))
          CFI (cfiCond21) V3 load(1, XDATA, add(CFA_XSP16, literal(-15)))
          CFI (cfiCond21) V4 load(1, XDATA, add(CFA_XSP16, literal(-14)))
          CFI (cfiCond21) V5 load(1, XDATA, add(CFA_XSP16, literal(-13)))
          CFI (cfiCond21) V6 load(1, XDATA, add(CFA_XSP16, literal(-12)))
          CFI (cfiCond21) V7 load(1, XDATA, add(CFA_XSP16, literal(-11)))
          CFI (cfiCond21) V8 load(1, XDATA, add(CFA_XSP16, literal(-10)))
          CFI (cfiCond21) V9 load(1, XDATA, add(CFA_XSP16, literal(-9)))
          CFI (cfiCond21) V10 load(1, XDATA, add(CFA_XSP16, literal(-8)))
          CFI (cfiCond21) V11 load(1, XDATA, add(CFA_XSP16, literal(-7)))
          CFI (cfiCond21) R7 load(1, XDATA, add(CFA_XSP16, literal(-6)))
          CFI (cfiCond21) ?RET_LOW load(1, XDATA, add(CFA_XSP16, literal(-5)))
          CFI (cfiCond21) ?RET_HIGH load(1, XDATA, add(CFA_XSP16, literal(-4)))
          CFI (cfiCond21) ?BRET_EXT load(1, XDATA, add(CFA_XSP16, literal(-3)))
          CFI (cfiCond21) DPL0 load(1, XDATA, add(CFA_XSP16, literal(-2)))
          CFI (cfiCond21) DPH0 load(1, XDATA, add(CFA_XSP16, literal(-1)))
          CFI (cfiCond21) CFA_SP SP+-4
          CFI (cfiCond21) CFA_XSP16 add(XSP16, 34)
          CFI Block cfiCond22 Using cfiCommon0
          CFI (cfiCond22) Function MT_AfDataRequestSrcRtg
          CFI (cfiCond22) Conditional ??CrossCallReturnLabel_79, ??CrossCallReturnLabel_77
          CFI (cfiCond22) R6 load(1, XDATA, add(CFA_XSP16, literal(-20)))
          CFI (cfiCond22) VB load(1, XDATA, add(CFA_XSP16, literal(-19)))
          CFI (cfiCond22) V0 load(1, XDATA, add(CFA_XSP16, literal(-18)))
          CFI (cfiCond22) V1 load(1, XDATA, add(CFA_XSP16, literal(-17)))
          CFI (cfiCond22) V2 load(1, XDATA, add(CFA_XSP16, literal(-16)))
          CFI (cfiCond22) V3 load(1, XDATA, add(CFA_XSP16, literal(-15)))
          CFI (cfiCond22) V4 load(1, XDATA, add(CFA_XSP16, literal(-14)))
          CFI (cfiCond22) V5 load(1, XDATA, add(CFA_XSP16, literal(-13)))
          CFI (cfiCond22) V6 load(1, XDATA, add(CFA_XSP16, literal(-12)))
          CFI (cfiCond22) V7 load(1, XDATA, add(CFA_XSP16, literal(-11)))
          CFI (cfiCond22) V8 load(1, XDATA, add(CFA_XSP16, literal(-10)))
          CFI (cfiCond22) V9 load(1, XDATA, add(CFA_XSP16, literal(-9)))
          CFI (cfiCond22) V10 load(1, XDATA, add(CFA_XSP16, literal(-8)))
          CFI (cfiCond22) V11 load(1, XDATA, add(CFA_XSP16, literal(-7)))
          CFI (cfiCond22) R7 load(1, XDATA, add(CFA_XSP16, literal(-6)))
          CFI (cfiCond22) ?RET_LOW load(1, XDATA, add(CFA_XSP16, literal(-5)))
          CFI (cfiCond22) ?RET_HIGH load(1, XDATA, add(CFA_XSP16, literal(-4)))
          CFI (cfiCond22) ?BRET_EXT load(1, XDATA, add(CFA_XSP16, literal(-3)))
          CFI (cfiCond22) DPL0 load(1, XDATA, add(CFA_XSP16, literal(-2)))
          CFI (cfiCond22) DPH0 load(1, XDATA, add(CFA_XSP16, literal(-1)))
          CFI (cfiCond22) CFA_SP SP+-4
          CFI (cfiCond22) CFA_XSP16 add(XSP16, 34)
          CFI Block cfiCond23 Using cfiCommon0
          CFI (cfiCond23) Function MT_AfDataRequestSrcRtg
          CFI (cfiCond23) Conditional ??CrossCallReturnLabel_80, ??CrossCallReturnLabel_38
          CFI (cfiCond23) R6 load(1, XDATA, add(CFA_XSP16, literal(-20)))
          CFI (cfiCond23) VB load(1, XDATA, add(CFA_XSP16, literal(-19)))
          CFI (cfiCond23) V0 load(1, XDATA, add(CFA_XSP16, literal(-18)))
          CFI (cfiCond23) V1 load(1, XDATA, add(CFA_XSP16, literal(-17)))
          CFI (cfiCond23) V2 load(1, XDATA, add(CFA_XSP16, literal(-16)))
          CFI (cfiCond23) V3 load(1, XDATA, add(CFA_XSP16, literal(-15)))
          CFI (cfiCond23) V4 load(1, XDATA, add(CFA_XSP16, literal(-14)))
          CFI (cfiCond23) V5 load(1, XDATA, add(CFA_XSP16, literal(-13)))
          CFI (cfiCond23) V6 load(1, XDATA, add(CFA_XSP16, literal(-12)))
          CFI (cfiCond23) V7 load(1, XDATA, add(CFA_XSP16, literal(-11)))
          CFI (cfiCond23) V8 load(1, XDATA, add(CFA_XSP16, literal(-10)))
          CFI (cfiCond23) V9 load(1, XDATA, add(CFA_XSP16, literal(-9)))
          CFI (cfiCond23) V10 load(1, XDATA, add(CFA_XSP16, literal(-8)))
          CFI (cfiCond23) V11 load(1, XDATA, add(CFA_XSP16, literal(-7)))
          CFI (cfiCond23) R7 load(1, XDATA, add(CFA_XSP16, literal(-6)))
          CFI (cfiCond23) ?RET_LOW load(1, XDATA, add(CFA_XSP16, literal(-5)))
          CFI (cfiCond23) ?RET_HIGH load(1, XDATA, add(CFA_XSP16, literal(-4)))
          CFI (cfiCond23) ?BRET_EXT load(1, XDATA, add(CFA_XSP16, literal(-3)))
          CFI (cfiCond23) DPL0 load(1, XDATA, add(CFA_XSP16, literal(-2)))
          CFI (cfiCond23) DPH0 load(1, XDATA, add(CFA_XSP16, literal(-1)))
          CFI (cfiCond23) CFA_SP SP+-4
          CFI (cfiCond23) CFA_XSP16 add(XSP16, 34)
          CFI Block cfiCond24 Using cfiCommon0
          CFI (cfiCond24) Function MT_AfDataRequestSrcRtg
          CFI (cfiCond24) Conditional ??CrossCallReturnLabel_80, ??CrossCallReturnLabel_39
          CFI (cfiCond24) R6 load(1, XDATA, add(CFA_XSP16, literal(-20)))
          CFI (cfiCond24) VB load(1, XDATA, add(CFA_XSP16, literal(-19)))
          CFI (cfiCond24) V0 load(1, XDATA, add(CFA_XSP16, literal(-18)))
          CFI (cfiCond24) V1 load(1, XDATA, add(CFA_XSP16, literal(-17)))
          CFI (cfiCond24) V2 load(1, XDATA, add(CFA_XSP16, literal(-16)))
          CFI (cfiCond24) V3 load(1, XDATA, add(CFA_XSP16, literal(-15)))
          CFI (cfiCond24) V4 load(1, XDATA, add(CFA_XSP16, literal(-14)))
          CFI (cfiCond24) V5 load(1, XDATA, add(CFA_XSP16, literal(-13)))
          CFI (cfiCond24) V6 load(1, XDATA, add(CFA_XSP16, literal(-12)))
          CFI (cfiCond24) V7 load(1, XDATA, add(CFA_XSP16, literal(-11)))
          CFI (cfiCond24) V8 load(1, XDATA, add(CFA_XSP16, literal(-10)))
          CFI (cfiCond24) V9 load(1, XDATA, add(CFA_XSP16, literal(-9)))
          CFI (cfiCond24) V10 load(1, XDATA, add(CFA_XSP16, literal(-8)))
          CFI (cfiCond24) V11 load(1, XDATA, add(CFA_XSP16, literal(-7)))
          CFI (cfiCond24) R7 load(1, XDATA, add(CFA_XSP16, literal(-6)))
          CFI (cfiCond24) ?RET_LOW load(1, XDATA, add(CFA_XSP16, literal(-5)))
          CFI (cfiCond24) ?RET_HIGH load(1, XDATA, add(CFA_XSP16, literal(-4)))
          CFI (cfiCond24) ?BRET_EXT load(1, XDATA, add(CFA_XSP16, literal(-3)))
          CFI (cfiCond24) DPL0 load(1, XDATA, add(CFA_XSP16, literal(-2)))
          CFI (cfiCond24) DPH0 load(1, XDATA, add(CFA_XSP16, literal(-1)))
          CFI (cfiCond24) CFA_SP SP+-4
          CFI (cfiCond24) CFA_XSP16 add(XSP16, 34)
          CFI Block cfiPicker25 Using cfiCommon1
          CFI (cfiPicker25) NoFunction
          CFI (cfiPicker25) Picker
        MOVX    @DPTR,A
        MOV     DPL,R6
        MOV     DPH,R7
        INC     DPTR
        RET
          CFI EndBlock cfiCond18
          CFI EndBlock cfiCond19
          CFI EndBlock cfiCond20
          CFI EndBlock cfiCond21
          CFI EndBlock cfiCond22
          CFI EndBlock cfiCond23
          CFI EndBlock cfiCond24
          CFI EndBlock cfiPicker25

        RSEG BANKED_CODE:CODE:NOROOT(0)
?Subroutine4:
          CFI Block cfiCond26 Using cfiCommon0
          CFI Function MT_AfExec
          CFI Conditional ??CrossCallReturnLabel_3
          CFI R6 load(1, XDATA, add(CFA_XSP16, literal(-9)))
          CFI VB load(1, XDATA, add(CFA_XSP16, literal(-8)))
          CFI V0 load(1, XDATA, add(CFA_XSP16, literal(-7)))
          CFI R7 load(1, XDATA, add(CFA_XSP16, literal(-6)))
          CFI ?RET_LOW load(1, XDATA, add(CFA_XSP16, literal(-5)))
          CFI ?RET_HIGH load(1, XDATA, add(CFA_XSP16, literal(-4)))
          CFI ?BRET_EXT load(1, XDATA, add(CFA_XSP16, literal(-3)))
          CFI DPL0 load(1, XDATA, add(CFA_XSP16, literal(-2)))
          CFI DPH0 load(1, XDATA, add(CFA_XSP16, literal(-1)))
          CFI CFA_SP SP+-2
          CFI CFA_XSP16 add(XSP16, 9)
          CFI Block cfiCond27 Using cfiCommon0
          CFI (cfiCond27) Function MT_AfDataRequest
          CFI (cfiCond27) Conditional ??CrossCallReturnLabel_2
          CFI (cfiCond27) R6 load(1, XDATA, add(CFA_XSP16, literal(-21)))
          CFI (cfiCond27) VB load(1, XDATA, add(CFA_XSP16, literal(-20)))
          CFI (cfiCond27) V0 load(1, XDATA, add(CFA_XSP16, literal(-19)))
          CFI (cfiCond27) V1 load(1, XDATA, add(CFA_XSP16, literal(-18)))
          CFI (cfiCond27) V2 load(1, XDATA, add(CFA_XSP16, literal(-17)))
          CFI (cfiCond27) V3 load(1, XDATA, add(CFA_XSP16, literal(-16)))
          CFI (cfiCond27) V4 load(1, XDATA, add(CFA_XSP16, literal(-15)))
          CFI (cfiCond27) V5 load(1, XDATA, add(CFA_XSP16, literal(-14)))
          CFI (cfiCond27) V6 load(1, XDATA, add(CFA_XSP16, literal(-13)))
          CFI (cfiCond27) V7 load(1, XDATA, add(CFA_XSP16, literal(-12)))
          CFI (cfiCond27) V8 load(1, XDATA, add(CFA_XSP16, literal(-11)))
          CFI (cfiCond27) V9 load(1, XDATA, add(CFA_XSP16, literal(-10)))
          CFI (cfiCond27) V10 load(1, XDATA, add(CFA_XSP16, literal(-9)))
          CFI (cfiCond27) V11 load(1, XDATA, add(CFA_XSP16, literal(-8)))
          CFI (cfiCond27) V12 load(1, XDATA, add(CFA_XSP16, literal(-7)))
          CFI (cfiCond27) R7 load(1, XDATA, add(CFA_XSP16, literal(-6)))
          CFI (cfiCond27) ?RET_LOW load(1, XDATA, add(CFA_XSP16, literal(-5)))
          CFI (cfiCond27) ?RET_HIGH load(1, XDATA, add(CFA_XSP16, literal(-4)))
          CFI (cfiCond27) ?BRET_EXT load(1, XDATA, add(CFA_XSP16, literal(-3)))
          CFI (cfiCond27) DPL0 load(1, XDATA, add(CFA_XSP16, literal(-2)))
          CFI (cfiCond27) DPH0 load(1, XDATA, add(CFA_XSP16, literal(-1)))
          CFI (cfiCond27) CFA_SP SP+-2
          CFI (cfiCond27) CFA_XSP16 add(XSP16, 35)
          CFI Block cfiPicker28 Using cfiCommon1
          CFI (cfiPicker28) NoFunction
          CFI (cfiPicker28) Picker
        MOVX    @DPTR,A
        LCALL   ?Subroutine30 & 0xFFFF
??CrossCallReturnLabel_47:
        LCALL   ?Subroutine37 & 0xFFFF
??CrossCallReturnLabel_59:
        RET
          CFI EndBlock cfiCond26
          CFI EndBlock cfiCond27
          CFI EndBlock cfiPicker28

        RSEG BANKED_CODE:CODE:NOROOT(0)
?Subroutine37:
          CFI Block cfiCond29 Using cfiCommon0
          CFI Function MT_AfExec
          CFI Conditional ??CrossCallReturnLabel_58
          CFI R6 load(1, XDATA, add(CFA_XSP16, literal(-9)))
          CFI VB load(1, XDATA, add(CFA_XSP16, literal(-8)))
          CFI V0 load(1, XDATA, add(CFA_XSP16, literal(-7)))
          CFI R7 load(1, XDATA, add(CFA_XSP16, literal(-6)))
          CFI ?RET_LOW load(1, XDATA, add(CFA_XSP16, literal(-5)))
          CFI ?RET_HIGH load(1, XDATA, add(CFA_XSP16, literal(-4)))
          CFI ?BRET_EXT load(1, XDATA, add(CFA_XSP16, literal(-3)))
          CFI DPL0 load(1, XDATA, add(CFA_XSP16, literal(-2)))
          CFI DPH0 load(1, XDATA, add(CFA_XSP16, literal(-1)))
          CFI CFA_SP SP+-2
          CFI CFA_XSP16 add(XSP16, 9)
          CFI Block cfiCond30 Using cfiCommon0
          CFI (cfiCond30) Function MT_AfExec
          CFI (cfiCond30) Conditional ??CrossCallReturnLabel_59, ??CrossCallReturnLabel_3
          CFI (cfiCond30) R6 load(1, XDATA, add(CFA_XSP16, literal(-9)))
          CFI (cfiCond30) VB load(1, XDATA, add(CFA_XSP16, literal(-8)))
          CFI (cfiCond30) V0 load(1, XDATA, add(CFA_XSP16, literal(-7)))
          CFI (cfiCond30) R7 load(1, XDATA, add(CFA_XSP16, literal(-6)))
          CFI (cfiCond30) ?RET_LOW load(1, XDATA, add(CFA_XSP16, literal(-5)))
          CFI (cfiCond30) ?RET_HIGH load(1, XDATA, add(CFA_XSP16, literal(-4)))
          CFI (cfiCond30) ?BRET_EXT load(1, XDATA, add(CFA_XSP16, literal(-3)))
          CFI (cfiCond30) DPL0 load(1, XDATA, add(CFA_XSP16, literal(-2)))
          CFI (cfiCond30) DPH0 load(1, XDATA, add(CFA_XSP16, literal(-1)))
          CFI (cfiCond30) CFA_SP SP+-4
          CFI (cfiCond30) CFA_XSP16 add(XSP16, 9)
          CFI Block cfiCond31 Using cfiCommon0
          CFI (cfiCond31) Function MT_AfDataRequest
          CFI (cfiCond31) Conditional ??CrossCallReturnLabel_59, ??CrossCallReturnLabel_2
          CFI (cfiCond31) R6 load(1, XDATA, add(CFA_XSP16, literal(-21)))
          CFI (cfiCond31) VB load(1, XDATA, add(CFA_XSP16, literal(-20)))
          CFI (cfiCond31) V0 load(1, XDATA, add(CFA_XSP16, literal(-19)))
          CFI (cfiCond31) V1 load(1, XDATA, add(CFA_XSP16, literal(-18)))
          CFI (cfiCond31) V2 load(1, XDATA, add(CFA_XSP16, literal(-17)))
          CFI (cfiCond31) V3 load(1, XDATA, add(CFA_XSP16, literal(-16)))
          CFI (cfiCond31) V4 load(1, XDATA, add(CFA_XSP16, literal(-15)))
          CFI (cfiCond31) V5 load(1, XDATA, add(CFA_XSP16, literal(-14)))
          CFI (cfiCond31) V6 load(1, XDATA, add(CFA_XSP16, literal(-13)))
          CFI (cfiCond31) V7 load(1, XDATA, add(CFA_XSP16, literal(-12)))
          CFI (cfiCond31) V8 load(1, XDATA, add(CFA_XSP16, literal(-11)))
          CFI (cfiCond31) V9 load(1, XDATA, add(CFA_XSP16, literal(-10)))
          CFI (cfiCond31) V10 load(1, XDATA, add(CFA_XSP16, literal(-9)))
          CFI (cfiCond31) V11 load(1, XDATA, add(CFA_XSP16, literal(-8)))
          CFI (cfiCond31) V12 load(1, XDATA, add(CFA_XSP16, literal(-7)))
          CFI (cfiCond31) R7 load(1, XDATA, add(CFA_XSP16, literal(-6)))
          CFI (cfiCond31) ?RET_LOW load(1, XDATA, add(CFA_XSP16, literal(-5)))
          CFI (cfiCond31) ?RET_HIGH load(1, XDATA, add(CFA_XSP16, literal(-4)))
          CFI (cfiCond31) ?BRET_EXT load(1, XDATA, add(CFA_XSP16, literal(-3)))
          CFI (cfiCond31) DPL0 load(1, XDATA, add(CFA_XSP16, literal(-2)))
          CFI (cfiCond31) DPH0 load(1, XDATA, add(CFA_XSP16, literal(-1)))
          CFI (cfiCond31) CFA_SP SP+-4
          CFI (cfiCond31) CFA_XSP16 add(XSP16, 35)
          CFI Block cfiPicker32 Using cfiCommon1
          CFI (cfiPicker32) NoFunction
          CFI (cfiPicker32) Picker
        ADD     A,#0x17
        MOV     DPL,A
        CLR     A
        ADDC    A,R0
        MOV     DPH,A
        RET
          CFI EndBlock cfiCond29
          CFI EndBlock cfiCond30
          CFI EndBlock cfiCond31
          CFI EndBlock cfiPicker32

        RSEG BANKED_CODE:CODE:NOROOT(0)
?Subroutine2:
          CFI Block cfiCond33 Using cfiCommon0
          CFI Function MT_AfExec
          CFI Conditional ??CrossCallReturnLabel_83
          CFI R6 load(1, XDATA, add(CFA_XSP16, literal(-9)))
          CFI VB load(1, XDATA, add(CFA_XSP16, literal(-8)))
          CFI V0 load(1, XDATA, add(CFA_XSP16, literal(-7)))
          CFI R7 load(1, XDATA, add(CFA_XSP16, literal(-6)))
          CFI ?RET_LOW load(1, XDATA, add(CFA_XSP16, literal(-5)))
          CFI ?RET_HIGH load(1, XDATA, add(CFA_XSP16, literal(-4)))
          CFI ?BRET_EXT load(1, XDATA, add(CFA_XSP16, literal(-3)))
          CFI DPL0 load(1, XDATA, add(CFA_XSP16, literal(-2)))
          CFI DPH0 load(1, XDATA, add(CFA_XSP16, literal(-1)))
          CFI CFA_SP SP+-2
          CFI CFA_XSP16 add(XSP16, 9)
          CFI Block cfiCond34 Using cfiCommon0
          CFI (cfiCond34) Function MT_AfExec
          CFI (cfiCond34) Conditional ??CrossCallReturnLabel_84
          CFI (cfiCond34) R6 load(1, XDATA, add(CFA_XSP16, literal(-9)))
          CFI (cfiCond34) VB load(1, XDATA, add(CFA_XSP16, literal(-8)))
          CFI (cfiCond34) V0 load(1, XDATA, add(CFA_XSP16, literal(-7)))
          CFI (cfiCond34) R7 load(1, XDATA, add(CFA_XSP16, literal(-6)))
          CFI (cfiCond34) ?RET_LOW load(1, XDATA, add(CFA_XSP16, literal(-5)))
          CFI (cfiCond34) ?RET_HIGH load(1, XDATA, add(CFA_XSP16, literal(-4)))
          CFI (cfiCond34) ?BRET_EXT load(1, XDATA, add(CFA_XSP16, literal(-3)))
          CFI (cfiCond34) DPL0 load(1, XDATA, add(CFA_XSP16, literal(-2)))
          CFI (cfiCond34) DPH0 load(1, XDATA, add(CFA_XSP16, literal(-1)))
          CFI (cfiCond34) CFA_SP SP+-2
          CFI (cfiCond34) CFA_XSP16 add(XSP16, 9)
          CFI Block cfiCond35 Using cfiCommon0
          CFI (cfiCond35) Function MT_AfDataRequest
          CFI (cfiCond35) Conditional ??CrossCallReturnLabel_85
          CFI (cfiCond35) R6 load(1, XDATA, add(CFA_XSP16, literal(-21)))
          CFI (cfiCond35) VB load(1, XDATA, add(CFA_XSP16, literal(-20)))
          CFI (cfiCond35) V0 load(1, XDATA, add(CFA_XSP16, literal(-19)))
          CFI (cfiCond35) V1 load(1, XDATA, add(CFA_XSP16, literal(-18)))
          CFI (cfiCond35) V2 load(1, XDATA, add(CFA_XSP16, literal(-17)))
          CFI (cfiCond35) V3 load(1, XDATA, add(CFA_XSP16, literal(-16)))
          CFI (cfiCond35) V4 load(1, XDATA, add(CFA_XSP16, literal(-15)))
          CFI (cfiCond35) V5 load(1, XDATA, add(CFA_XSP16, literal(-14)))
          CFI (cfiCond35) V6 load(1, XDATA, add(CFA_XSP16, literal(-13)))
          CFI (cfiCond35) V7 load(1, XDATA, add(CFA_XSP16, literal(-12)))
          CFI (cfiCond35) V8 load(1, XDATA, add(CFA_XSP16, literal(-11)))
          CFI (cfiCond35) V9 load(1, XDATA, add(CFA_XSP16, literal(-10)))
          CFI (cfiCond35) V10 load(1, XDATA, add(CFA_XSP16, literal(-9)))
          CFI (cfiCond35) V11 load(1, XDATA, add(CFA_XSP16, literal(-8)))
          CFI (cfiCond35) V12 load(1, XDATA, add(CFA_XSP16, literal(-7)))
          CFI (cfiCond35) R7 load(1, XDATA, add(CFA_XSP16, literal(-6)))
          CFI (cfiCond35) ?RET_LOW load(1, XDATA, add(CFA_XSP16, literal(-5)))
          CFI (cfiCond35) ?RET_HIGH load(1, XDATA, add(CFA_XSP16, literal(-4)))
          CFI (cfiCond35) ?BRET_EXT load(1, XDATA, add(CFA_XSP16, literal(-3)))
          CFI (cfiCond35) DPL0 load(1, XDATA, add(CFA_XSP16, literal(-2)))
          CFI (cfiCond35) DPH0 load(1, XDATA, add(CFA_XSP16, literal(-1)))
          CFI (cfiCond35) CFA_SP SP+-2
          CFI (cfiCond35) CFA_XSP16 add(XSP16, 35)
          CFI Block cfiCond36 Using cfiCommon0
          CFI (cfiCond36) Function MT_AfDataRequest
          CFI (cfiCond36) Conditional ??CrossCallReturnLabel_86
          CFI (cfiCond36) R6 load(1, XDATA, add(CFA_XSP16, literal(-21)))
          CFI (cfiCond36) VB load(1, XDATA, add(CFA_XSP16, literal(-20)))
          CFI (cfiCond36) V0 load(1, XDATA, add(CFA_XSP16, literal(-19)))
          CFI (cfiCond36) V1 load(1, XDATA, add(CFA_XSP16, literal(-18)))
          CFI (cfiCond36) V2 load(1, XDATA, add(CFA_XSP16, literal(-17)))
          CFI (cfiCond36) V3 load(1, XDATA, add(CFA_XSP16, literal(-16)))
          CFI (cfiCond36) V4 load(1, XDATA, add(CFA_XSP16, literal(-15)))
          CFI (cfiCond36) V5 load(1, XDATA, add(CFA_XSP16, literal(-14)))
          CFI (cfiCond36) V6 load(1, XDATA, add(CFA_XSP16, literal(-13)))
          CFI (cfiCond36) V7 load(1, XDATA, add(CFA_XSP16, literal(-12)))
          CFI (cfiCond36) V8 load(1, XDATA, add(CFA_XSP16, literal(-11)))
          CFI (cfiCond36) V9 load(1, XDATA, add(CFA_XSP16, literal(-10)))
          CFI (cfiCond36) V10 load(1, XDATA, add(CFA_XSP16, literal(-9)))
          CFI (cfiCond36) V11 load(1, XDATA, add(CFA_XSP16, literal(-8)))
          CFI (cfiCond36) V12 load(1, XDATA, add(CFA_XSP16, literal(-7)))
          CFI (cfiCond36) R7 load(1, XDATA, add(CFA_XSP16, literal(-6)))
          CFI (cfiCond36) ?RET_LOW load(1, XDATA, add(CFA_XSP16, literal(-5)))
          CFI (cfiCond36) ?RET_HIGH load(1, XDATA, add(CFA_XSP16, literal(-4)))
          CFI (cfiCond36) ?BRET_EXT load(1, XDATA, add(CFA_XSP16, literal(-3)))
          CFI (cfiCond36) DPL0 load(1, XDATA, add(CFA_XSP16, literal(-2)))
          CFI (cfiCond36) DPH0 load(1, XDATA, add(CFA_XSP16, literal(-1)))
          CFI (cfiCond36) CFA_SP SP+-2
          CFI (cfiCond36) CFA_XSP16 add(XSP16, 35)
          CFI Block cfiCond37 Using cfiCommon0
          CFI (cfiCond37) Function MT_AfDataStore
          CFI (cfiCond37) Conditional ??CrossCallReturnLabel_87
          CFI (cfiCond37) R6 load(1, XDATA, add(CFA_XSP16, literal(-14)))
          CFI (cfiCond37) VB load(1, XDATA, add(CFA_XSP16, literal(-13)))
          CFI (cfiCond37) V0 load(1, XDATA, add(CFA_XSP16, literal(-12)))
          CFI (cfiCond37) V1 load(1, XDATA, add(CFA_XSP16, literal(-11)))
          CFI (cfiCond37) V2 load(1, XDATA, add(CFA_XSP16, literal(-10)))
          CFI (cfiCond37) V3 load(1, XDATA, add(CFA_XSP16, literal(-9)))
          CFI (cfiCond37) V4 load(1, XDATA, add(CFA_XSP16, literal(-8)))
          CFI (cfiCond37) V5 load(1, XDATA, add(CFA_XSP16, literal(-7)))
          CFI (cfiCond37) R7 load(1, XDATA, add(CFA_XSP16, literal(-6)))
          CFI (cfiCond37) ?RET_LOW load(1, XDATA, add(CFA_XSP16, literal(-5)))
          CFI (cfiCond37) ?RET_HIGH load(1, XDATA, add(CFA_XSP16, literal(-4)))
          CFI (cfiCond37) ?BRET_EXT load(1, XDATA, add(CFA_XSP16, literal(-3)))
          CFI (cfiCond37) DPL0 load(1, XDATA, add(CFA_XSP16, literal(-2)))
          CFI (cfiCond37) DPH0 load(1, XDATA, add(CFA_XSP16, literal(-1)))
          CFI (cfiCond37) CFA_SP SP+-2
          CFI (cfiCond37) CFA_XSP16 add(XSP16, 15)
          CFI Block cfiPicker38 Using cfiCommon1
          CFI (cfiPicker38) NoFunction
          CFI (cfiPicker38) Picker
        MOV     DPTR,#pMtAfDataReq
          CFI EndBlock cfiCond33
          CFI EndBlock cfiCond34
          CFI EndBlock cfiCond35
          CFI EndBlock cfiCond36
          CFI EndBlock cfiCond37
          CFI EndBlock cfiPicker38
        REQUIRE ??Subroutine43_0
        ; // Fall through to label ??Subroutine43_0

        RSEG BANKED_CODE:CODE:NOROOT(0)
??Subroutine43_0:
          CFI Block cfiCond39 Using cfiCommon0
          CFI Function MT_AfExec
          CFI Conditional ??CrossCallReturnLabel_82
          CFI R6 load(1, XDATA, add(CFA_XSP16, literal(-9)))
          CFI VB load(1, XDATA, add(CFA_XSP16, literal(-8)))
          CFI V0 load(1, XDATA, add(CFA_XSP16, literal(-7)))
          CFI R7 load(1, XDATA, add(CFA_XSP16, literal(-6)))
          CFI ?RET_LOW load(1, XDATA, add(CFA_XSP16, literal(-5)))
          CFI ?RET_HIGH load(1, XDATA, add(CFA_XSP16, literal(-4)))
          CFI ?BRET_EXT load(1, XDATA, add(CFA_XSP16, literal(-3)))
          CFI DPL0 load(1, XDATA, add(CFA_XSP16, literal(-2)))
          CFI DPH0 load(1, XDATA, add(CFA_XSP16, literal(-1)))
          CFI CFA_SP SP+-2
          CFI CFA_XSP16 add(XSP16, 9)
          CFI Block cfiCond40 Using cfiCommon0
          CFI (cfiCond40) Function MT_AfExec
          CFI (cfiCond40) Conditional ??CrossCallReturnLabel_83
          CFI (cfiCond40) R6 load(1, XDATA, add(CFA_XSP16, literal(-9)))
          CFI (cfiCond40) VB load(1, XDATA, add(CFA_XSP16, literal(-8)))
          CFI (cfiCond40) V0 load(1, XDATA, add(CFA_XSP16, literal(-7)))
          CFI (cfiCond40) R7 load(1, XDATA, add(CFA_XSP16, literal(-6)))
          CFI (cfiCond40) ?RET_LOW load(1, XDATA, add(CFA_XSP16, literal(-5)))
          CFI (cfiCond40) ?RET_HIGH load(1, XDATA, add(CFA_XSP16, literal(-4)))
          CFI (cfiCond40) ?BRET_EXT load(1, XDATA, add(CFA_XSP16, literal(-3)))
          CFI (cfiCond40) DPL0 load(1, XDATA, add(CFA_XSP16, literal(-2)))
          CFI (cfiCond40) DPH0 load(1, XDATA, add(CFA_XSP16, literal(-1)))
          CFI (cfiCond40) CFA_SP SP+-2
          CFI (cfiCond40) CFA_XSP16 add(XSP16, 9)
          CFI Block cfiCond41 Using cfiCommon0
          CFI (cfiCond41) Function MT_AfExec
          CFI (cfiCond41) Conditional ??CrossCallReturnLabel_84
          CFI (cfiCond41) R6 load(1, XDATA, add(CFA_XSP16, literal(-9)))
          CFI (cfiCond41) VB load(1, XDATA, add(CFA_XSP16, literal(-8)))
          CFI (cfiCond41) V0 load(1, XDATA, add(CFA_XSP16, literal(-7)))
          CFI (cfiCond41) R7 load(1, XDATA, add(CFA_XSP16, literal(-6)))
          CFI (cfiCond41) ?RET_LOW load(1, XDATA, add(CFA_XSP16, literal(-5)))
          CFI (cfiCond41) ?RET_HIGH load(1, XDATA, add(CFA_XSP16, literal(-4)))
          CFI (cfiCond41) ?BRET_EXT load(1, XDATA, add(CFA_XSP16, literal(-3)))
          CFI (cfiCond41) DPL0 load(1, XDATA, add(CFA_XSP16, literal(-2)))
          CFI (cfiCond41) DPH0 load(1, XDATA, add(CFA_XSP16, literal(-1)))
          CFI (cfiCond41) CFA_SP SP+-2
          CFI (cfiCond41) CFA_XSP16 add(XSP16, 9)
          CFI Block cfiCond42 Using cfiCommon0
          CFI (cfiCond42) Function MT_AfDataRequest
          CFI (cfiCond42) Conditional ??CrossCallReturnLabel_85
          CFI (cfiCond42) R6 load(1, XDATA, add(CFA_XSP16, literal(-21)))
          CFI (cfiCond42) VB load(1, XDATA, add(CFA_XSP16, literal(-20)))
          CFI (cfiCond42) V0 load(1, XDATA, add(CFA_XSP16, literal(-19)))
          CFI (cfiCond42) V1 load(1, XDATA, add(CFA_XSP16, literal(-18)))
          CFI (cfiCond42) V2 load(1, XDATA, add(CFA_XSP16, literal(-17)))
          CFI (cfiCond42) V3 load(1, XDATA, add(CFA_XSP16, literal(-16)))
          CFI (cfiCond42) V4 load(1, XDATA, add(CFA_XSP16, literal(-15)))
          CFI (cfiCond42) V5 load(1, XDATA, add(CFA_XSP16, literal(-14)))
          CFI (cfiCond42) V6 load(1, XDATA, add(CFA_XSP16, literal(-13)))
          CFI (cfiCond42) V7 load(1, XDATA, add(CFA_XSP16, literal(-12)))
          CFI (cfiCond42) V8 load(1, XDATA, add(CFA_XSP16, literal(-11)))
          CFI (cfiCond42) V9 load(1, XDATA, add(CFA_XSP16, literal(-10)))
          CFI (cfiCond42) V10 load(1, XDATA, add(CFA_XSP16, literal(-9)))
          CFI (cfiCond42) V11 load(1, XDATA, add(CFA_XSP16, literal(-8)))
          CFI (cfiCond42) V12 load(1, XDATA, add(CFA_XSP16, literal(-7)))
          CFI (cfiCond42) R7 load(1, XDATA, add(CFA_XSP16, literal(-6)))
          CFI (cfiCond42) ?RET_LOW load(1, XDATA, add(CFA_XSP16, literal(-5)))
          CFI (cfiCond42) ?RET_HIGH load(1, XDATA, add(CFA_XSP16, literal(-4)))
          CFI (cfiCond42) ?BRET_EXT load(1, XDATA, add(CFA_XSP16, literal(-3)))
          CFI (cfiCond42) DPL0 load(1, XDATA, add(CFA_XSP16, literal(-2)))
          CFI (cfiCond42) DPH0 load(1, XDATA, add(CFA_XSP16, literal(-1)))
          CFI (cfiCond42) CFA_SP SP+-2
          CFI (cfiCond42) CFA_XSP16 add(XSP16, 35)
          CFI Block cfiCond43 Using cfiCommon0
          CFI (cfiCond43) Function MT_AfDataRequest
          CFI (cfiCond43) Conditional ??CrossCallReturnLabel_86
          CFI (cfiCond43) R6 load(1, XDATA, add(CFA_XSP16, literal(-21)))
          CFI (cfiCond43) VB load(1, XDATA, add(CFA_XSP16, literal(-20)))
          CFI (cfiCond43) V0 load(1, XDATA, add(CFA_XSP16, literal(-19)))
          CFI (cfiCond43) V1 load(1, XDATA, add(CFA_XSP16, literal(-18)))
          CFI (cfiCond43) V2 load(1, XDATA, add(CFA_XSP16, literal(-17)))
          CFI (cfiCond43) V3 load(1, XDATA, add(CFA_XSP16, literal(-16)))
          CFI (cfiCond43) V4 load(1, XDATA, add(CFA_XSP16, literal(-15)))
          CFI (cfiCond43) V5 load(1, XDATA, add(CFA_XSP16, literal(-14)))
          CFI (cfiCond43) V6 load(1, XDATA, add(CFA_XSP16, literal(-13)))
          CFI (cfiCond43) V7 load(1, XDATA, add(CFA_XSP16, literal(-12)))
          CFI (cfiCond43) V8 load(1, XDATA, add(CFA_XSP16, literal(-11)))
          CFI (cfiCond43) V9 load(1, XDATA, add(CFA_XSP16, literal(-10)))
          CFI (cfiCond43) V10 load(1, XDATA, add(CFA_XSP16, literal(-9)))
          CFI (cfiCond43) V11 load(1, XDATA, add(CFA_XSP16, literal(-8)))
          CFI (cfiCond43) V12 load(1, XDATA, add(CFA_XSP16, literal(-7)))
          CFI (cfiCond43) R7 load(1, XDATA, add(CFA_XSP16, literal(-6)))
          CFI (cfiCond43) ?RET_LOW load(1, XDATA, add(CFA_XSP16, literal(-5)))
          CFI (cfiCond43) ?RET_HIGH load(1, XDATA, add(CFA_XSP16, literal(-4)))
          CFI (cfiCond43) ?BRET_EXT load(1, XDATA, add(CFA_XSP16, literal(-3)))
          CFI (cfiCond43) DPL0 load(1, XDATA, add(CFA_XSP16, literal(-2)))
          CFI (cfiCond43) DPH0 load(1, XDATA, add(CFA_XSP16, literal(-1)))
          CFI (cfiCond43) CFA_SP SP+-2
          CFI (cfiCond43) CFA_XSP16 add(XSP16, 35)
          CFI Block cfiCond44 Using cfiCommon0
          CFI (cfiCond44) Function MT_AfDataStore
          CFI (cfiCond44) Conditional ??CrossCallReturnLabel_87
          CFI (cfiCond44) R6 load(1, XDATA, add(CFA_XSP16, literal(-14)))
          CFI (cfiCond44) VB load(1, XDATA, add(CFA_XSP16, literal(-13)))
          CFI (cfiCond44) V0 load(1, XDATA, add(CFA_XSP16, literal(-12)))
          CFI (cfiCond44) V1 load(1, XDATA, add(CFA_XSP16, literal(-11)))
          CFI (cfiCond44) V2 load(1, XDATA, add(CFA_XSP16, literal(-10)))
          CFI (cfiCond44) V3 load(1, XDATA, add(CFA_XSP16, literal(-9)))
          CFI (cfiCond44) V4 load(1, XDATA, add(CFA_XSP16, literal(-8)))
          CFI (cfiCond44) V5 load(1, XDATA, add(CFA_XSP16, literal(-7)))
          CFI (cfiCond44) R7 load(1, XDATA, add(CFA_XSP16, literal(-6)))
          CFI (cfiCond44) ?RET_LOW load(1, XDATA, add(CFA_XSP16, literal(-5)))
          CFI (cfiCond44) ?RET_HIGH load(1, XDATA, add(CFA_XSP16, literal(-4)))
          CFI (cfiCond44) ?BRET_EXT load(1, XDATA, add(CFA_XSP16, literal(-3)))
          CFI (cfiCond44) DPL0 load(1, XDATA, add(CFA_XSP16, literal(-2)))
          CFI (cfiCond44) DPH0 load(1, XDATA, add(CFA_XSP16, literal(-1)))
          CFI (cfiCond44) CFA_SP SP+-2
          CFI (cfiCond44) CFA_XSP16 add(XSP16, 15)
          CFI Block cfiPicker45 Using cfiCommon1
          CFI (cfiPicker45) NoFunction
          CFI (cfiPicker45) Picker
        LCALL   ??Subroutine46_0 & 0xFFFF
??CrossCallReturnLabel_101:
        MOV     A,R0
        ORL     A,R1
        RET
          CFI EndBlock cfiCond39
          CFI EndBlock cfiCond40
          CFI EndBlock cfiCond41
          CFI EndBlock cfiCond42
          CFI EndBlock cfiCond43
          CFI EndBlock cfiCond44
          CFI EndBlock cfiPicker45
//  469 
//  470 #if defined( ZIGBEEPRO )
//  471 /***************************************************************************************************
//  472  * @fn      MT_AfDataRequestSrcRtg
//  473  *
//  474  * @brief   Process AF Register command
//  475  *
//  476  * @param   pBuf - pointer to the received buffer
//  477  *
//  478  * @return  none
//  479  ***************************************************************************************************/

        RSEG BANKED_CODE:CODE:NOROOT(0)
//  480 static void MT_AfDataRequestSrcRtg(uint8 *pBuf)
MT_AfDataRequestSrcRtg:
          CFI Block cfiBlock46 Using cfiCommon0
          CFI Function MT_AfDataRequestSrcRtg
        CODE
//  481 {
        FUNCALL MT_AfDataRequestSrcRtg, osal_memset
        LOCFRAME ISTACK, 0, STACK
        LOCFRAME PSTACK, 0, STACK
        LOCFRAME XSTACK, 34, STACK
        LOCFRAME IOVERLAY, 0, STATIC
        LOCFRAME DOVERLAY, 0, STATIC
        ARGFRAME ISTACK, 0, STACK
        ARGFRAME PSTACK, 0, STACK
        ARGFRAME XSTACK, 34, STACK
        ARGFRAME IOVERLAY, 0, STATIC
        ARGFRAME DOVERLAY, 0, STATIC
        FUNCALL MT_AfDataRequestSrcRtg, osal_build_uint16
        LOCFRAME ISTACK, 0, STACK
        LOCFRAME PSTACK, 0, STACK
        LOCFRAME XSTACK, 34, STACK
        LOCFRAME IOVERLAY, 0, STATIC
        LOCFRAME DOVERLAY, 0, STATIC
        ARGFRAME ISTACK, 0, STACK
        ARGFRAME PSTACK, 0, STACK
        ARGFRAME XSTACK, 34, STACK
        ARGFRAME IOVERLAY, 0, STATIC
        ARGFRAME DOVERLAY, 0, STATIC
        FUNCALL MT_AfDataRequestSrcRtg, afFindEndPointDesc
        LOCFRAME ISTACK, 0, STACK
        LOCFRAME PSTACK, 0, STACK
        LOCFRAME XSTACK, 34, STACK
        LOCFRAME IOVERLAY, 0, STATIC
        LOCFRAME DOVERLAY, 0, STATIC
        ARGFRAME ISTACK, 0, STACK
        ARGFRAME PSTACK, 0, STACK
        ARGFRAME XSTACK, 34, STACK
        ARGFRAME IOVERLAY, 0, STATIC
        ARGFRAME DOVERLAY, 0, STATIC
        FUNCALL MT_AfDataRequestSrcRtg, osal_build_uint16
        LOCFRAME ISTACK, 0, STACK
        LOCFRAME PSTACK, 0, STACK
        LOCFRAME XSTACK, 34, STACK
        LOCFRAME IOVERLAY, 0, STATIC
        LOCFRAME DOVERLAY, 0, STATIC
        ARGFRAME ISTACK, 0, STACK
        ARGFRAME PSTACK, 0, STACK
        ARGFRAME XSTACK, 34, STACK
        ARGFRAME IOVERLAY, 0, STATIC
        ARGFRAME DOVERLAY, 0, STATIC
        FUNCALL MT_AfDataRequestSrcRtg, osal_mem_alloc
        LOCFRAME ISTACK, 0, STACK
        LOCFRAME PSTACK, 0, STACK
        LOCFRAME XSTACK, 34, STACK
        LOCFRAME IOVERLAY, 0, STATIC
        LOCFRAME DOVERLAY, 0, STATIC
        ARGFRAME ISTACK, 0, STACK
        ARGFRAME PSTACK, 0, STACK
        ARGFRAME XSTACK, 34, STACK
        ARGFRAME IOVERLAY, 0, STATIC
        ARGFRAME DOVERLAY, 0, STATIC
        FUNCALL MT_AfDataRequestSrcRtg, osal_build_uint16
        LOCFRAME ISTACK, 0, STACK
        LOCFRAME PSTACK, 0, STACK
        LOCFRAME XSTACK, 34, STACK
        LOCFRAME IOVERLAY, 0, STATIC
        LOCFRAME DOVERLAY, 0, STATIC
        ARGFRAME ISTACK, 0, STACK
        ARGFRAME PSTACK, 0, STACK
        ARGFRAME XSTACK, 34, STACK
        ARGFRAME IOVERLAY, 0, STATIC
        ARGFRAME DOVERLAY, 0, STATIC
        FUNCALL MT_AfDataRequestSrcRtg, AF_DataRequestSrcRtg
        LOCFRAME ISTACK, 0, STACK
        LOCFRAME PSTACK, 0, STACK
        LOCFRAME XSTACK, 46, STACK
        LOCFRAME IOVERLAY, 0, STATIC
        LOCFRAME DOVERLAY, 0, STATIC
        ARGFRAME ISTACK, 0, STACK
        ARGFRAME PSTACK, 0, STACK
        ARGFRAME XSTACK, 46, STACK
        ARGFRAME IOVERLAY, 0, STATIC
        ARGFRAME DOVERLAY, 0, STATIC
        FUNCALL MT_AfDataRequestSrcRtg, osal_mem_free
        LOCFRAME ISTACK, 0, STACK
        LOCFRAME PSTACK, 0, STACK
        LOCFRAME XSTACK, 34, STACK
        LOCFRAME IOVERLAY, 0, STATIC
        LOCFRAME DOVERLAY, 0, STATIC
        ARGFRAME ISTACK, 0, STACK
        ARGFRAME PSTACK, 0, STACK
        ARGFRAME XSTACK, 34, STACK
        ARGFRAME IOVERLAY, 0, STATIC
        ARGFRAME DOVERLAY, 0, STATIC
        FUNCALL MT_AfDataRequestSrcRtg, MT_BuildAndSendZToolResponse
        LOCFRAME ISTACK, 0, STACK
        LOCFRAME PSTACK, 0, STACK
        LOCFRAME XSTACK, 34, STACK
        LOCFRAME IOVERLAY, 0, STATIC
        LOCFRAME DOVERLAY, 0, STATIC
        ARGFRAME ISTACK, 0, STACK
        ARGFRAME PSTACK, 0, STACK
        ARGFRAME XSTACK, 34, STACK
        ARGFRAME IOVERLAY, 0, STATIC
        ARGFRAME DOVERLAY, 0, STATIC
        REQUIRE ?V0
        REQUIRE ?V1
        REQUIRE ?V2
        REQUIRE ?V3
        REQUIRE ?V4
        REQUIRE ?V5
        REQUIRE ?V6
        REQUIRE ?V7
        REQUIRE ?V8
        REQUIRE ?V9
        REQUIRE ?V10
        REQUIRE ?V11
        MOV     A,#-0x14
        LCALL   ?BANKED_ENTER_XDATA
          CFI DPH0 load(1, XDATA, add(CFA_XSP16, literal(-1)))
          CFI DPL0 load(1, XDATA, add(CFA_XSP16, literal(-2)))
          CFI ?BRET_EXT load(1, XDATA, add(CFA_XSP16, literal(-3)))
          CFI ?RET_HIGH load(1, XDATA, add(CFA_XSP16, literal(-4)))
          CFI ?RET_LOW load(1, XDATA, add(CFA_XSP16, literal(-5)))
          CFI R7 load(1, XDATA, add(CFA_XSP16, literal(-6)))
          CFI V11 load(1, XDATA, add(CFA_XSP16, literal(-7)))
          CFI V10 load(1, XDATA, add(CFA_XSP16, literal(-8)))
          CFI V9 load(1, XDATA, add(CFA_XSP16, literal(-9)))
          CFI V8 load(1, XDATA, add(CFA_XSP16, literal(-10)))
          CFI V7 load(1, XDATA, add(CFA_XSP16, literal(-11)))
          CFI V6 load(1, XDATA, add(CFA_XSP16, literal(-12)))
          CFI V5 load(1, XDATA, add(CFA_XSP16, literal(-13)))
          CFI V4 load(1, XDATA, add(CFA_XSP16, literal(-14)))
          CFI V3 load(1, XDATA, add(CFA_XSP16, literal(-15)))
          CFI V2 load(1, XDATA, add(CFA_XSP16, literal(-16)))
          CFI V1 load(1, XDATA, add(CFA_XSP16, literal(-17)))
          CFI V0 load(1, XDATA, add(CFA_XSP16, literal(-18)))
          CFI VB load(1, XDATA, add(CFA_XSP16, literal(-19)))
          CFI R6 load(1, XDATA, add(CFA_XSP16, literal(-20)))
          CFI CFA_SP SP+0
          CFI CFA_XSP16 add(XSP16, 20)
        ; Saved register size: 20
        ; Auto size: 14
        MOV     A,#-0xe
        LCALL   ?ALLOC_XSTACK8
          CFI CFA_XSP16 add(XSP16, 34)
        MOV     A,R2
        MOV     R6,A
        MOV     A,R3
        MOV     R7,A
//  482   uint8 cmdId, dataLen = 0;
//  483   uint8 retValue = ZFailure;
        MOV     DPL,?XSP + 0
        MOV     DPH,?XSP + 1
        MOV     A,#0x1
        LCALL   ??Subroutine42_0 & 0xFFFF
//  484   endPointDesc_t *epDesc;
//  485   byte transId;
//  486   afAddrType_t dstAddr;
//  487   cId_t cId;
//  488   byte txOpts, radius, srcEP, relayCnt;
//  489   uint16 *pRelayList;
//  490   uint8 i;
//  491 
//  492   /* parse header */
//  493   cmdId = pBuf[MT_RPC_POS_CMD1];
??CrossCallReturnLabel_77:
        MOV     ?V6,A
//  494   pBuf += MT_RPC_FRAME_HDR_SZ;
        MOV     A,R6
        ADD     A,#0x3
        MOV     R6,A
        JNC     ??MT_AfDataRequestSrcRtg_0
        INC     R7
//  495 
//  496   /* Destination address */
//  497   /* Initialize the panID field to zero to avoid inter-pan */
//  498   osal_memset( &dstAddr, 0, sizeof(afAddrType_t) );
??MT_AfDataRequestSrcRtg_0:
        ; Setup parameters for call to function osal_memset
        MOV     R4,#0xc
        MOV     R5,#0x0
        MOV     R1,#0x0
        MOV     A,#0x2
        LCALL   ?XSTACK_DISP101_8
        LCALL   `??osal_memset::?relay`; Banked call to: osal_memset
//  499   dstAddr.addrMode = afAddr16Bit;
        MOV     A,#0xa
        LCALL   ?XSTACK_DISP0_8
        MOV     A,#0x2
        MOVX    @DPTR,A
//  500   dstAddr.addr.shortAddr = osal_build_uint16( pBuf );
        ; Setup parameters for call to function osal_build_uint16
        MOV     A,R6
        MOV     R2,A
        MOV     A,R7
        MOV     R3,A
        LCALL   `??osal_build_uint16::?relay`; Banked call to: osal_build_uint16
        MOV     A,#0x2
        LCALL   ?XSTACK_DISP0_8
        LCALL   ?Subroutine22 & 0xFFFF
//  501   pBuf += 2;
//  502 
//  503   /* Destination endpoint */
//  504   dstAddr.endPoint = *pBuf++;
??CrossCallReturnLabel_76:
        PUSH    A
          CFI CFA_SP SP+-1
        MOV     A,#0xb
        LCALL   ?XSTACK_DISP0_8
        POP     A
          CFI CFA_SP SP+0
        LCALL   ?Subroutine26 & 0xFFFF
//  505 
//  506   /* Source endpoint */
//  507   srcEP = *pBuf++;
??CrossCallReturnLabel_38:
        MOV     R1,A
        MOV     A,R6
        ADD     A,#0x4
        MOV     R6,A
        JNC     ??MT_AfDataRequestSrcRtg_1
        INC     R7
//  508   epDesc = afFindEndPointDesc( srcEP );
??MT_AfDataRequestSrcRtg_1:
        ; Setup parameters for call to function afFindEndPointDesc
        LCALL   `??afFindEndPointDesc::?relay`; Banked call to: afFindEndPointDesc
        MOV     ?V2,R2
        MOV     ?V3,R3
//  509 
//  510   /* ClusterId */
//  511   cId = osal_build_uint16( pBuf );
        ; Setup parameters for call to function osal_build_uint16
        MOV     A,R6
        MOV     R2,A
        MOV     A,R7
        MOV     R3,A
        LCALL   `??osal_build_uint16::?relay`; Banked call to: osal_build_uint16
        MOV     ?V4,R2
        MOV     ?V5,R3
//  512   pBuf +=2;
//  513 
//  514   /* TransId */
//  515   transId = *pBuf++;
        MOV     DPL,R6
        MOV     DPH,R7
        INC     DPTR
        INC     DPTR
        MOVX    A,@DPTR
        PUSH    A
          CFI CFA_SP SP+-1
        MOV     A,#0x1
        LCALL   ?XSTACK_DISP0_8
        POP     A
          CFI CFA_SP SP+0
        LCALL   ?Subroutine26 & 0xFFFF
//  516 
//  517   /* TxOption */
//  518   txOpts = *pBuf++;
??CrossCallReturnLabel_39:
        MOV     ?V7,A
//  519 
//  520   /* Radius */
//  521   radius = *pBuf++;
        MOV     DPL,R6
        MOV     DPH,R7
        INC     DPTR
        LCALL   ?Subroutine12 & 0xFFFF
//  522 
//  523   /* Source route relay count */
//  524   relayCnt = *pBuf++;
??CrossCallReturnLabel_17:
        INC     DPTR
        MOVX    A,@DPTR
        MOV     ?V9,A
        MOV     A,R6
        ADD     A,#0x6
        MOV     R6,A
        JNC     ??MT_AfDataRequestSrcRtg_2
        INC     R7
//  525 
//  526   /* Convert the source route relay list */
//  527   if( (pRelayList = osal_mem_alloc( relayCnt * sizeof( uint16 ))) != NULL )
??MT_AfDataRequestSrcRtg_2:
        ; Setup parameters for call to function osal_mem_alloc
        MOV     R2,?V9
        MOV     A,R2
        ADD     A,R2
        MOV     R2,A
        CLR     A
        RLC     A
        MOV     R3,A
        LCALL   `??osal_mem_alloc::?relay`; Banked call to: osal_mem_alloc
        MOV     ?V0,R2
        MOV     ?V1,R3
        MOV     A,R2
        ORL     A,?V1
        JNZ     $+5
        LJMP    ??MT_AfDataRequestSrcRtg_3 & 0xFFFF
//  528   {
//  529     for( i = 0; i < relayCnt; i++ )
        MOV     ?V10,#0x0
        SJMP    ??MT_AfDataRequestSrcRtg_4
//  530     {
//  531       pRelayList[i] = osal_build_uint16( pBuf );
??MT_AfDataRequestSrcRtg_5:
        ; Setup parameters for call to function osal_build_uint16
        MOV     A,R6
        MOV     R2,A
        MOV     A,R7
        MOV     R3,A
        LCALL   `??osal_build_uint16::?relay`; Banked call to: osal_build_uint16
        MOV     R0,?V10
        MOV     A,R0
        ADD     A,R0
        MOV     R0,A
        CLR     A
        RLC     A
        MOV     R1,A
        MOV     A,?V0
        ADD     A,R0
        MOV     DPL,A
        MOV     A,?V1
        ADDC    A,R1
        MOV     DPH,A
        LCALL   ?Subroutine28 & 0xFFFF
//  532       pBuf += 2;
//  533     }
??CrossCallReturnLabel_43:
        JNC     ??MT_AfDataRequestSrcRtg_6
        INC     R7
??MT_AfDataRequestSrcRtg_6:
        INC     ?V10
??MT_AfDataRequestSrcRtg_4:
        MOV     A,?V10
        CLR     C
        SUBB    A,?V9
        JC      ??MT_AfDataRequestSrcRtg_5
//  534 
//  535     /* Data payload Length */
//  536     dataLen = *pBuf++;
        MOV     DPL,R6
        MOV     DPH,R7
        MOVX    A,@DPTR
        MOV     ?V10,A
        INC     DPTR
        MOV     R6,DPL
        MOV     R7,DPH
//  537 
//  538     if ( epDesc == NULL )
        MOV     A,?V2
        ORL     A,?V3
        JNZ     ??MT_AfDataRequestSrcRtg_7
//  539     {
//  540       retValue = afStatus_INVALID_PARAMETER;
        MOV     DPL,?XSP + 0
        MOV     DPH,?XSP + 1
        MOV     A,#0x2
        SJMP    ??MT_AfDataRequestSrcRtg_8
//  541     }
//  542     else
//  543     {
//  544       retValue = AF_DataRequestSrcRtg( &dstAddr, epDesc, cId, dataLen, pBuf,
//  545                                      &transId, txOpts, radius, relayCnt, pRelayList );
??MT_AfDataRequestSrcRtg_7:
        ; Setup parameters for call to function AF_DataRequestSrcRtg
        MOV     R0,#?V0
        LCALL   ?PUSH_XSTACK_I_TWO
          CFI CFA_XSP16 add(XSP16, 36)
        MOV     R0,#?V9
        LCALL   ?PUSH_XSTACK_I_ONE
          CFI CFA_XSP16 add(XSP16, 37)
        MOV     R0,#?V8
        LCALL   ?PUSH_XSTACK_I_ONE
          CFI CFA_XSP16 add(XSP16, 38)
        MOV     A,#0x5
        LCALL   ?XSTACK_DISP100_8
        MOV     ?V8,R0
        MOV     ?V9,R1
        MOV     R0,#?V8
        LCALL   ?PUSH_XSTACK_I_TWO
          CFI CFA_XSP16 add(XSP16, 40)
        MOV     ?V8,R6
        MOV     ?V9,R7
        MOV     R0,#?V8
        LCALL   ?PUSH_XSTACK_I_TWO
          CFI CFA_XSP16 add(XSP16, 42)
        MOV     ?V11,#0x0
        MOV     R0,#?V10
        LCALL   ?PUSH_XSTACK_I_TWO
          CFI CFA_XSP16 add(XSP16, 44)
        MOV     R0,#?V4
        LCALL   ?PUSH_XSTACK_I_TWO
          CFI CFA_XSP16 add(XSP16, 46)
        MOV     R1,?V7
        MOV     R4,?V2
        MOV     R5,?V3
        MOV     A,#0xe
        LCALL   ?XSTACK_DISP101_8
        LCALL   `??AF_DataRequestSrcRtg::?relay`; Banked call to: AF_DataRequestSrcRtg
        MOV     A,#0xc
        LCALL   ?DEALLOC_XSTACK8
          CFI CFA_XSP16 add(XSP16, 34)
        MOV     A,R1
        MOV     DPL,?XSP + 0
        MOV     DPH,?XSP + 1
??MT_AfDataRequestSrcRtg_8:
        MOVX    @DPTR,A
//  546     }
//  547 
//  548     /* Free the memory allocated */
//  549     osal_mem_free( pRelayList );
        ; Setup parameters for call to function osal_mem_free
        MOV     R2,?V0
        MOV     R3,?V1
        LCALL   `??osal_mem_free::?relay`; Banked call to: osal_mem_free
        SJMP    ??MT_AfDataRequestSrcRtg_9
//  550   }
//  551   else
//  552   {
//  553     retValue = afStatus_MEM_FAIL;
??MT_AfDataRequestSrcRtg_3:
        MOV     DPL,?XSP + 0
        MOV     DPH,?XSP + 1
        MOV     A,#0x10
        MOVX    @DPTR,A
//  554   }
//  555 
//  556 
//  557   /* Build and send back the response */
//  558   MT_BuildAndSendZToolResponse(((uint8)MT_RPC_CMD_SRSP | (uint8)MT_RPC_SYS_AF), cmdId, 1, &retValue);
??MT_AfDataRequestSrcRtg_9:
        ; Setup parameters for call to function MT_BuildAndSendZToolResponse
        MOV     R4,?XSP + 0
        MOV     R5,?XSP + 1
        MOV     R3,#0x1
        MOV     R2,?V6
        MOV     R1,#0x64
        LCALL   `??MT_BuildAndSendZToolResponse::?relay`; Banked call to: MT_BuildAndSendZToolResponse
//  559 }
        MOV     A,#0xe
        LCALL   ?DEALLOC_XSTACK8
          CFI CFA_XSP16 add(XSP16, 20)
        MOV     R7,#0xc
        LJMP    ?BANKED_LEAVE_XDATA
          CFI EndBlock cfiBlock46

        RSEG BANKED_CODE:CODE:NOROOT(0)
?Subroutine28:
          CFI Block cfiCond47 Using cfiCommon0
          CFI Function MT_AfDataRequest
          CFI Conditional ??CrossCallReturnLabel_42
          CFI R6 load(1, XDATA, add(CFA_XSP16, literal(-21)))
          CFI VB load(1, XDATA, add(CFA_XSP16, literal(-20)))
          CFI V0 load(1, XDATA, add(CFA_XSP16, literal(-19)))
          CFI V1 load(1, XDATA, add(CFA_XSP16, literal(-18)))
          CFI V2 load(1, XDATA, add(CFA_XSP16, literal(-17)))
          CFI V3 load(1, XDATA, add(CFA_XSP16, literal(-16)))
          CFI V4 load(1, XDATA, add(CFA_XSP16, literal(-15)))
          CFI V5 load(1, XDATA, add(CFA_XSP16, literal(-14)))
          CFI V6 load(1, XDATA, add(CFA_XSP16, literal(-13)))
          CFI V7 load(1, XDATA, add(CFA_XSP16, literal(-12)))
          CFI V8 load(1, XDATA, add(CFA_XSP16, literal(-11)))
          CFI V9 load(1, XDATA, add(CFA_XSP16, literal(-10)))
          CFI V10 load(1, XDATA, add(CFA_XSP16, literal(-9)))
          CFI V11 load(1, XDATA, add(CFA_XSP16, literal(-8)))
          CFI V12 load(1, XDATA, add(CFA_XSP16, literal(-7)))
          CFI R7 load(1, XDATA, add(CFA_XSP16, literal(-6)))
          CFI ?RET_LOW load(1, XDATA, add(CFA_XSP16, literal(-5)))
          CFI ?RET_HIGH load(1, XDATA, add(CFA_XSP16, literal(-4)))
          CFI ?BRET_EXT load(1, XDATA, add(CFA_XSP16, literal(-3)))
          CFI DPL0 load(1, XDATA, add(CFA_XSP16, literal(-2)))
          CFI DPH0 load(1, XDATA, add(CFA_XSP16, literal(-1)))
          CFI CFA_SP SP+-2
          CFI CFA_XSP16 add(XSP16, 35)
          CFI Block cfiCond48 Using cfiCommon0
          CFI (cfiCond48) Function MT_AfDataRequestSrcRtg
          CFI (cfiCond48) Conditional ??CrossCallReturnLabel_43
          CFI (cfiCond48) R6 load(1, XDATA, add(CFA_XSP16, literal(-20)))
          CFI (cfiCond48) VB load(1, XDATA, add(CFA_XSP16, literal(-19)))
          CFI (cfiCond48) V0 load(1, XDATA, add(CFA_XSP16, literal(-18)))
          CFI (cfiCond48) V1 load(1, XDATA, add(CFA_XSP16, literal(-17)))
          CFI (cfiCond48) V2 load(1, XDATA, add(CFA_XSP16, literal(-16)))
          CFI (cfiCond48) V3 load(1, XDATA, add(CFA_XSP16, literal(-15)))
          CFI (cfiCond48) V4 load(1, XDATA, add(CFA_XSP16, literal(-14)))
          CFI (cfiCond48) V5 load(1, XDATA, add(CFA_XSP16, literal(-13)))
          CFI (cfiCond48) V6 load(1, XDATA, add(CFA_XSP16, literal(-12)))
          CFI (cfiCond48) V7 load(1, XDATA, add(CFA_XSP16, literal(-11)))
          CFI (cfiCond48) V8 load(1, XDATA, add(CFA_XSP16, literal(-10)))
          CFI (cfiCond48) V9 load(1, XDATA, add(CFA_XSP16, literal(-9)))
          CFI (cfiCond48) V10 load(1, XDATA, add(CFA_XSP16, literal(-8)))
          CFI (cfiCond48) V11 load(1, XDATA, add(CFA_XSP16, literal(-7)))
          CFI (cfiCond48) R7 load(1, XDATA, add(CFA_XSP16, literal(-6)))
          CFI (cfiCond48) ?RET_LOW load(1, XDATA, add(CFA_XSP16, literal(-5)))
          CFI (cfiCond48) ?RET_HIGH load(1, XDATA, add(CFA_XSP16, literal(-4)))
          CFI (cfiCond48) ?BRET_EXT load(1, XDATA, add(CFA_XSP16, literal(-3)))
          CFI (cfiCond48) DPL0 load(1, XDATA, add(CFA_XSP16, literal(-2)))
          CFI (cfiCond48) DPH0 load(1, XDATA, add(CFA_XSP16, literal(-1)))
          CFI (cfiCond48) CFA_SP SP+-2
          CFI (cfiCond48) CFA_XSP16 add(XSP16, 34)
          CFI Block cfiPicker49 Using cfiCommon1
          CFI (cfiPicker49) NoFunction
          CFI (cfiPicker49) Picker
        MOV     A,R2
        MOVX    @DPTR,A
        INC     DPTR
        MOV     A,R3
        MOVX    @DPTR,A
        MOV     A,R6
        ADD     A,#0x2
        MOV     R6,A
        RET
          CFI EndBlock cfiCond47
          CFI EndBlock cfiCond48
          CFI EndBlock cfiPicker49

        RSEG BANKED_CODE:CODE:NOROOT(0)
?Subroutine26:
          CFI Block cfiCond50 Using cfiCommon0
          CFI Function MT_AfDataRequestSrcRtg
          CFI Conditional ??CrossCallReturnLabel_38
          CFI R6 load(1, XDATA, add(CFA_XSP16, literal(-20)))
          CFI VB load(1, XDATA, add(CFA_XSP16, literal(-19)))
          CFI V0 load(1, XDATA, add(CFA_XSP16, literal(-18)))
          CFI V1 load(1, XDATA, add(CFA_XSP16, literal(-17)))
          CFI V2 load(1, XDATA, add(CFA_XSP16, literal(-16)))
          CFI V3 load(1, XDATA, add(CFA_XSP16, literal(-15)))
          CFI V4 load(1, XDATA, add(CFA_XSP16, literal(-14)))
          CFI V5 load(1, XDATA, add(CFA_XSP16, literal(-13)))
          CFI V6 load(1, XDATA, add(CFA_XSP16, literal(-12)))
          CFI V7 load(1, XDATA, add(CFA_XSP16, literal(-11)))
          CFI V8 load(1, XDATA, add(CFA_XSP16, literal(-10)))
          CFI V9 load(1, XDATA, add(CFA_XSP16, literal(-9)))
          CFI V10 load(1, XDATA, add(CFA_XSP16, literal(-8)))
          CFI V11 load(1, XDATA, add(CFA_XSP16, literal(-7)))
          CFI R7 load(1, XDATA, add(CFA_XSP16, literal(-6)))
          CFI ?RET_LOW load(1, XDATA, add(CFA_XSP16, literal(-5)))
          CFI ?RET_HIGH load(1, XDATA, add(CFA_XSP16, literal(-4)))
          CFI ?BRET_EXT load(1, XDATA, add(CFA_XSP16, literal(-3)))
          CFI DPL0 load(1, XDATA, add(CFA_XSP16, literal(-2)))
          CFI DPH0 load(1, XDATA, add(CFA_XSP16, literal(-1)))
          CFI CFA_SP SP+-2
          CFI CFA_XSP16 add(XSP16, 34)
          CFI Block cfiCond51 Using cfiCommon0
          CFI (cfiCond51) Function MT_AfDataRequestSrcRtg
          CFI (cfiCond51) Conditional ??CrossCallReturnLabel_39
          CFI (cfiCond51) R6 load(1, XDATA, add(CFA_XSP16, literal(-20)))
          CFI (cfiCond51) VB load(1, XDATA, add(CFA_XSP16, literal(-19)))
          CFI (cfiCond51) V0 load(1, XDATA, add(CFA_XSP16, literal(-18)))
          CFI (cfiCond51) V1 load(1, XDATA, add(CFA_XSP16, literal(-17)))
          CFI (cfiCond51) V2 load(1, XDATA, add(CFA_XSP16, literal(-16)))
          CFI (cfiCond51) V3 load(1, XDATA, add(CFA_XSP16, literal(-15)))
          CFI (cfiCond51) V4 load(1, XDATA, add(CFA_XSP16, literal(-14)))
          CFI (cfiCond51) V5 load(1, XDATA, add(CFA_XSP16, literal(-13)))
          CFI (cfiCond51) V6 load(1, XDATA, add(CFA_XSP16, literal(-12)))
          CFI (cfiCond51) V7 load(1, XDATA, add(CFA_XSP16, literal(-11)))
          CFI (cfiCond51) V8 load(1, XDATA, add(CFA_XSP16, literal(-10)))
          CFI (cfiCond51) V9 load(1, XDATA, add(CFA_XSP16, literal(-9)))
          CFI (cfiCond51) V10 load(1, XDATA, add(CFA_XSP16, literal(-8)))
          CFI (cfiCond51) V11 load(1, XDATA, add(CFA_XSP16, literal(-7)))
          CFI (cfiCond51) R7 load(1, XDATA, add(CFA_XSP16, literal(-6)))
          CFI (cfiCond51) ?RET_LOW load(1, XDATA, add(CFA_XSP16, literal(-5)))
          CFI (cfiCond51) ?RET_HIGH load(1, XDATA, add(CFA_XSP16, literal(-4)))
          CFI (cfiCond51) ?BRET_EXT load(1, XDATA, add(CFA_XSP16, literal(-3)))
          CFI (cfiCond51) DPL0 load(1, XDATA, add(CFA_XSP16, literal(-2)))
          CFI (cfiCond51) DPH0 load(1, XDATA, add(CFA_XSP16, literal(-1)))
          CFI (cfiCond51) CFA_SP SP+-2
          CFI (cfiCond51) CFA_XSP16 add(XSP16, 34)
          CFI Block cfiPicker52 Using cfiCommon1
          CFI (cfiPicker52) NoFunction
          CFI (cfiPicker52) Picker
        LCALL   ?Subroutine34 & 0xFFFF
??CrossCallReturnLabel_80:
        INC     DPTR
        INC     DPTR
        MOVX    A,@DPTR
        RET
          CFI EndBlock cfiCond50
          CFI EndBlock cfiCond51
          CFI EndBlock cfiPicker52

        RSEG BANKED_CODE:CODE:NOROOT(0)
?Subroutine12:
          CFI Block cfiCond53 Using cfiCommon0
          CFI Function MT_AfDataRequest
          CFI Conditional ??CrossCallReturnLabel_16
          CFI R6 load(1, XDATA, add(CFA_XSP16, literal(-21)))
          CFI VB load(1, XDATA, add(CFA_XSP16, literal(-20)))
          CFI V0 load(1, XDATA, add(CFA_XSP16, literal(-19)))
          CFI V1 load(1, XDATA, add(CFA_XSP16, literal(-18)))
          CFI V2 load(1, XDATA, add(CFA_XSP16, literal(-17)))
          CFI V3 load(1, XDATA, add(CFA_XSP16, literal(-16)))
          CFI V4 load(1, XDATA, add(CFA_XSP16, literal(-15)))
          CFI V5 load(1, XDATA, add(CFA_XSP16, literal(-14)))
          CFI V6 load(1, XDATA, add(CFA_XSP16, literal(-13)))
          CFI V7 load(1, XDATA, add(CFA_XSP16, literal(-12)))
          CFI V8 load(1, XDATA, add(CFA_XSP16, literal(-11)))
          CFI V9 load(1, XDATA, add(CFA_XSP16, literal(-10)))
          CFI V10 load(1, XDATA, add(CFA_XSP16, literal(-9)))
          CFI V11 load(1, XDATA, add(CFA_XSP16, literal(-8)))
          CFI V12 load(1, XDATA, add(CFA_XSP16, literal(-7)))
          CFI R7 load(1, XDATA, add(CFA_XSP16, literal(-6)))
          CFI ?RET_LOW load(1, XDATA, add(CFA_XSP16, literal(-5)))
          CFI ?RET_HIGH load(1, XDATA, add(CFA_XSP16, literal(-4)))
          CFI ?BRET_EXT load(1, XDATA, add(CFA_XSP16, literal(-3)))
          CFI DPL0 load(1, XDATA, add(CFA_XSP16, literal(-2)))
          CFI DPH0 load(1, XDATA, add(CFA_XSP16, literal(-1)))
          CFI CFA_SP SP+-2
          CFI CFA_XSP16 add(XSP16, 35)
          CFI Block cfiCond54 Using cfiCommon0
          CFI (cfiCond54) Function MT_AfDataRequestSrcRtg
          CFI (cfiCond54) Conditional ??CrossCallReturnLabel_17
          CFI (cfiCond54) R6 load(1, XDATA, add(CFA_XSP16, literal(-20)))
          CFI (cfiCond54) VB load(1, XDATA, add(CFA_XSP16, literal(-19)))
          CFI (cfiCond54) V0 load(1, XDATA, add(CFA_XSP16, literal(-18)))
          CFI (cfiCond54) V1 load(1, XDATA, add(CFA_XSP16, literal(-17)))
          CFI (cfiCond54) V2 load(1, XDATA, add(CFA_XSP16, literal(-16)))
          CFI (cfiCond54) V3 load(1, XDATA, add(CFA_XSP16, literal(-15)))
          CFI (cfiCond54) V4 load(1, XDATA, add(CFA_XSP16, literal(-14)))
          CFI (cfiCond54) V5 load(1, XDATA, add(CFA_XSP16, literal(-13)))
          CFI (cfiCond54) V6 load(1, XDATA, add(CFA_XSP16, literal(-12)))
          CFI (cfiCond54) V7 load(1, XDATA, add(CFA_XSP16, literal(-11)))
          CFI (cfiCond54) V8 load(1, XDATA, add(CFA_XSP16, literal(-10)))
          CFI (cfiCond54) V9 load(1, XDATA, add(CFA_XSP16, literal(-9)))
          CFI (cfiCond54) V10 load(1, XDATA, add(CFA_XSP16, literal(-8)))
          CFI (cfiCond54) V11 load(1, XDATA, add(CFA_XSP16, literal(-7)))
          CFI (cfiCond54) R7 load(1, XDATA, add(CFA_XSP16, literal(-6)))
          CFI (cfiCond54) ?RET_LOW load(1, XDATA, add(CFA_XSP16, literal(-5)))
          CFI (cfiCond54) ?RET_HIGH load(1, XDATA, add(CFA_XSP16, literal(-4)))
          CFI (cfiCond54) ?BRET_EXT load(1, XDATA, add(CFA_XSP16, literal(-3)))
          CFI (cfiCond54) DPL0 load(1, XDATA, add(CFA_XSP16, literal(-2)))
          CFI (cfiCond54) DPH0 load(1, XDATA, add(CFA_XSP16, literal(-1)))
          CFI (cfiCond54) CFA_SP SP+-2
          CFI (cfiCond54) CFA_XSP16 add(XSP16, 34)
          CFI Block cfiPicker55 Using cfiCommon1
          CFI (cfiPicker55) NoFunction
          CFI (cfiPicker55) Picker
        INC     DPTR
        INC     DPTR
        INC     DPTR
        MOVX    A,@DPTR
        MOV     ?V8,A
        MOV     DPL,R6
        MOV     DPH,R7
        INC     DPTR
        INC     DPTR
        INC     DPTR
        INC     DPTR
        RET
          CFI EndBlock cfiCond53
          CFI EndBlock cfiCond54
          CFI EndBlock cfiPicker55
//  560 #endif
//  561 
//  562 #if defined INTER_PAN
//  563 /***************************************************************************************************
//  564  * @fn      MT_AfInterPanCtl
//  565  *
//  566  * @brief   Process the AF Inter Pan control command.
//  567  *
//  568  * @param   pBuf - pointer to the received buffer
//  569  *
//  570  * @return  none
//  571  ***************************************************************************************************/
//  572 static void MT_AfInterPanCtl(uint8 *pBuf)
//  573 {
//  574   uint8 cmd, rtrn;
//  575   uint16 panId;
//  576   endPointDesc_t *pEP;
//  577 
//  578   cmd = pBuf[MT_RPC_POS_CMD1];
//  579   pBuf += MT_RPC_FRAME_HDR_SZ;
//  580 
//  581   switch (*pBuf++)  // Inter-pan request parameter.
//  582   {
//  583   case InterPanClr:
//  584     rtrn = StubAPS_SetIntraPanChannel();           // Switch channel back to the NIB channel.
//  585     break;
//  586 
//  587   case InterPanSet:
//  588     rtrn = StubAPS_SetInterPanChannel(*pBuf);      // Set channel for inter-pan communication.
//  589     break;
//  590 
//  591   case InterPanReg:
//  592     if ((pEP = afFindEndPointDesc(*pBuf)))
//  593     {
//  594       StubAPS_RegisterApp(pEP);
//  595       rtrn = SUCCESS;
//  596     }
//  597     else
//  598     {
//  599       rtrn = FAILURE;
//  600     }
//  601     break;
//  602 
//  603   case InterPanChk:
//  604     panId = osal_build_uint16( pBuf );
//  605     rtrn = (StubAPS_InterPan(panId, pBuf[2])) ? ZSuccess : ZFailure;
//  606     break;
//  607 
//  608   default:
//  609     rtrn = afStatus_INVALID_PARAMETER;
//  610     break;
//  611   }
//  612 
//  613   MT_BuildAndSendZToolResponse(((uint8)MT_RPC_CMD_SRSP | (uint8)MT_RPC_SYS_AF), cmd, 1, &rtrn);
//  614 }
//  615 #endif
//  616 
//  617 /***************************************************************************************************
//  618  * @fn      MT_AfDataConfirm
//  619  *
//  620  * @brief   Process
//  621  *
//  622  * @param   pBuf - pointer to the received buffer
//  623  *
//  624  * @return  none
//  625  ***************************************************************************************************/

        RSEG BANKED_CODE:CODE:NOROOT(0)
//  626 void MT_AfDataConfirm(afDataConfirm_t *pMsg)
MT_AfDataConfirm:
          CFI Block cfiBlock56 Using cfiCommon0
          CFI Function MT_AfDataConfirm
        CODE
//  627 {
        FUNCALL MT_AfDataConfirm, MT_BuildAndSendZToolResponse
        LOCFRAME ISTACK, 2, STACK
        LOCFRAME PSTACK, 0, STACK
        LOCFRAME XSTACK, 3, STACK
        LOCFRAME IOVERLAY, 0, STATIC
        LOCFRAME DOVERLAY, 0, STATIC
        ARGFRAME ISTACK, 2, STACK
        ARGFRAME PSTACK, 0, STACK
        ARGFRAME XSTACK, 3, STACK
        ARGFRAME IOVERLAY, 0, STATIC
        ARGFRAME DOVERLAY, 0, STATIC
        PUSH    DPL
          CFI DPL0 Frame(CFA_SP, 4)
          CFI CFA_SP SP+-4
        PUSH    DPH
          CFI DPH0 Frame(CFA_SP, 5)
          CFI CFA_SP SP+-5
        ; Saved register size: 2
        ; Auto size: 3
        MOV     A,#-0x3
        LCALL   ?ALLOC_XSTACK8
          CFI CFA_XSP16 add(XSP16, 3)
//  628   uint8 retArray[3];
//  629 
//  630   retArray[0] = pMsg->hdr.status;
        LCALL   ?Subroutine3 & 0xFFFF
//  631   retArray[1] = pMsg->endpoint;
??CrossCallReturnLabel_0:
        PUSH    A
          CFI CFA_SP SP+-6
        MOV     A,#0x1
        LCALL   ?XSTACK_DISP0_8
        POP     A
          CFI CFA_SP SP+-5
        LCALL   ?Subroutine27 & 0xFFFF
//  632   retArray[2] = pMsg->transID;
??CrossCallReturnLabel_40:
        PUSH    A
          CFI CFA_SP SP+-6
        MOV     A,#0x2
        LCALL   ?XSTACK_DISP0_8
        POP     A
          CFI CFA_SP SP+-5
        MOVX    @DPTR,A
//  633 
//  634   /* Build and send back the response */
//  635   MT_BuildAndSendZToolResponse(((uint8)MT_RPC_CMD_AREQ | (uint8)MT_RPC_SYS_AF), MT_AF_DATA_CONFIRM, 3, retArray);
        ; Setup parameters for call to function MT_BuildAndSendZToolResponse
        MOV     R4,?XSP + 0
        MOV     R5,?XSP + 1
        MOV     R3,#0x3
        MOV     R2,#-0x80
        MOV     R1,#0x44
        LCALL   `??MT_BuildAndSendZToolResponse::?relay`; Banked call to: MT_BuildAndSendZToolResponse
//  636 }
        MOV     A,#0x3
          CFI EndBlock cfiBlock56
        REQUIRE ?Subroutine1
        ; // Fall through to label ?Subroutine1

        RSEG BANKED_CODE:CODE:NOROOT(0)
?Subroutine1:
          CFI Block cfiBlock57 Using cfiCommon0
          CFI NoFunction
          CFI CFA_SP SP+-5
          CFI CFA_XSP16 add(XSP16, 3)
          CFI DPL0 Frame(CFA_SP, 4)
          CFI DPH0 Frame(CFA_SP, 5)
          CFI Invalid
        LCALL   ?DEALLOC_XSTACK8
          CFI CFA_XSP16 XSP16+0
          CFI Valid
        POP     DPH
          CFI CFA_SP SP+-4
          CFI DPH0 SameValue
        POP     DPL
          CFI CFA_SP SP+-3
          CFI DPL0 SameValue
        LJMP    ?BRET
          CFI EndBlock cfiBlock57
//  637 
//  638 /***************************************************************************************************
//  639  * @fn      MT_AfReflectError
//  640  *
//  641  * @brief   Process
//  642  *
//  643  * @param   pBuf - pointer to the received buffer
//  644  *
//  645  * @return  none
//  646  ***************************************************************************************************/

        RSEG BANKED_CODE:CODE:NOROOT(0)
//  647 void MT_AfReflectError(afReflectError_t *pMsg)
MT_AfReflectError:
          CFI Block cfiBlock58 Using cfiCommon0
          CFI Function MT_AfReflectError
        CODE
//  648 {
        FUNCALL MT_AfReflectError, MT_BuildAndSendZToolResponse
        LOCFRAME ISTACK, 2, STACK
        LOCFRAME PSTACK, 0, STACK
        LOCFRAME XSTACK, 6, STACK
        LOCFRAME IOVERLAY, 0, STATIC
        LOCFRAME DOVERLAY, 0, STATIC
        ARGFRAME ISTACK, 2, STACK
        ARGFRAME PSTACK, 0, STACK
        ARGFRAME XSTACK, 6, STACK
        ARGFRAME IOVERLAY, 0, STATIC
        ARGFRAME DOVERLAY, 0, STATIC
        PUSH    DPL
          CFI DPL0 Frame(CFA_SP, 4)
          CFI CFA_SP SP+-4
        PUSH    DPH
          CFI DPH0 Frame(CFA_SP, 5)
          CFI CFA_SP SP+-5
        ; Saved register size: 2
        ; Auto size: 6
        MOV     A,#-0x6
        LCALL   ?ALLOC_XSTACK8
          CFI CFA_XSP16 add(XSP16, 6)
//  649   uint8 retArray[6];
//  650 
//  651   retArray[0] = pMsg->hdr.status;
        LCALL   ?Subroutine3 & 0xFFFF
//  652   retArray[1] = pMsg->endpoint;
??CrossCallReturnLabel_1:
        PUSH    A
          CFI CFA_SP SP+-6
        MOV     A,#0x1
        LCALL   ?XSTACK_DISP0_8
        POP     A
          CFI CFA_SP SP+-5
        LCALL   ?Subroutine27 & 0xFFFF
//  653   retArray[2] = pMsg->transID;
??CrossCallReturnLabel_41:
        PUSH    A
          CFI CFA_SP SP+-6
        MOV     A,#0x2
        LCALL   ?XSTACK_DISP0_8
        POP     A
          CFI CFA_SP SP+-5
        LCALL   ?Subroutine25 & 0xFFFF
//  654   retArray[3] = pMsg->dstAddrMode;
??CrossCallReturnLabel_37:
        MOVX    A,@DPTR
        PUSH    A
          CFI CFA_SP SP+-6
        MOV     A,#0x3
        LCALL   ?XSTACK_DISP0_8
        POP     A
          CFI CFA_SP SP+-5
        MOVX    @DPTR,A
//  655   retArray[4] = LO_UINT16( pMsg->dstAddr );
        MOV     A,R2
        ADD     A,#0x5
        MOV     R0,A
        CLR     A
        ADDC    A,R3
        MOV     R1,A
        MOV     DPL,R0
        MOV     DPH,R1
        MOVX    A,@DPTR
        PUSH    A
          CFI CFA_SP SP+-6
        MOV     A,#0x4
        LCALL   ?XSTACK_DISP0_8
        POP     A
          CFI CFA_SP SP+-5
        LCALL   ??Subroutine44_0 & 0xFFFF
//  656   retArray[5] = HI_UINT16( pMsg->dstAddr );
??CrossCallReturnLabel_90:
        INC     DPTR
        MOVX    A,@DPTR
        PUSH    A
          CFI CFA_SP SP+-6
        MOV     A,#0x5
        LCALL   ?XSTACK_DISP0_8
        POP     A
          CFI CFA_SP SP+-5
        MOVX    @DPTR,A
//  657 
//  658   /* Build and send back the response */
//  659   MT_BuildAndSendZToolResponse(((uint8)MT_RPC_CMD_AREQ | (uint8)MT_RPC_SYS_AF), MT_AF_REFLECT_ERROR, 6, retArray);
        ; Setup parameters for call to function MT_BuildAndSendZToolResponse
        MOV     R4,?XSP + 0
        MOV     R5,?XSP + 1
        MOV     R3,#0x6
        MOV     R2,#-0x7d
        MOV     R1,#0x44
        LCALL   `??MT_BuildAndSendZToolResponse::?relay`; Banked call to: MT_BuildAndSendZToolResponse
//  660 }
        MOV     A,#0x6
        SJMP    ?Subroutine1
          CFI EndBlock cfiBlock58

        RSEG BANKED_CODE:CODE:NOROOT(0)
?Subroutine27:
          CFI Block cfiCond59 Using cfiCommon0
          CFI Function MT_AfDataConfirm
          CFI Conditional ??CrossCallReturnLabel_40
          CFI DPL0 Frame(CFA_SP, 4)
          CFI DPH0 Frame(CFA_SP, 5)
          CFI CFA_SP SP+-7
          CFI CFA_XSP16 add(XSP16, 3)
          CFI Block cfiCond60 Using cfiCommon0
          CFI (cfiCond60) Function MT_AfReflectError
          CFI (cfiCond60) Conditional ??CrossCallReturnLabel_41
          CFI (cfiCond60) DPL0 Frame(CFA_SP, 4)
          CFI (cfiCond60) DPH0 Frame(CFA_SP, 5)
          CFI (cfiCond60) CFA_SP SP+-7
          CFI (cfiCond60) CFA_XSP16 add(XSP16, 6)
          CFI Block cfiPicker61 Using cfiCommon1
          CFI (cfiPicker61) NoFunction
          CFI (cfiPicker61) Picker
        LCALL   ?Subroutine36 & 0xFFFF
??CrossCallReturnLabel_56:
        MOVX    A,@DPTR
        RET
          CFI EndBlock cfiCond59
          CFI EndBlock cfiCond60
          CFI EndBlock cfiPicker61

        RSEG BANKED_CODE:CODE:NOROOT(0)
?Subroutine25:
          CFI Block cfiCond62 Using cfiCommon0
          CFI Function MT_AfCommandProcessing
          CFI Conditional ??CrossCallReturnLabel_36
          CFI R6 load(1, XDATA, add(CFA_XSP16, literal(-14)))
          CFI VB load(1, XDATA, add(CFA_XSP16, literal(-13)))
          CFI V0 load(1, XDATA, add(CFA_XSP16, literal(-12)))
          CFI V1 load(1, XDATA, add(CFA_XSP16, literal(-11)))
          CFI V2 load(1, XDATA, add(CFA_XSP16, literal(-10)))
          CFI V3 load(1, XDATA, add(CFA_XSP16, literal(-9)))
          CFI V4 load(1, XDATA, add(CFA_XSP16, literal(-8)))
          CFI V5 load(1, XDATA, add(CFA_XSP16, literal(-7)))
          CFI R7 load(1, XDATA, add(CFA_XSP16, literal(-6)))
          CFI ?RET_LOW load(1, XDATA, add(CFA_XSP16, literal(-5)))
          CFI ?RET_HIGH load(1, XDATA, add(CFA_XSP16, literal(-4)))
          CFI ?BRET_EXT load(1, XDATA, add(CFA_XSP16, literal(-3)))
          CFI DPL0 load(1, XDATA, add(CFA_XSP16, literal(-2)))
          CFI DPH0 load(1, XDATA, add(CFA_XSP16, literal(-1)))
          CFI CFA_SP SP+-2
          CFI CFA_XSP16 add(XSP16, 19)
          CFI Block cfiCond63 Using cfiCommon0
          CFI (cfiCond63) Function MT_AfReflectError
          CFI (cfiCond63) Conditional ??CrossCallReturnLabel_37
          CFI (cfiCond63) DPL0 Frame(CFA_SP, 4)
          CFI (cfiCond63) DPH0 Frame(CFA_SP, 5)
          CFI (cfiCond63) CFA_SP SP+-7
          CFI (cfiCond63) CFA_XSP16 add(XSP16, 6)
          CFI Block cfiPicker64 Using cfiCommon1
          CFI (cfiPicker64) NoFunction
          CFI (cfiPicker64) Picker
        LCALL   ?Subroutine36 & 0xFFFF
??CrossCallReturnLabel_57:
        INC     DPTR
        RET
          CFI EndBlock cfiCond62
          CFI EndBlock cfiCond63
          CFI EndBlock cfiPicker64

        RSEG BANKED_CODE:CODE:NOROOT(0)
?Subroutine36:
          CFI Block cfiCond65 Using cfiCommon0
          CFI Function MT_AfDataConfirm
          CFI Conditional ??CrossCallReturnLabel_56, ??CrossCallReturnLabel_40
          CFI DPL0 Frame(CFA_SP, 4)
          CFI DPH0 Frame(CFA_SP, 5)
          CFI CFA_SP SP+-9
          CFI CFA_XSP16 add(XSP16, 3)
          CFI Block cfiCond66 Using cfiCommon0
          CFI (cfiCond66) Function MT_AfReflectError
          CFI (cfiCond66) Conditional ??CrossCallReturnLabel_56, ??CrossCallReturnLabel_41
          CFI (cfiCond66) DPL0 Frame(CFA_SP, 4)
          CFI (cfiCond66) DPH0 Frame(CFA_SP, 5)
          CFI (cfiCond66) CFA_SP SP+-9
          CFI (cfiCond66) CFA_XSP16 add(XSP16, 6)
          CFI Block cfiCond67 Using cfiCommon0
          CFI (cfiCond67) Function MT_AfCommandProcessing
          CFI (cfiCond67) Conditional ??CrossCallReturnLabel_57, ??CrossCallReturnLabel_36
          CFI (cfiCond67) R6 load(1, XDATA, add(CFA_XSP16, literal(-14)))
          CFI (cfiCond67) VB load(1, XDATA, add(CFA_XSP16, literal(-13)))
          CFI (cfiCond67) V0 load(1, XDATA, add(CFA_XSP16, literal(-12)))
          CFI (cfiCond67) V1 load(1, XDATA, add(CFA_XSP16, literal(-11)))
          CFI (cfiCond67) V2 load(1, XDATA, add(CFA_XSP16, literal(-10)))
          CFI (cfiCond67) V3 load(1, XDATA, add(CFA_XSP16, literal(-9)))
          CFI (cfiCond67) V4 load(1, XDATA, add(CFA_XSP16, literal(-8)))
          CFI (cfiCond67) V5 load(1, XDATA, add(CFA_XSP16, literal(-7)))
          CFI (cfiCond67) R7 load(1, XDATA, add(CFA_XSP16, literal(-6)))
          CFI (cfiCond67) ?RET_LOW load(1, XDATA, add(CFA_XSP16, literal(-5)))
          CFI (cfiCond67) ?RET_HIGH load(1, XDATA, add(CFA_XSP16, literal(-4)))
          CFI (cfiCond67) ?BRET_EXT load(1, XDATA, add(CFA_XSP16, literal(-3)))
          CFI (cfiCond67) DPL0 load(1, XDATA, add(CFA_XSP16, literal(-2)))
          CFI (cfiCond67) DPH0 load(1, XDATA, add(CFA_XSP16, literal(-1)))
          CFI (cfiCond67) CFA_SP SP+-4
          CFI (cfiCond67) CFA_XSP16 add(XSP16, 19)
          CFI Block cfiCond68 Using cfiCommon0
          CFI (cfiCond68) Function MT_AfReflectError
          CFI (cfiCond68) Conditional ??CrossCallReturnLabel_57, ??CrossCallReturnLabel_37
          CFI (cfiCond68) DPL0 Frame(CFA_SP, 4)
          CFI (cfiCond68) DPH0 Frame(CFA_SP, 5)
          CFI (cfiCond68) CFA_SP SP+-9
          CFI (cfiCond68) CFA_XSP16 add(XSP16, 6)
          CFI Block cfiPicker69 Using cfiCommon1
          CFI (cfiPicker69) NoFunction
          CFI (cfiPicker69) Picker
        LCALL   ?Subroutine40 & 0xFFFF
??CrossCallReturnLabel_68:
        INC     DPTR
        INC     DPTR
        INC     DPTR
        RET
          CFI EndBlock cfiCond65
          CFI EndBlock cfiCond66
          CFI EndBlock cfiCond67
          CFI EndBlock cfiCond68
          CFI EndBlock cfiPicker69

        RSEG BANKED_CODE:CODE:NOROOT(0)
?Subroutine3:
          CFI Block cfiCond70 Using cfiCommon0
          CFI Function MT_AfDataConfirm
          CFI Conditional ??CrossCallReturnLabel_0
          CFI DPL0 Frame(CFA_SP, 4)
          CFI DPH0 Frame(CFA_SP, 5)
          CFI CFA_SP SP+-7
          CFI CFA_XSP16 add(XSP16, 3)
          CFI Block cfiCond71 Using cfiCommon0
          CFI (cfiCond71) Function MT_AfReflectError
          CFI (cfiCond71) Conditional ??CrossCallReturnLabel_1
          CFI (cfiCond71) DPL0 Frame(CFA_SP, 4)
          CFI (cfiCond71) DPH0 Frame(CFA_SP, 5)
          CFI (cfiCond71) CFA_SP SP+-7
          CFI (cfiCond71) CFA_XSP16 add(XSP16, 6)
          CFI Block cfiPicker72 Using cfiCommon1
          CFI (cfiPicker72) NoFunction
          CFI (cfiPicker72) Picker
        MOV     DPL,R2
        MOV     DPH,R3
        INC     DPTR
        MOVX    A,@DPTR
        MOV     DPL,?XSP + 0
        MOV     DPH,?XSP + 1
        LCALL   ?Subroutine40 & 0xFFFF
??CrossCallReturnLabel_69:
        INC     DPTR
        INC     DPTR
        MOVX    A,@DPTR
        RET
          CFI EndBlock cfiCond70
          CFI EndBlock cfiCond71
          CFI EndBlock cfiPicker72

        RSEG BANKED_CODE:CODE:NOROOT(0)
?Subroutine40:
          CFI Block cfiCond73 Using cfiCommon0
          CFI Function MT_AfDataConfirm
          CFI Conditional ??CrossCallReturnLabel_68, ??CrossCallReturnLabel_56, ??CrossCallReturnLabel_40
          CFI DPL0 Frame(CFA_SP, 4)
          CFI DPH0 Frame(CFA_SP, 5)
          CFI CFA_SP SP+-11
          CFI CFA_XSP16 add(XSP16, 3)
          CFI Block cfiCond74 Using cfiCommon0
          CFI (cfiCond74) Function MT_AfReflectError
          CFI (cfiCond74) Conditional ??CrossCallReturnLabel_68, ??CrossCallReturnLabel_56, ??CrossCallReturnLabel_41
          CFI (cfiCond74) DPL0 Frame(CFA_SP, 4)
          CFI (cfiCond74) DPH0 Frame(CFA_SP, 5)
          CFI (cfiCond74) CFA_SP SP+-11
          CFI (cfiCond74) CFA_XSP16 add(XSP16, 6)
          CFI Block cfiCond75 Using cfiCommon0
          CFI (cfiCond75) Function MT_AfCommandProcessing
          CFI (cfiCond75) Conditional ??CrossCallReturnLabel_68, ??CrossCallReturnLabel_57, ??CrossCallReturnLabel_36
          CFI (cfiCond75) R6 load(1, XDATA, add(CFA_XSP16, literal(-14)))
          CFI (cfiCond75) VB load(1, XDATA, add(CFA_XSP16, literal(-13)))
          CFI (cfiCond75) V0 load(1, XDATA, add(CFA_XSP16, literal(-12)))
          CFI (cfiCond75) V1 load(1, XDATA, add(CFA_XSP16, literal(-11)))
          CFI (cfiCond75) V2 load(1, XDATA, add(CFA_XSP16, literal(-10)))
          CFI (cfiCond75) V3 load(1, XDATA, add(CFA_XSP16, literal(-9)))
          CFI (cfiCond75) V4 load(1, XDATA, add(CFA_XSP16, literal(-8)))
          CFI (cfiCond75) V5 load(1, XDATA, add(CFA_XSP16, literal(-7)))
          CFI (cfiCond75) R7 load(1, XDATA, add(CFA_XSP16, literal(-6)))
          CFI (cfiCond75) ?RET_LOW load(1, XDATA, add(CFA_XSP16, literal(-5)))
          CFI (cfiCond75) ?RET_HIGH load(1, XDATA, add(CFA_XSP16, literal(-4)))
          CFI (cfiCond75) ?BRET_EXT load(1, XDATA, add(CFA_XSP16, literal(-3)))
          CFI (cfiCond75) DPL0 load(1, XDATA, add(CFA_XSP16, literal(-2)))
          CFI (cfiCond75) DPH0 load(1, XDATA, add(CFA_XSP16, literal(-1)))
          CFI (cfiCond75) CFA_SP SP+-6
          CFI (cfiCond75) CFA_XSP16 add(XSP16, 19)
          CFI Block cfiCond76 Using cfiCommon0
          CFI (cfiCond76) Function MT_AfReflectError
          CFI (cfiCond76) Conditional ??CrossCallReturnLabel_68, ??CrossCallReturnLabel_57, ??CrossCallReturnLabel_37
          CFI (cfiCond76) DPL0 Frame(CFA_SP, 4)
          CFI (cfiCond76) DPH0 Frame(CFA_SP, 5)
          CFI (cfiCond76) CFA_SP SP+-11
          CFI (cfiCond76) CFA_XSP16 add(XSP16, 6)
          CFI Block cfiCond77 Using cfiCommon0
          CFI (cfiCond77) Function MT_AfDataConfirm
          CFI (cfiCond77) Conditional ??CrossCallReturnLabel_69, ??CrossCallReturnLabel_0
          CFI (cfiCond77) DPL0 Frame(CFA_SP, 4)
          CFI (cfiCond77) DPH0 Frame(CFA_SP, 5)
          CFI (cfiCond77) CFA_SP SP+-9
          CFI (cfiCond77) CFA_XSP16 add(XSP16, 3)
          CFI Block cfiCond78 Using cfiCommon0
          CFI (cfiCond78) Function MT_AfReflectError
          CFI (cfiCond78) Conditional ??CrossCallReturnLabel_69, ??CrossCallReturnLabel_1
          CFI (cfiCond78) DPL0 Frame(CFA_SP, 4)
          CFI (cfiCond78) DPH0 Frame(CFA_SP, 5)
          CFI (cfiCond78) CFA_SP SP+-9
          CFI (cfiCond78) CFA_XSP16 add(XSP16, 6)
          CFI Block cfiCond79 Using cfiCommon0
          CFI (cfiCond79) Function MT_AfIncomingMsg
          CFI (cfiCond79) Conditional ??CrossCallReturnLabel_70
          CFI (cfiCond79) R6 load(1, XDATA, add(CFA_XSP16, literal(-24)))
          CFI (cfiCond79) VB load(1, XDATA, add(CFA_XSP16, literal(-23)))
          CFI (cfiCond79) V0 load(1, XDATA, add(CFA_XSP16, literal(-22)))
          CFI (cfiCond79) V1 load(1, XDATA, add(CFA_XSP16, literal(-21)))
          CFI (cfiCond79) V2 load(1, XDATA, add(CFA_XSP16, literal(-20)))
          CFI (cfiCond79) V3 load(1, XDATA, add(CFA_XSP16, literal(-19)))
          CFI (cfiCond79) V4 load(1, XDATA, add(CFA_XSP16, literal(-18)))
          CFI (cfiCond79) V5 load(1, XDATA, add(CFA_XSP16, literal(-17)))
          CFI (cfiCond79) V6 load(1, XDATA, add(CFA_XSP16, literal(-16)))
          CFI (cfiCond79) V7 load(1, XDATA, add(CFA_XSP16, literal(-15)))
          CFI (cfiCond79) V8 load(1, XDATA, add(CFA_XSP16, literal(-14)))
          CFI (cfiCond79) V9 load(1, XDATA, add(CFA_XSP16, literal(-13)))
          CFI (cfiCond79) V10 load(1, XDATA, add(CFA_XSP16, literal(-12)))
          CFI (cfiCond79) V11 load(1, XDATA, add(CFA_XSP16, literal(-11)))
          CFI (cfiCond79) V12 load(1, XDATA, add(CFA_XSP16, literal(-10)))
          CFI (cfiCond79) V13 load(1, XDATA, add(CFA_XSP16, literal(-9)))
          CFI (cfiCond79) V14 load(1, XDATA, add(CFA_XSP16, literal(-8)))
          CFI (cfiCond79) V15 load(1, XDATA, add(CFA_XSP16, literal(-7)))
          CFI (cfiCond79) R7 load(1, XDATA, add(CFA_XSP16, literal(-6)))
          CFI (cfiCond79) ?RET_LOW load(1, XDATA, add(CFA_XSP16, literal(-5)))
          CFI (cfiCond79) ?RET_HIGH load(1, XDATA, add(CFA_XSP16, literal(-4)))
          CFI (cfiCond79) ?BRET_EXT load(1, XDATA, add(CFA_XSP16, literal(-3)))
          CFI (cfiCond79) DPL0 load(1, XDATA, add(CFA_XSP16, literal(-2)))
          CFI (cfiCond79) DPH0 load(1, XDATA, add(CFA_XSP16, literal(-1)))
          CFI (cfiCond79) CFA_SP SP+-2
          CFI (cfiCond79) CFA_XSP16 add(XSP16, 25)
          CFI Block cfiCond80 Using cfiCommon0
          CFI (cfiCond80) Function MT_AfIncomingMsg
          CFI (cfiCond80) Conditional ??CrossCallReturnLabel_71
          CFI (cfiCond80) R6 load(1, XDATA, add(CFA_XSP16, literal(-24)))
          CFI (cfiCond80) VB load(1, XDATA, add(CFA_XSP16, literal(-23)))
          CFI (cfiCond80) V0 load(1, XDATA, add(CFA_XSP16, literal(-22)))
          CFI (cfiCond80) V1 load(1, XDATA, add(CFA_XSP16, literal(-21)))
          CFI (cfiCond80) V2 load(1, XDATA, add(CFA_XSP16, literal(-20)))
          CFI (cfiCond80) V3 load(1, XDATA, add(CFA_XSP16, literal(-19)))
          CFI (cfiCond80) V4 load(1, XDATA, add(CFA_XSP16, literal(-18)))
          CFI (cfiCond80) V5 load(1, XDATA, add(CFA_XSP16, literal(-17)))
          CFI (cfiCond80) V6 load(1, XDATA, add(CFA_XSP16, literal(-16)))
          CFI (cfiCond80) V7 load(1, XDATA, add(CFA_XSP16, literal(-15)))
          CFI (cfiCond80) V8 load(1, XDATA, add(CFA_XSP16, literal(-14)))
          CFI (cfiCond80) V9 load(1, XDATA, add(CFA_XSP16, literal(-13)))
          CFI (cfiCond80) V10 load(1, XDATA, add(CFA_XSP16, literal(-12)))
          CFI (cfiCond80) V11 load(1, XDATA, add(CFA_XSP16, literal(-11)))
          CFI (cfiCond80) V12 load(1, XDATA, add(CFA_XSP16, literal(-10)))
          CFI (cfiCond80) V13 load(1, XDATA, add(CFA_XSP16, literal(-9)))
          CFI (cfiCond80) V14 load(1, XDATA, add(CFA_XSP16, literal(-8)))
          CFI (cfiCond80) V15 load(1, XDATA, add(CFA_XSP16, literal(-7)))
          CFI (cfiCond80) R7 load(1, XDATA, add(CFA_XSP16, literal(-6)))
          CFI (cfiCond80) ?RET_LOW load(1, XDATA, add(CFA_XSP16, literal(-5)))
          CFI (cfiCond80) ?RET_HIGH load(1, XDATA, add(CFA_XSP16, literal(-4)))
          CFI (cfiCond80) ?BRET_EXT load(1, XDATA, add(CFA_XSP16, literal(-3)))
          CFI (cfiCond80) DPL0 load(1, XDATA, add(CFA_XSP16, literal(-2)))
          CFI (cfiCond80) DPH0 load(1, XDATA, add(CFA_XSP16, literal(-1)))
          CFI (cfiCond80) CFA_SP SP+-2
          CFI (cfiCond80) CFA_XSP16 add(XSP16, 25)
          CFI Block cfiPicker81 Using cfiCommon1
          CFI (cfiPicker81) NoFunction
          CFI (cfiPicker81) Picker
        MOVX    @DPTR,A
        MOV     DPL,R2
        MOV     DPH,R3
        RET
          CFI EndBlock cfiCond73
          CFI EndBlock cfiCond74
          CFI EndBlock cfiCond75
          CFI EndBlock cfiCond76
          CFI EndBlock cfiCond77
          CFI EndBlock cfiCond78
          CFI EndBlock cfiCond79
          CFI EndBlock cfiCond80
          CFI EndBlock cfiPicker81
//  661 
//  662 /***************************************************************************************************
//  663  * @fn          MT_AfIncomingMsg
//  664  *
//  665  * @brief       Process the callback subscription for AF Incoming data.
//  666  *
//  667  * @param       pkt - Incoming AF data.
//  668  *
//  669  * @return      none
//  670  ***************************************************************************************************/

        RSEG BANKED_CODE:CODE:NOROOT(0)
//  671 void MT_AfIncomingMsg(afIncomingMSGPacket_t *pMsg)
MT_AfIncomingMsg:
          CFI Block cfiBlock82 Using cfiCommon0
          CFI Function MT_AfIncomingMsg
        CODE
//  672 {
        FUNCALL MT_AfIncomingMsg, osal_mem_alloc
        LOCFRAME ISTACK, 0, STACK
        LOCFRAME PSTACK, 0, STACK
        LOCFRAME XSTACK, 25, STACK
        LOCFRAME IOVERLAY, 0, STATIC
        LOCFRAME DOVERLAY, 0, STATIC
        ARGFRAME ISTACK, 0, STACK
        ARGFRAME PSTACK, 0, STACK
        ARGFRAME XSTACK, 25, STACK
        ARGFRAME IOVERLAY, 0, STATIC
        ARGFRAME DOVERLAY, 0, STATIC
        FUNCALL MT_AfIncomingMsg, osal_mem_alloc
        LOCFRAME ISTACK, 0, STACK
        LOCFRAME PSTACK, 0, STACK
        LOCFRAME XSTACK, 25, STACK
        LOCFRAME IOVERLAY, 0, STATIC
        LOCFRAME DOVERLAY, 0, STATIC
        ARGFRAME ISTACK, 0, STACK
        ARGFRAME PSTACK, 0, STACK
        ARGFRAME XSTACK, 25, STACK
        ARGFRAME IOVERLAY, 0, STATIC
        ARGFRAME DOVERLAY, 0, STATIC
        FUNCALL MT_AfIncomingMsg, osal_mem_free
        LOCFRAME ISTACK, 0, STACK
        LOCFRAME PSTACK, 0, STACK
        LOCFRAME XSTACK, 25, STACK
        LOCFRAME IOVERLAY, 0, STATIC
        LOCFRAME DOVERLAY, 0, STATIC
        ARGFRAME ISTACK, 0, STACK
        ARGFRAME PSTACK, 0, STACK
        ARGFRAME XSTACK, 25, STACK
        ARGFRAME IOVERLAY, 0, STATIC
        ARGFRAME DOVERLAY, 0, STATIC
        FUNCALL MT_AfIncomingMsg, osal_memcpy
        LOCFRAME ISTACK, 0, STACK
        LOCFRAME PSTACK, 0, STACK
        LOCFRAME XSTACK, 28, STACK
        LOCFRAME IOVERLAY, 0, STATIC
        LOCFRAME DOVERLAY, 0, STATIC
        ARGFRAME ISTACK, 0, STACK
        ARGFRAME PSTACK, 0, STACK
        ARGFRAME XSTACK, 28, STACK
        ARGFRAME IOVERLAY, 0, STATIC
        ARGFRAME DOVERLAY, 0, STATIC
        FUNCALL MT_AfIncomingMsg, osal_buffer_uint32
        LOCFRAME ISTACK, 0, STACK
        LOCFRAME PSTACK, 0, STACK
        LOCFRAME XSTACK, 29, STACK
        LOCFRAME IOVERLAY, 0, STATIC
        LOCFRAME DOVERLAY, 0, STATIC
        ARGFRAME ISTACK, 0, STACK
        ARGFRAME PSTACK, 0, STACK
        ARGFRAME XSTACK, 29, STACK
        ARGFRAME IOVERLAY, 0, STATIC
        ARGFRAME DOVERLAY, 0, STATIC
        FUNCALL MT_AfIncomingMsg, osal_start_timerEx
        LOCFRAME ISTACK, 0, STACK
        LOCFRAME PSTACK, 0, STACK
        LOCFRAME XSTACK, 29, STACK
        LOCFRAME IOVERLAY, 0, STATIC
        LOCFRAME DOVERLAY, 0, STATIC
        ARGFRAME ISTACK, 0, STACK
        ARGFRAME PSTACK, 0, STACK
        ARGFRAME XSTACK, 29, STACK
        ARGFRAME IOVERLAY, 0, STATIC
        ARGFRAME DOVERLAY, 0, STATIC
        FUNCALL MT_AfIncomingMsg, osal_set_event
        LOCFRAME ISTACK, 0, STACK
        LOCFRAME PSTACK, 0, STACK
        LOCFRAME XSTACK, 25, STACK
        LOCFRAME IOVERLAY, 0, STATIC
        LOCFRAME DOVERLAY, 0, STATIC
        ARGFRAME ISTACK, 0, STACK
        ARGFRAME PSTACK, 0, STACK
        ARGFRAME XSTACK, 25, STACK
        ARGFRAME IOVERLAY, 0, STATIC
        ARGFRAME DOVERLAY, 0, STATIC
        FUNCALL MT_AfIncomingMsg, osal_memcpy
        LOCFRAME ISTACK, 0, STACK
        LOCFRAME PSTACK, 0, STACK
        LOCFRAME XSTACK, 28, STACK
        LOCFRAME IOVERLAY, 0, STATIC
        LOCFRAME DOVERLAY, 0, STATIC
        ARGFRAME ISTACK, 0, STACK
        ARGFRAME PSTACK, 0, STACK
        ARGFRAME XSTACK, 28, STACK
        ARGFRAME IOVERLAY, 0, STATIC
        ARGFRAME DOVERLAY, 0, STATIC
        FUNCALL MT_AfIncomingMsg, osal_memcpy
        LOCFRAME ISTACK, 0, STACK
        LOCFRAME PSTACK, 0, STACK
        LOCFRAME XSTACK, 28, STACK
        LOCFRAME IOVERLAY, 0, STATIC
        LOCFRAME DOVERLAY, 0, STATIC
        ARGFRAME ISTACK, 0, STACK
        ARGFRAME PSTACK, 0, STACK
        ARGFRAME XSTACK, 28, STACK
        ARGFRAME IOVERLAY, 0, STATIC
        ARGFRAME DOVERLAY, 0, STATIC
        FUNCALL MT_AfIncomingMsg, MT_BuildAndSendZToolResponse
        LOCFRAME ISTACK, 0, STACK
        LOCFRAME PSTACK, 0, STACK
        LOCFRAME XSTACK, 25, STACK
        LOCFRAME IOVERLAY, 0, STATIC
        LOCFRAME DOVERLAY, 0, STATIC
        ARGFRAME ISTACK, 0, STACK
        ARGFRAME PSTACK, 0, STACK
        ARGFRAME XSTACK, 25, STACK
        ARGFRAME IOVERLAY, 0, STATIC
        ARGFRAME DOVERLAY, 0, STATIC
        FUNCALL MT_AfIncomingMsg, osal_mem_free
        LOCFRAME ISTACK, 0, STACK
        LOCFRAME PSTACK, 0, STACK
        LOCFRAME XSTACK, 25, STACK
        LOCFRAME IOVERLAY, 0, STATIC
        LOCFRAME DOVERLAY, 0, STATIC
        ARGFRAME ISTACK, 0, STACK
        ARGFRAME PSTACK, 0, STACK
        ARGFRAME XSTACK, 25, STACK
        ARGFRAME IOVERLAY, 0, STATIC
        ARGFRAME DOVERLAY, 0, STATIC
        REQUIRE ?V0
        REQUIRE ?V1
        REQUIRE ?V2
        REQUIRE ?V3
        REQUIRE ?V4
        REQUIRE ?V5
        REQUIRE ?V6
        REQUIRE ?V7
        REQUIRE ?V8
        REQUIRE ?V9
        REQUIRE ?V10
        REQUIRE ?V11
        REQUIRE ?V12
        REQUIRE ?V13
        REQUIRE ?V14
        REQUIRE ?V15
        MOV     A,#-0x18
        LCALL   ?BANKED_ENTER_XDATA
          CFI DPH0 load(1, XDATA, add(CFA_XSP16, literal(-1)))
          CFI DPL0 load(1, XDATA, add(CFA_XSP16, literal(-2)))
          CFI ?BRET_EXT load(1, XDATA, add(CFA_XSP16, literal(-3)))
          CFI ?RET_HIGH load(1, XDATA, add(CFA_XSP16, literal(-4)))
          CFI ?RET_LOW load(1, XDATA, add(CFA_XSP16, literal(-5)))
          CFI R7 load(1, XDATA, add(CFA_XSP16, literal(-6)))
          CFI V15 load(1, XDATA, add(CFA_XSP16, literal(-7)))
          CFI V14 load(1, XDATA, add(CFA_XSP16, literal(-8)))
          CFI V13 load(1, XDATA, add(CFA_XSP16, literal(-9)))
          CFI V12 load(1, XDATA, add(CFA_XSP16, literal(-10)))
          CFI V11 load(1, XDATA, add(CFA_XSP16, literal(-11)))
          CFI V10 load(1, XDATA, add(CFA_XSP16, literal(-12)))
          CFI V9 load(1, XDATA, add(CFA_XSP16, literal(-13)))
          CFI V8 load(1, XDATA, add(CFA_XSP16, literal(-14)))
          CFI V7 load(1, XDATA, add(CFA_XSP16, literal(-15)))
          CFI V6 load(1, XDATA, add(CFA_XSP16, literal(-16)))
          CFI V5 load(1, XDATA, add(CFA_XSP16, literal(-17)))
          CFI V4 load(1, XDATA, add(CFA_XSP16, literal(-18)))
          CFI V3 load(1, XDATA, add(CFA_XSP16, literal(-19)))
          CFI V2 load(1, XDATA, add(CFA_XSP16, literal(-20)))
          CFI V1 load(1, XDATA, add(CFA_XSP16, literal(-21)))
          CFI V0 load(1, XDATA, add(CFA_XSP16, literal(-22)))
          CFI VB load(1, XDATA, add(CFA_XSP16, literal(-23)))
          CFI R6 load(1, XDATA, add(CFA_XSP16, literal(-24)))
          CFI CFA_SP SP+0
          CFI CFA_XSP16 add(XSP16, 24)
        ; Saved register size: 24
        ; Auto size: 1
        MOV     A,#-0x1
        LCALL   ?ALLOC_XSTACK8
          CFI CFA_XSP16 add(XSP16, 25)
        MOV     ?V8,R2
        MOV     ?V9,R3
//  673   #define MT_AF_INC_MSG_LEN  20
//  674   #define MT_AF_INC_MSG_EXT  10
//  675 
//  676   uint16 dataLen = pMsg->cmd.DataLength;  // Length of the data section in the response packet.
        MOV     A,R2
        ADD     A,#0x20
        LCALL   ?Subroutine38 & 0xFFFF
??CrossCallReturnLabel_60:
        MOVX    A,@DPTR
        MOV     ?V0,A
        INC     DPTR
        MOVX    A,@DPTR
        MOV     ?V1,A
//  677   uint16 respLen = MT_AF_INC_MSG_LEN + dataLen;
        MOV     A,?V0
        ADD     A,#0x14
        MOV     R6,A
        CLR     A
        ADDC    A,?V1
        MOV     R7,A
//  678   uint8 cmd = MT_AF_INCOMING_MSG;
        MOV     DPL,?XSP + 0
        MOV     DPH,?XSP + 1
        MOV     A,#-0x7f
        MOVX    @DPTR,A
//  679   uint8 *pRsp, *pTmp;
//  680   mtAfInMsgList_t *pItem = NULL;
        MOV     ?V10,#0x0
        MOV     ?V11,#0x0
//  681 
//  682 #if defined INTER_PAN
//  683   if (StubAPS_InterPan(pMsg->srcAddr.panId, pMsg->srcAddr.endPoint))
//  684   {
//  685     cmd = MT_AF_INCOMING_MSG_EXT;
//  686   }
//  687   else
//  688 #endif
//  689   if ((pMsg->srcAddr.addrMode == afAddr64Bit) ||
//  690       (respLen > (uint16)(MT_RPC_DATA_MAX - MT_AF_INC_MSG_EXT)))
        MOV     A,R2
        ADD     A,#0xe
        LCALL   ?Subroutine29 & 0xFFFF
??CrossCallReturnLabel_44:
        MOVX    A,@DPTR
        XRL     A,#0x3
        JZ      ??MT_AfIncomingMsg_0
        CLR     C
        MOV     A,R6
        SUBB    A,#-0xf
        MOV     A,R7
        SUBB    A,#0x0
        JC      ??MT_AfIncomingMsg_1
//  691   {
//  692     cmd = MT_AF_INCOMING_MSG_EXT;
??MT_AfIncomingMsg_0:
        MOV     DPL,?XSP + 0
        MOV     DPH,?XSP + 1
        MOV     A,#-0x7e
        MOVX    @DPTR,A
//  693   }
//  694 
//  695   if (cmd == MT_AF_INCOMING_MSG_EXT)
//  696   {
//  697     respLen += MT_AF_INC_MSG_EXT;
        MOV     A,R6
        ADD     A,#0xa
        MOV     R6,A
        CLR     A
        ADDC    A,R7
        MOV     R7,A
//  698   }
//  699 
//  700   if (respLen > (uint16)MT_RPC_DATA_MAX)
??MT_AfIncomingMsg_1:
        CLR     C
        MOV     A,R6
        SUBB    A,#-0x5
        MOV     A,R7
        SUBB    A,#0x0
        JC      ??MT_AfIncomingMsg_2
//  701   {
//  702     if ((pItem = (mtAfInMsgList_t *)osal_mem_alloc(sizeof(mtAfInMsgList_t) + dataLen)) == NULL)
        ; Setup parameters for call to function osal_mem_alloc
        MOV     A,?V0
        ADD     A,#0x9
        MOV     R2,A
        CLR     A
        ADDC    A,?V1
        MOV     R3,A
        LCALL   `??osal_mem_alloc::?relay`; Banked call to: osal_mem_alloc
        MOV     ?V10,R2
        MOV     ?V11,R3
        MOV     A,R2
        ORL     A,?V11
        JNZ     $+5
        LJMP    ??MT_AfIncomingMsg_3 & 0xFFFF
//  703     {
//  704       return;  // If cannot hold a huge message, cannot give indication at all.
//  705     }
//  706 
//  707     pItem->data = (uint8 *)(pItem+1);
        MOV     A,R2
        ADD     A,#0x9
        MOV     R0,A
        CLR     A
        ADDC    A,?V11
        MOV     R1,A
        MOV     DPL,R2
        MOV     DPH,R3
        INC     DPTR
        INC     DPTR
        MOV     A,R0
        MOVX    @DPTR,A
        INC     DPTR
        MOV     A,R1
        MOVX    @DPTR,A
//  708     respLen -= dataLen;  // Zero data bytes are sent with an over-sized incoming indication.
        CLR     C
        MOV     A,R6
        SUBB    A,?V0
        MOV     R6,A
        MOV     A,R7
        SUBB    A,?V1
        MOV     R7,A
//  709   }
//  710 
//  711   // Attempt to allocate memory for the response packet.
//  712   if ((pRsp = osal_mem_alloc(respLen)) == NULL)
??MT_AfIncomingMsg_2:
        ; Setup parameters for call to function osal_mem_alloc
        MOV     A,R6
        MOV     R2,A
        MOV     A,R7
        MOV     R3,A
        LCALL   `??osal_mem_alloc::?relay`; Banked call to: osal_mem_alloc
        MOV     ?V12,R2
        MOV     ?V13,R3
        MOV     A,R2
        ORL     A,?V13
        JNZ     ??MT_AfIncomingMsg_4
//  713   {
//  714     if (pItem != NULL)
        MOV     A,?V10
        ORL     A,?V11
        JZ      ??MT_AfIncomingMsg_5
//  715     {
//  716       (void)osal_mem_free(pItem);
        ; Setup parameters for call to function osal_mem_free
        MOV     R2,?V10
        MOV     R3,?V11
        LCALL   `??osal_mem_free::?relay`; Banked call to: osal_mem_free
//  717     }
//  718     return;
??MT_AfIncomingMsg_5:
        LJMP    ??MT_AfIncomingMsg_3 & 0xFFFF
//  719   }
//  720   pTmp = pRsp;
//  721 
//  722   /* Group ID */
//  723   *pTmp++ = LO_UINT16(pMsg->groupId);
??MT_AfIncomingMsg_4:
        MOV     A,?V8
        ADD     A,#0x2
        MOV     R0,A
        CLR     A
        ADDC    A,?V9
        MOV     R1,A
        LCALL   ?Subroutine9 & 0xFFFF
//  724   *pTmp++ = HI_UINT16(pMsg->groupId);
??CrossCallReturnLabel_12:
        MOV     DPL,R2
        MOV     DPH,R3
        INC     DPTR
        MOVX    @DPTR,A
//  725 
//  726   /* Cluster ID */
//  727   *pTmp++ = LO_UINT16(pMsg->clusterId);
        MOV     A,?V8
        ADD     A,#0x4
        MOV     R0,A
        CLR     A
        ADDC    A,?V9
        MOV     R1,A
        LCALL   ?Subroutine32 & 0xFFFF
??CrossCallReturnLabel_95:
        INC     DPTR
        INC     DPTR
        LCALL   ??Subroutine44_0 & 0xFFFF
//  728   *pTmp++ = HI_UINT16(pMsg->clusterId);
??CrossCallReturnLabel_91:
        INC     DPTR
        LCALL   ??Subroutine45_0 & 0xFFFF
??CrossCallReturnLabel_93:
        INC     DPTR
        INC     DPTR
        INC     DPTR
        MOVX    @DPTR,A
//  729 
//  730   if (cmd == MT_AF_INCOMING_MSG_EXT)
        MOV     A,R2
        ADD     A,#0x6
        MOV     R4,A
        CLR     A
        ADDC    A,?V13
        MOV     R5,A
        MOV     A,R2
        ADD     A,#0x5
        MOV     R2,A
        CLR     A
        ADDC    A,?V13
        MOV     R3,A
        MOV     A,?V12
        ADD     A,#0x4
        MOV     ?V6,A
        CLR     A
        ADDC    A,?V13
        MOV     ?V7,A
        MOV     A,?V8
        ADD     A,#0xf
        MOV     ?V14,A
        CLR     A
        ADDC    A,?V9
        MOV     ?V15,A
        MOV     A,?V8
        ADD     A,#0x6
        MOV     R0,A
        CLR     A
        ADDC    A,?V9
        MOV     R1,A
        MOV     DPL,?XSP + 0
        MOV     DPH,?XSP + 1
        MOVX    A,@DPTR
        XRL     A,#0x82
        JNZ     ??MT_AfIncomingMsg_6
//  731   {
//  732     *pTmp++ = pMsg->srcAddr.addrMode;
        MOV     DPL,?V4
        MOV     DPH,?V5
        LCALL   ?Subroutine19 & 0xFFFF
??CrossCallReturnLabel_30:
        MOV     ?V2,R2
        MOV     ?V3,R3
//  733 
//  734     if (pMsg->srcAddr.addrMode == afAddr64Bit)
        MOV     DPL,?V4
        MOV     DPH,?V5
        MOVX    A,@DPTR
        XRL     A,#0x3
        JNZ     ??MT_AfIncomingMsg_7
//  735     {
//  736       (void)osal_memcpy(pTmp, pMsg->srcAddr.addr.extAddr, Z_EXTADDR_LEN);
        ; Setup parameters for call to function osal_memcpy
        MOV     ?V4,R0
        MOV     ?V5,R1
        MOV     ?V6,#0x0
        MOV     R0,#?V4
        LCALL   ?PUSH_XSTACK_I_THREE
          CFI CFA_XSP16 add(XSP16, 28)
        MOV     R4,#0x8
        MOV     R5,#0x0
        LCALL   `??osal_memcpy::?relay`; Banked call to: osal_memcpy
        MOV     A,#0x3
        LCALL   ?DEALLOC_XSTACK8
          CFI CFA_XSP16 add(XSP16, 25)
        SJMP    ??MT_AfIncomingMsg_8
//  737     }
//  738     else
//  739     {
//  740       pTmp[0] = LO_UINT16(pMsg->srcAddr.addr.shortAddr);
??MT_AfIncomingMsg_7:
        LCALL   ?Subroutine9 & 0xFFFF
//  741       pTmp[1] = HI_UINT16(pMsg->srcAddr.addr.shortAddr);
//  742     }
??CrossCallReturnLabel_13:
        MOV     DPL,R4
        MOV     DPH,R5
        MOVX    @DPTR,A
//  743     pTmp += Z_EXTADDR_LEN;
//  744 
//  745     *pTmp++ = pMsg->srcAddr.endPoint;
??MT_AfIncomingMsg_8:
        MOV     DPL,?V14
        MOV     DPH,?V15
        LCALL   ?Subroutine15 & 0xFFFF
//  746 #if defined INTER_PAN
//  747     *pTmp++ = LO_UINT16(pMsg->srcAddr.panId);
//  748     *pTmp++ = HI_UINT16(pMsg->srcAddr.panId);
//  749 #else
//  750     *pTmp++ = 0;
//  751     *pTmp++ = 0;
//  752 #endif
//  753   }
??CrossCallReturnLabel_22:
        INC     DPTR
        INC     DPTR
        INC     DPTR
        INC     DPTR
        INC     DPTR
        LCALL   ?Subroutine21 & 0xFFFF
??CrossCallReturnLabel_34:
        CLR     A
        LCALL   ?Subroutine21 & 0xFFFF
??CrossCallReturnLabel_35:
        INC     DPTR
        MOVX    @DPTR,A
        MOV     A,?V2
        ADD     A,#0xb
        MOV     ?V2,A
        JNC     ??MT_AfIncomingMsg_9
        INC     ?V3
        SJMP    ??MT_AfIncomingMsg_9
//  754   else
//  755   {
//  756     /* Source Address */
//  757     *pTmp++ = LO_UINT16(pMsg->srcAddr.addr.shortAddr);
??MT_AfIncomingMsg_6:
        MOV     DPL,R0
        MOV     DPH,R1
        LCALL   ?Subroutine19 & 0xFFFF
//  758     *pTmp++ = HI_UINT16(pMsg->srcAddr.addr.shortAddr);
??CrossCallReturnLabel_31:
        MOV     DPL,R0
        MOV     DPH,R1
        INC     DPTR
        LCALL   ??Subroutine45_0 & 0xFFFF
??CrossCallReturnLabel_94:
        MOVX    @DPTR,A
//  759 
//  760     /* Source EP */
//  761     *pTmp++ = pMsg->srcAddr.endPoint;
        MOV     DPL,?V14
        MOV     DPH,?V15
        MOVX    A,@DPTR
        MOV     DPL,R4
        MOV     DPH,R5
        MOVX    @DPTR,A
        MOV     A,?V12
        ADD     A,#0x7
        MOV     ?V2,A
        CLR     A
        ADDC    A,?V13
        MOV     ?V3,A
//  762   }
//  763 
//  764   /* Destination EP */
//  765   *pTmp++ = pMsg->endPoint;
??MT_AfIncomingMsg_9:
        MOV     A,?V8
        ADD     A,#0x14
        LCALL   ?Subroutine38 & 0xFFFF
??CrossCallReturnLabel_61:
        LCALL   ?Subroutine20 & 0xFFFF
//  766 
//  767   /* WasBroadCast */
//  768   *pTmp++ = pMsg->wasBroadcast;
??CrossCallReturnLabel_32:
        MOV     A,?V8
        ADD     A,#0x15
        LCALL   ?Subroutine38 & 0xFFFF
??CrossCallReturnLabel_62:
        LCALL   ?Subroutine13 & 0xFFFF
//  769 
//  770   /* LinkQuality */
//  771   *pTmp++ = pMsg->LinkQuality;
??CrossCallReturnLabel_18:
        ADD     A,#0x16
        LCALL   ?Subroutine16 & 0xFFFF
//  772 
//  773   /* SecurityUse */
//  774   *pTmp++ = pMsg->SecurityUse;
??CrossCallReturnLabel_24:
        MOV     A,?V8
        ADD     A,#0x19
        LCALL   ?Subroutine38 & 0xFFFF
??CrossCallReturnLabel_63:
        LCALL   ?Subroutine15 & 0xFFFF
??CrossCallReturnLabel_23:
        MOVX    @DPTR,A
        MOV     A,?V2
        ADD     A,#0x4
        MOV     ?V2,A
        JNC     ??MT_AfIncomingMsg_10
        INC     ?V3
//  775 
//  776   /* Timestamp */
//  777   osal_buffer_uint32( pTmp, pMsg->timestamp );
??MT_AfIncomingMsg_10:
        MOV     A,?V8
        ADD     A,#0x1a
        LCALL   ?Subroutine29 & 0xFFFF
??CrossCallReturnLabel_45:
        LCALL   ?PUSH_XSTACK8_X_FOUR
          CFI CFA_XSP16 add(XSP16, 29)
        MOV     R2,?V2
        MOV     R3,?V3
        LCALL   `??osal_buffer_uint32::?relay`; Banked call to: osal_buffer_uint32
        MOV     A,#0x4
        LCALL   ?DEALLOC_XSTACK8
          CFI CFA_XSP16 add(XSP16, 25)
//  778   pTmp += 4;
//  779 
//  780   /* Data Length */
//  781   if (cmd == MT_AF_INCOMING_MSG_EXT)
        MOV     A,?V2
        ADD     A,#0x6
        MOV     R0,A
        CLR     A
        ADDC    A,?V3
        MOV     R1,A
        MOV     A,?V2
        ADD     A,#0x5
        MOV     R2,A
        CLR     A
        ADDC    A,?V3
        MOV     R3,A
        MOV     A,?V2
        ADD     A,#0x4
        MOV     R4,A
        CLR     A
        ADDC    A,?V3
        MOV     R5,A
        MOV     DPL,?XSP + 0
        MOV     DPH,?XSP + 1
        MOVX    A,@DPTR
        XRL     A,#0x82
        JNZ     ??MT_AfIncomingMsg_11
//  782   {
//  783     /* Z-Tool apparently takes the last Byte before the data buffer as the dynamic length and
//  784      * ignores the bigger UInt16 length of an EXT incoming message. But no data bytes will be sent
//  785      * with a huge message, so it's necessary to work-around and fake-out Z-Tool with a zero here.
//  786      */
//  787     *pTmp++ = 0;  // TODO - workaround Z-Tool shortcoming; should be: = pMsg->cmd.TransSeqNumber;
        MOV     DPL,R4
        MOV     DPH,R5
        CLR     A
        LCALL   ?Subroutine40 & 0xFFFF
//  788     *pTmp++ = LO_UINT16(dataLen);
//  789     *pTmp++ = HI_UINT16(dataLen);
//  790   }
??CrossCallReturnLabel_70:
        MOV     A,?V0
        LCALL   ??Subroutine44_0 & 0xFFFF
??CrossCallReturnLabel_92:
        MOV     A,?V1
        MOVX    @DPTR,A
        MOV     A,?V2
        ADD     A,#0x7
        MOV     ?V2,A
        JNC     ??MT_AfIncomingMsg_12
        INC     ?V3
        SJMP    ??MT_AfIncomingMsg_12
//  791   else
//  792   {
//  793     *pTmp++ = pMsg->cmd.TransSeqNumber;
??MT_AfIncomingMsg_11:
        MOV     A,?V8
        ADD     A,#0x1f
        LCALL   ?Subroutine38 & 0xFFFF
//  794     *pTmp++ = dataLen;
//  795   }
??CrossCallReturnLabel_64:
        MOVX    A,@DPTR
        MOV     DPL,R4
        MOV     DPH,R5
        LCALL   ?Subroutine40 & 0xFFFF
??CrossCallReturnLabel_71:
        MOV     A,?V0
        MOVX    @DPTR,A
        MOV     ?V2,R0
        MOV     ?V3,R1
//  796 
//  797   /* Data */
//  798   if (pItem != NULL)
??MT_AfIncomingMsg_12:
        MOV     A,?V8
        ADD     A,#0x22
        MOV     ?V6,A
        CLR     A
        ADDC    A,?V9
        MOV     ?V7,A
        MOV     A,?V10
        ORL     A,?V11
        JNZ     $+5
        LJMP    ??MT_AfIncomingMsg_13 & 0xFFFF
//  799   {
//  800     // Enqueue the new huge incoming item.
//  801     pItem->next = pMtAfInMsgList;
        LCALL   ?Subroutine31 & 0xFFFF
??CrossCallReturnLabel_100:
        MOV     DPL,?V10
        MOV     DPH,?V11
        MOV     A,R0
        MOVX    @DPTR,A
        INC     DPTR
        MOV     A,R1
        MOVX    @DPTR,A
//  802     pMtAfInMsgList = pItem;
        MOV     DPTR,#pMtAfInMsgList
        MOV     A,?V10
        MOVX    @DPTR,A
        INC     DPTR
        MOV     A,?V11
        MOVX    @DPTR,A
//  803 
//  804     // Setup to time-out the huge incoming item if host does not MT_AF_DATA_RETRIEVE it.
//  805     pItem->tick = MT_AF_EXEC_CNT;
        MOV     DPL,?V10
        MOV     DPH,A
        INC     DPTR
        INC     DPTR
        INC     DPTR
        INC     DPTR
        INC     DPTR
        INC     DPTR
        INC     DPTR
        INC     DPTR
        MOV     A,#0xf
        MOVX    @DPTR,A
//  806     if (ZSuccess != osal_start_timerEx(MT_TaskID, MT_AF_EXEC_EVT, MT_AF_EXEC_DLY))
        ; Setup parameters for call to function osal_start_timerEx
        MOV     DPTR,#__Constant_3e8
        LCALL   ?PUSH_XSTACK8_X_FOUR
          CFI CFA_XSP16 add(XSP16, 29)
        MOV     R2,#0x8
        MOV     R3,#0x0
        MOV     DPTR,#MT_TaskID
        MOVX    A,@DPTR
        MOV     R1,A
        LCALL   `??osal_start_timerEx::?relay`; Banked call to: osal_start_timerEx
        MOV     A,#0x4
        LCALL   ?DEALLOC_XSTACK8
          CFI CFA_XSP16 add(XSP16, 25)
        MOV     A,R1
        JZ      ??MT_AfIncomingMsg_14
//  807     {
//  808       (void)osal_set_event(MT_TaskID, MT_AF_EXEC_EVT);
        ; Setup parameters for call to function osal_set_event
        MOV     R2,#0x8
        MOV     R3,#0x0
        MOV     DPTR,#MT_TaskID
        MOVX    A,@DPTR
        MOV     R1,A
        LCALL   `??osal_set_event::?relay`; Banked call to: osal_set_event
//  809     }
//  810 
//  811     pItem->timestamp = pMsg->timestamp;
??MT_AfIncomingMsg_14:
        MOV     DPL,?V4
        MOV     DPH,?V5
        LCALL   ?XLOAD_R0123
        MOV     DPL,?V10
        MOV     DPH,?V11
        INC     DPTR
        INC     DPTR
        INC     DPTR
        INC     DPTR
        LCALL   ?XSTORE_R0123
//  812     (void)osal_memcpy(pItem->data, pMsg->cmd.Data, dataLen);
        ; Setup parameters for call to function osal_memcpy
        LCALL   ?Subroutine10 & 0xFFFF
//  813   }
??CrossCallReturnLabel_14:
        LCALL   ?PUSH_XSTACK_I_THREE
          CFI CFA_XSP16 add(XSP16, 28)
        MOV     R4,?V0
        MOV     R5,?V1
        MOV     DPL,?V10
        MOV     DPH,?V11
        INC     DPTR
        INC     DPTR
        LCALL   ??Subroutine47_0 & 0xFFFF
??CrossCallReturnLabel_103:
        LCALL   `??osal_memcpy::?relay`; Banked call to: osal_memcpy
        MOV     A,#0x3
        LCALL   ?DEALLOC_XSTACK8
          CFI CFA_XSP16 add(XSP16, 25)
        SJMP    ??MT_AfIncomingMsg_15
//  814   else
//  815   {
//  816     (void)osal_memcpy(pTmp, pMsg->cmd.Data, dataLen);
??MT_AfIncomingMsg_13:
        ; Setup parameters for call to function osal_memcpy
        LCALL   ?Subroutine10 & 0xFFFF
??CrossCallReturnLabel_15:
        LCALL   ?PUSH_XSTACK_I_THREE
          CFI CFA_XSP16 add(XSP16, 28)
        MOV     R4,?V0
        MOV     R5,?V1
        MOV     R2,?V2
        MOV     R3,?V3
        LCALL   `??osal_memcpy::?relay`; Banked call to: osal_memcpy
        MOV     A,#0x3
        LCALL   ?DEALLOC_XSTACK8
          CFI CFA_XSP16 add(XSP16, 25)
//  817     pTmp += dataLen;
        MOV     A,?V2
        ADD     A,?V0
        MOV     ?V2,A
        MOV     A,?V3
        ADDC    A,?V1
        MOV     ?V3,A
//  818   }
//  819 
//  820   // MAC Source address
//  821   *pTmp++ = LO_UINT16(pMsg->macSrcAddr);
??MT_AfIncomingMsg_15:
        MOV     A,?V8
        ADD     A,#0x24
        MOV     R0,A
        CLR     A
        ADDC    A,?V9
        MOV     R1,A
        MOV     DPL,R0
        MOV     DPH,R1
        LCALL   ?Subroutine20 & 0xFFFF
//  822   *pTmp++ = HI_UINT16(pMsg->macSrcAddr);
??CrossCallReturnLabel_33:
        MOV     DPL,R0
        MOV     DPH,R1
        INC     DPTR
        LCALL   ?Subroutine13 & 0xFFFF
//  823 
//  824   // messages result radius
//  825   *pTmp = pMsg->radius;
??CrossCallReturnLabel_19:
        ADD     A,#0x26
        LCALL   ?Subroutine16 & 0xFFFF
//  826 
//  827   /* Build and send back the response */
//  828   MT_BuildAndSendZToolResponse(((uint8)MT_RPC_CMD_AREQ|(uint8)MT_RPC_SYS_AF), cmd, respLen, pRsp);
??CrossCallReturnLabel_25:
        ; Setup parameters for call to function MT_BuildAndSendZToolResponse
        MOV     R4,?V12
        MOV     R5,?V13
        MOV     A,R6
        MOV     R3,A
        MOV     DPL,?XSP + 0
        MOV     DPH,?XSP + 1
        MOVX    A,@DPTR
        MOV     R2,A
        MOV     R1,#0x44
        LCALL   `??MT_BuildAndSendZToolResponse::?relay`; Banked call to: MT_BuildAndSendZToolResponse
//  829 
//  830   (void)osal_mem_free(pRsp);
        ; Setup parameters for call to function osal_mem_free
        MOV     R2,?V12
        MOV     R3,?V13
        LCALL   `??osal_mem_free::?relay`; Banked call to: osal_mem_free
//  831 }
??MT_AfIncomingMsg_3:
        MOV     A,#0x1
        LCALL   ?DEALLOC_XSTACK8
          CFI CFA_XSP16 add(XSP16, 24)
        MOV     R7,#0x10
        LJMP    ?BANKED_LEAVE_XDATA
          CFI EndBlock cfiBlock82

        RSEG BANKED_CODE:CODE:NOROOT(0)
?Subroutine29:
          CFI Block cfiCond83 Using cfiCommon0
          CFI Function MT_AfIncomingMsg
          CFI Conditional ??CrossCallReturnLabel_44
          CFI R6 load(1, XDATA, add(CFA_XSP16, literal(-24)))
          CFI VB load(1, XDATA, add(CFA_XSP16, literal(-23)))
          CFI V0 load(1, XDATA, add(CFA_XSP16, literal(-22)))
          CFI V1 load(1, XDATA, add(CFA_XSP16, literal(-21)))
          CFI V2 load(1, XDATA, add(CFA_XSP16, literal(-20)))
          CFI V3 load(1, XDATA, add(CFA_XSP16, literal(-19)))
          CFI V4 load(1, XDATA, add(CFA_XSP16, literal(-18)))
          CFI V5 load(1, XDATA, add(CFA_XSP16, literal(-17)))
          CFI V6 load(1, XDATA, add(CFA_XSP16, literal(-16)))
          CFI V7 load(1, XDATA, add(CFA_XSP16, literal(-15)))
          CFI V8 load(1, XDATA, add(CFA_XSP16, literal(-14)))
          CFI V9 load(1, XDATA, add(CFA_XSP16, literal(-13)))
          CFI V10 load(1, XDATA, add(CFA_XSP16, literal(-12)))
          CFI V11 load(1, XDATA, add(CFA_XSP16, literal(-11)))
          CFI V12 load(1, XDATA, add(CFA_XSP16, literal(-10)))
          CFI V13 load(1, XDATA, add(CFA_XSP16, literal(-9)))
          CFI V14 load(1, XDATA, add(CFA_XSP16, literal(-8)))
          CFI V15 load(1, XDATA, add(CFA_XSP16, literal(-7)))
          CFI R7 load(1, XDATA, add(CFA_XSP16, literal(-6)))
          CFI ?RET_LOW load(1, XDATA, add(CFA_XSP16, literal(-5)))
          CFI ?RET_HIGH load(1, XDATA, add(CFA_XSP16, literal(-4)))
          CFI ?BRET_EXT load(1, XDATA, add(CFA_XSP16, literal(-3)))
          CFI DPL0 load(1, XDATA, add(CFA_XSP16, literal(-2)))
          CFI DPH0 load(1, XDATA, add(CFA_XSP16, literal(-1)))
          CFI CFA_SP SP+-2
          CFI CFA_XSP16 add(XSP16, 25)
          CFI Block cfiCond84 Using cfiCommon0
          CFI (cfiCond84) Function MT_AfIncomingMsg
          CFI (cfiCond84) Conditional ??CrossCallReturnLabel_45
          CFI (cfiCond84) R6 load(1, XDATA, add(CFA_XSP16, literal(-24)))
          CFI (cfiCond84) VB load(1, XDATA, add(CFA_XSP16, literal(-23)))
          CFI (cfiCond84) V0 load(1, XDATA, add(CFA_XSP16, literal(-22)))
          CFI (cfiCond84) V1 load(1, XDATA, add(CFA_XSP16, literal(-21)))
          CFI (cfiCond84) V2 load(1, XDATA, add(CFA_XSP16, literal(-20)))
          CFI (cfiCond84) V3 load(1, XDATA, add(CFA_XSP16, literal(-19)))
          CFI (cfiCond84) V4 load(1, XDATA, add(CFA_XSP16, literal(-18)))
          CFI (cfiCond84) V5 load(1, XDATA, add(CFA_XSP16, literal(-17)))
          CFI (cfiCond84) V6 load(1, XDATA, add(CFA_XSP16, literal(-16)))
          CFI (cfiCond84) V7 load(1, XDATA, add(CFA_XSP16, literal(-15)))
          CFI (cfiCond84) V8 load(1, XDATA, add(CFA_XSP16, literal(-14)))
          CFI (cfiCond84) V9 load(1, XDATA, add(CFA_XSP16, literal(-13)))
          CFI (cfiCond84) V10 load(1, XDATA, add(CFA_XSP16, literal(-12)))
          CFI (cfiCond84) V11 load(1, XDATA, add(CFA_XSP16, literal(-11)))
          CFI (cfiCond84) V12 load(1, XDATA, add(CFA_XSP16, literal(-10)))
          CFI (cfiCond84) V13 load(1, XDATA, add(CFA_XSP16, literal(-9)))
          CFI (cfiCond84) V14 load(1, XDATA, add(CFA_XSP16, literal(-8)))
          CFI (cfiCond84) V15 load(1, XDATA, add(CFA_XSP16, literal(-7)))
          CFI (cfiCond84) R7 load(1, XDATA, add(CFA_XSP16, literal(-6)))
          CFI (cfiCond84) ?RET_LOW load(1, XDATA, add(CFA_XSP16, literal(-5)))
          CFI (cfiCond84) ?RET_HIGH load(1, XDATA, add(CFA_XSP16, literal(-4)))
          CFI (cfiCond84) ?BRET_EXT load(1, XDATA, add(CFA_XSP16, literal(-3)))
          CFI (cfiCond84) DPL0 load(1, XDATA, add(CFA_XSP16, literal(-2)))
          CFI (cfiCond84) DPH0 load(1, XDATA, add(CFA_XSP16, literal(-1)))
          CFI (cfiCond84) CFA_SP SP+-2
          CFI (cfiCond84) CFA_XSP16 add(XSP16, 25)
          CFI Block cfiPicker85 Using cfiCommon1
          CFI (cfiPicker85) NoFunction
          CFI (cfiPicker85) Picker
        MOV     ?V4,A
        CLR     A
        ADDC    A,?V9
        MOV     ?V5,A
        ; Setup parameters for call to function osal_buffer_uint32
        MOV     DPL,?V4
        MOV     DPH,A
        RET
          CFI EndBlock cfiCond83
          CFI EndBlock cfiCond84
          CFI EndBlock cfiPicker85

        RSEG BANKED_CODE:CODE:NOROOT(0)
?Subroutine23:
          CFI Block cfiCond86 Using cfiCommon0
          CFI Function MT_AfCommandProcessing
          CFI Conditional ??CrossCallReturnLabel_88
          CFI R6 load(1, XDATA, add(CFA_XSP16, literal(-14)))
          CFI VB load(1, XDATA, add(CFA_XSP16, literal(-13)))
          CFI V0 load(1, XDATA, add(CFA_XSP16, literal(-12)))
          CFI V1 load(1, XDATA, add(CFA_XSP16, literal(-11)))
          CFI V2 load(1, XDATA, add(CFA_XSP16, literal(-10)))
          CFI V3 load(1, XDATA, add(CFA_XSP16, literal(-9)))
          CFI V4 load(1, XDATA, add(CFA_XSP16, literal(-8)))
          CFI V5 load(1, XDATA, add(CFA_XSP16, literal(-7)))
          CFI R7 load(1, XDATA, add(CFA_XSP16, literal(-6)))
          CFI ?RET_LOW load(1, XDATA, add(CFA_XSP16, literal(-5)))
          CFI ?RET_HIGH load(1, XDATA, add(CFA_XSP16, literal(-4)))
          CFI ?BRET_EXT load(1, XDATA, add(CFA_XSP16, literal(-3)))
          CFI DPL0 load(1, XDATA, add(CFA_XSP16, literal(-2)))
          CFI DPH0 load(1, XDATA, add(CFA_XSP16, literal(-1)))
          CFI CFA_SP SP+-2
          CFI CFA_XSP16 add(XSP16, 19)
          CFI Block cfiCond87 Using cfiCommon0
          CFI (cfiCond87) Function MT_AfCommandProcessing
          CFI (cfiCond87) Conditional ??CrossCallReturnLabel_89
          CFI (cfiCond87) R6 load(1, XDATA, add(CFA_XSP16, literal(-14)))
          CFI (cfiCond87) VB load(1, XDATA, add(CFA_XSP16, literal(-13)))
          CFI (cfiCond87) V0 load(1, XDATA, add(CFA_XSP16, literal(-12)))
          CFI (cfiCond87) V1 load(1, XDATA, add(CFA_XSP16, literal(-11)))
          CFI (cfiCond87) V2 load(1, XDATA, add(CFA_XSP16, literal(-10)))
          CFI (cfiCond87) V3 load(1, XDATA, add(CFA_XSP16, literal(-9)))
          CFI (cfiCond87) V4 load(1, XDATA, add(CFA_XSP16, literal(-8)))
          CFI (cfiCond87) V5 load(1, XDATA, add(CFA_XSP16, literal(-7)))
          CFI (cfiCond87) R7 load(1, XDATA, add(CFA_XSP16, literal(-6)))
          CFI (cfiCond87) ?RET_LOW load(1, XDATA, add(CFA_XSP16, literal(-5)))
          CFI (cfiCond87) ?RET_HIGH load(1, XDATA, add(CFA_XSP16, literal(-4)))
          CFI (cfiCond87) ?BRET_EXT load(1, XDATA, add(CFA_XSP16, literal(-3)))
          CFI (cfiCond87) DPL0 load(1, XDATA, add(CFA_XSP16, literal(-2)))
          CFI (cfiCond87) DPH0 load(1, XDATA, add(CFA_XSP16, literal(-1)))
          CFI (cfiCond87) CFA_SP SP+-2
          CFI (cfiCond87) CFA_XSP16 add(XSP16, 19)
          CFI Block cfiPicker88 Using cfiCommon1
          CFI (cfiPicker88) NoFunction
          CFI (cfiPicker88) Picker
        MOV     DPL,?XSP + 0
        MOV     DPH,?XSP + 1
        MOV     A,#0x10
          CFI EndBlock cfiCond86
          CFI EndBlock cfiCond87
          CFI EndBlock cfiPicker88
        REQUIRE ??Subroutine44_0
        ; // Fall through to label ??Subroutine44_0

        RSEG BANKED_CODE:CODE:NOROOT(0)
??Subroutine44_0:
          CFI Block cfiCond89 Using cfiCommon0
          CFI Function MT_AfReflectError
          CFI Conditional ??CrossCallReturnLabel_90
          CFI DPL0 Frame(CFA_SP, 4)
          CFI DPH0 Frame(CFA_SP, 5)
          CFI CFA_SP SP+-7
          CFI CFA_XSP16 add(XSP16, 6)
          CFI Block cfiCond90 Using cfiCommon0
          CFI (cfiCond90) Function MT_AfIncomingMsg
          CFI (cfiCond90) Conditional ??CrossCallReturnLabel_91
          CFI (cfiCond90) R6 load(1, XDATA, add(CFA_XSP16, literal(-24)))
          CFI (cfiCond90) VB load(1, XDATA, add(CFA_XSP16, literal(-23)))
          CFI (cfiCond90) V0 load(1, XDATA, add(CFA_XSP16, literal(-22)))
          CFI (cfiCond90) V1 load(1, XDATA, add(CFA_XSP16, literal(-21)))
          CFI (cfiCond90) V2 load(1, XDATA, add(CFA_XSP16, literal(-20)))
          CFI (cfiCond90) V3 load(1, XDATA, add(CFA_XSP16, literal(-19)))
          CFI (cfiCond90) V4 load(1, XDATA, add(CFA_XSP16, literal(-18)))
          CFI (cfiCond90) V5 load(1, XDATA, add(CFA_XSP16, literal(-17)))
          CFI (cfiCond90) V6 load(1, XDATA, add(CFA_XSP16, literal(-16)))
          CFI (cfiCond90) V7 load(1, XDATA, add(CFA_XSP16, literal(-15)))
          CFI (cfiCond90) V8 load(1, XDATA, add(CFA_XSP16, literal(-14)))
          CFI (cfiCond90) V9 load(1, XDATA, add(CFA_XSP16, literal(-13)))
          CFI (cfiCond90) V10 load(1, XDATA, add(CFA_XSP16, literal(-12)))
          CFI (cfiCond90) V11 load(1, XDATA, add(CFA_XSP16, literal(-11)))
          CFI (cfiCond90) V12 load(1, XDATA, add(CFA_XSP16, literal(-10)))
          CFI (cfiCond90) V13 load(1, XDATA, add(CFA_XSP16, literal(-9)))
          CFI (cfiCond90) V14 load(1, XDATA, add(CFA_XSP16, literal(-8)))
          CFI (cfiCond90) V15 load(1, XDATA, add(CFA_XSP16, literal(-7)))
          CFI (cfiCond90) R7 load(1, XDATA, add(CFA_XSP16, literal(-6)))
          CFI (cfiCond90) ?RET_LOW load(1, XDATA, add(CFA_XSP16, literal(-5)))
          CFI (cfiCond90) ?RET_HIGH load(1, XDATA, add(CFA_XSP16, literal(-4)))
          CFI (cfiCond90) ?BRET_EXT load(1, XDATA, add(CFA_XSP16, literal(-3)))
          CFI (cfiCond90) DPL0 load(1, XDATA, add(CFA_XSP16, literal(-2)))
          CFI (cfiCond90) DPH0 load(1, XDATA, add(CFA_XSP16, literal(-1)))
          CFI (cfiCond90) CFA_SP SP+-2
          CFI (cfiCond90) CFA_XSP16 add(XSP16, 25)
          CFI Block cfiCond91 Using cfiCommon0
          CFI (cfiCond91) Function MT_AfIncomingMsg
          CFI (cfiCond91) Conditional ??CrossCallReturnLabel_92
          CFI (cfiCond91) R6 load(1, XDATA, add(CFA_XSP16, literal(-24)))
          CFI (cfiCond91) VB load(1, XDATA, add(CFA_XSP16, literal(-23)))
          CFI (cfiCond91) V0 load(1, XDATA, add(CFA_XSP16, literal(-22)))
          CFI (cfiCond91) V1 load(1, XDATA, add(CFA_XSP16, literal(-21)))
          CFI (cfiCond91) V2 load(1, XDATA, add(CFA_XSP16, literal(-20)))
          CFI (cfiCond91) V3 load(1, XDATA, add(CFA_XSP16, literal(-19)))
          CFI (cfiCond91) V4 load(1, XDATA, add(CFA_XSP16, literal(-18)))
          CFI (cfiCond91) V5 load(1, XDATA, add(CFA_XSP16, literal(-17)))
          CFI (cfiCond91) V6 load(1, XDATA, add(CFA_XSP16, literal(-16)))
          CFI (cfiCond91) V7 load(1, XDATA, add(CFA_XSP16, literal(-15)))
          CFI (cfiCond91) V8 load(1, XDATA, add(CFA_XSP16, literal(-14)))
          CFI (cfiCond91) V9 load(1, XDATA, add(CFA_XSP16, literal(-13)))
          CFI (cfiCond91) V10 load(1, XDATA, add(CFA_XSP16, literal(-12)))
          CFI (cfiCond91) V11 load(1, XDATA, add(CFA_XSP16, literal(-11)))
          CFI (cfiCond91) V12 load(1, XDATA, add(CFA_XSP16, literal(-10)))
          CFI (cfiCond91) V13 load(1, XDATA, add(CFA_XSP16, literal(-9)))
          CFI (cfiCond91) V14 load(1, XDATA, add(CFA_XSP16, literal(-8)))
          CFI (cfiCond91) V15 load(1, XDATA, add(CFA_XSP16, literal(-7)))
          CFI (cfiCond91) R7 load(1, XDATA, add(CFA_XSP16, literal(-6)))
          CFI (cfiCond91) ?RET_LOW load(1, XDATA, add(CFA_XSP16, literal(-5)))
          CFI (cfiCond91) ?RET_HIGH load(1, XDATA, add(CFA_XSP16, literal(-4)))
          CFI (cfiCond91) ?BRET_EXT load(1, XDATA, add(CFA_XSP16, literal(-3)))
          CFI (cfiCond91) DPL0 load(1, XDATA, add(CFA_XSP16, literal(-2)))
          CFI (cfiCond91) DPH0 load(1, XDATA, add(CFA_XSP16, literal(-1)))
          CFI (cfiCond91) CFA_SP SP+-2
          CFI (cfiCond91) CFA_XSP16 add(XSP16, 25)
          CFI Block cfiCond92 Using cfiCommon0
          CFI (cfiCond92) Function MT_AfCommandProcessing
          CFI (cfiCond92) Conditional ??CrossCallReturnLabel_88
          CFI (cfiCond92) R6 load(1, XDATA, add(CFA_XSP16, literal(-14)))
          CFI (cfiCond92) VB load(1, XDATA, add(CFA_XSP16, literal(-13)))
          CFI (cfiCond92) V0 load(1, XDATA, add(CFA_XSP16, literal(-12)))
          CFI (cfiCond92) V1 load(1, XDATA, add(CFA_XSP16, literal(-11)))
          CFI (cfiCond92) V2 load(1, XDATA, add(CFA_XSP16, literal(-10)))
          CFI (cfiCond92) V3 load(1, XDATA, add(CFA_XSP16, literal(-9)))
          CFI (cfiCond92) V4 load(1, XDATA, add(CFA_XSP16, literal(-8)))
          CFI (cfiCond92) V5 load(1, XDATA, add(CFA_XSP16, literal(-7)))
          CFI (cfiCond92) R7 load(1, XDATA, add(CFA_XSP16, literal(-6)))
          CFI (cfiCond92) ?RET_LOW load(1, XDATA, add(CFA_XSP16, literal(-5)))
          CFI (cfiCond92) ?RET_HIGH load(1, XDATA, add(CFA_XSP16, literal(-4)))
          CFI (cfiCond92) ?BRET_EXT load(1, XDATA, add(CFA_XSP16, literal(-3)))
          CFI (cfiCond92) DPL0 load(1, XDATA, add(CFA_XSP16, literal(-2)))
          CFI (cfiCond92) DPH0 load(1, XDATA, add(CFA_XSP16, literal(-1)))
          CFI (cfiCond92) CFA_SP SP+-2
          CFI (cfiCond92) CFA_XSP16 add(XSP16, 19)
          CFI Block cfiCond93 Using cfiCommon0
          CFI (cfiCond93) Function MT_AfCommandProcessing
          CFI (cfiCond93) Conditional ??CrossCallReturnLabel_89
          CFI (cfiCond93) R6 load(1, XDATA, add(CFA_XSP16, literal(-14)))
          CFI (cfiCond93) VB load(1, XDATA, add(CFA_XSP16, literal(-13)))
          CFI (cfiCond93) V0 load(1, XDATA, add(CFA_XSP16, literal(-12)))
          CFI (cfiCond93) V1 load(1, XDATA, add(CFA_XSP16, literal(-11)))
          CFI (cfiCond93) V2 load(1, XDATA, add(CFA_XSP16, literal(-10)))
          CFI (cfiCond93) V3 load(1, XDATA, add(CFA_XSP16, literal(-9)))
          CFI (cfiCond93) V4 load(1, XDATA, add(CFA_XSP16, literal(-8)))
          CFI (cfiCond93) V5 load(1, XDATA, add(CFA_XSP16, literal(-7)))
          CFI (cfiCond93) R7 load(1, XDATA, add(CFA_XSP16, literal(-6)))
          CFI (cfiCond93) ?RET_LOW load(1, XDATA, add(CFA_XSP16, literal(-5)))
          CFI (cfiCond93) ?RET_HIGH load(1, XDATA, add(CFA_XSP16, literal(-4)))
          CFI (cfiCond93) ?BRET_EXT load(1, XDATA, add(CFA_XSP16, literal(-3)))
          CFI (cfiCond93) DPL0 load(1, XDATA, add(CFA_XSP16, literal(-2)))
          CFI (cfiCond93) DPH0 load(1, XDATA, add(CFA_XSP16, literal(-1)))
          CFI (cfiCond93) CFA_SP SP+-2
          CFI (cfiCond93) CFA_XSP16 add(XSP16, 19)
          CFI Block cfiPicker94 Using cfiCommon1
          CFI (cfiPicker94) NoFunction
          CFI (cfiPicker94) Picker
        MOVX    @DPTR,A
        MOV     DPL,R0
        MOV     DPH,R1
        RET
          CFI EndBlock cfiCond89
          CFI EndBlock cfiCond90
          CFI EndBlock cfiCond91
          CFI EndBlock cfiCond92
          CFI EndBlock cfiCond93
          CFI EndBlock cfiPicker94

        RSEG BANKED_CODE:CODE:NOROOT(0)
?Subroutine21:
          CFI Block cfiCond95 Using cfiCommon0
          CFI Function MT_AfIncomingMsg
          CFI Conditional ??CrossCallReturnLabel_34
          CFI R6 load(1, XDATA, add(CFA_XSP16, literal(-24)))
          CFI VB load(1, XDATA, add(CFA_XSP16, literal(-23)))
          CFI V0 load(1, XDATA, add(CFA_XSP16, literal(-22)))
          CFI V1 load(1, XDATA, add(CFA_XSP16, literal(-21)))
          CFI V2 load(1, XDATA, add(CFA_XSP16, literal(-20)))
          CFI V3 load(1, XDATA, add(CFA_XSP16, literal(-19)))
          CFI V4 load(1, XDATA, add(CFA_XSP16, literal(-18)))
          CFI V5 load(1, XDATA, add(CFA_XSP16, literal(-17)))
          CFI V6 load(1, XDATA, add(CFA_XSP16, literal(-16)))
          CFI V7 load(1, XDATA, add(CFA_XSP16, literal(-15)))
          CFI V8 load(1, XDATA, add(CFA_XSP16, literal(-14)))
          CFI V9 load(1, XDATA, add(CFA_XSP16, literal(-13)))
          CFI V10 load(1, XDATA, add(CFA_XSP16, literal(-12)))
          CFI V11 load(1, XDATA, add(CFA_XSP16, literal(-11)))
          CFI V12 load(1, XDATA, add(CFA_XSP16, literal(-10)))
          CFI V13 load(1, XDATA, add(CFA_XSP16, literal(-9)))
          CFI V14 load(1, XDATA, add(CFA_XSP16, literal(-8)))
          CFI V15 load(1, XDATA, add(CFA_XSP16, literal(-7)))
          CFI R7 load(1, XDATA, add(CFA_XSP16, literal(-6)))
          CFI ?RET_LOW load(1, XDATA, add(CFA_XSP16, literal(-5)))
          CFI ?RET_HIGH load(1, XDATA, add(CFA_XSP16, literal(-4)))
          CFI ?BRET_EXT load(1, XDATA, add(CFA_XSP16, literal(-3)))
          CFI DPL0 load(1, XDATA, add(CFA_XSP16, literal(-2)))
          CFI DPH0 load(1, XDATA, add(CFA_XSP16, literal(-1)))
          CFI CFA_SP SP+-2
          CFI CFA_XSP16 add(XSP16, 25)
          CFI Block cfiCond96 Using cfiCommon0
          CFI (cfiCond96) Function MT_AfIncomingMsg
          CFI (cfiCond96) Conditional ??CrossCallReturnLabel_35
          CFI (cfiCond96) R6 load(1, XDATA, add(CFA_XSP16, literal(-24)))
          CFI (cfiCond96) VB load(1, XDATA, add(CFA_XSP16, literal(-23)))
          CFI (cfiCond96) V0 load(1, XDATA, add(CFA_XSP16, literal(-22)))
          CFI (cfiCond96) V1 load(1, XDATA, add(CFA_XSP16, literal(-21)))
          CFI (cfiCond96) V2 load(1, XDATA, add(CFA_XSP16, literal(-20)))
          CFI (cfiCond96) V3 load(1, XDATA, add(CFA_XSP16, literal(-19)))
          CFI (cfiCond96) V4 load(1, XDATA, add(CFA_XSP16, literal(-18)))
          CFI (cfiCond96) V5 load(1, XDATA, add(CFA_XSP16, literal(-17)))
          CFI (cfiCond96) V6 load(1, XDATA, add(CFA_XSP16, literal(-16)))
          CFI (cfiCond96) V7 load(1, XDATA, add(CFA_XSP16, literal(-15)))
          CFI (cfiCond96) V8 load(1, XDATA, add(CFA_XSP16, literal(-14)))
          CFI (cfiCond96) V9 load(1, XDATA, add(CFA_XSP16, literal(-13)))
          CFI (cfiCond96) V10 load(1, XDATA, add(CFA_XSP16, literal(-12)))
          CFI (cfiCond96) V11 load(1, XDATA, add(CFA_XSP16, literal(-11)))
          CFI (cfiCond96) V12 load(1, XDATA, add(CFA_XSP16, literal(-10)))
          CFI (cfiCond96) V13 load(1, XDATA, add(CFA_XSP16, literal(-9)))
          CFI (cfiCond96) V14 load(1, XDATA, add(CFA_XSP16, literal(-8)))
          CFI (cfiCond96) V15 load(1, XDATA, add(CFA_XSP16, literal(-7)))
          CFI (cfiCond96) R7 load(1, XDATA, add(CFA_XSP16, literal(-6)))
          CFI (cfiCond96) ?RET_LOW load(1, XDATA, add(CFA_XSP16, literal(-5)))
          CFI (cfiCond96) ?RET_HIGH load(1, XDATA, add(CFA_XSP16, literal(-4)))
          CFI (cfiCond96) ?BRET_EXT load(1, XDATA, add(CFA_XSP16, literal(-3)))
          CFI (cfiCond96) DPL0 load(1, XDATA, add(CFA_XSP16, literal(-2)))
          CFI (cfiCond96) DPH0 load(1, XDATA, add(CFA_XSP16, literal(-1)))
          CFI (cfiCond96) CFA_SP SP+-2
          CFI (cfiCond96) CFA_XSP16 add(XSP16, 25)
          CFI Block cfiPicker97 Using cfiCommon1
          CFI (cfiPicker97) NoFunction
          CFI (cfiPicker97) Picker
        LCALL   ?Subroutine35 & 0xFFFF
??CrossCallReturnLabel_54:
        INC     DPTR
        INC     DPTR
        INC     DPTR
        INC     DPTR
        INC     DPTR
        INC     DPTR
        INC     DPTR
        RET
          CFI EndBlock cfiCond95
          CFI EndBlock cfiCond96
          CFI EndBlock cfiPicker97

        RSEG BANKED_CODE:CODE:NOROOT(0)
?Subroutine20:
          CFI Block cfiCond98 Using cfiCommon0
          CFI Function MT_AfIncomingMsg
          CFI Conditional ??CrossCallReturnLabel_32
          CFI R6 load(1, XDATA, add(CFA_XSP16, literal(-24)))
          CFI VB load(1, XDATA, add(CFA_XSP16, literal(-23)))
          CFI V0 load(1, XDATA, add(CFA_XSP16, literal(-22)))
          CFI V1 load(1, XDATA, add(CFA_XSP16, literal(-21)))
          CFI V2 load(1, XDATA, add(CFA_XSP16, literal(-20)))
          CFI V3 load(1, XDATA, add(CFA_XSP16, literal(-19)))
          CFI V4 load(1, XDATA, add(CFA_XSP16, literal(-18)))
          CFI V5 load(1, XDATA, add(CFA_XSP16, literal(-17)))
          CFI V6 load(1, XDATA, add(CFA_XSP16, literal(-16)))
          CFI V7 load(1, XDATA, add(CFA_XSP16, literal(-15)))
          CFI V8 load(1, XDATA, add(CFA_XSP16, literal(-14)))
          CFI V9 load(1, XDATA, add(CFA_XSP16, literal(-13)))
          CFI V10 load(1, XDATA, add(CFA_XSP16, literal(-12)))
          CFI V11 load(1, XDATA, add(CFA_XSP16, literal(-11)))
          CFI V12 load(1, XDATA, add(CFA_XSP16, literal(-10)))
          CFI V13 load(1, XDATA, add(CFA_XSP16, literal(-9)))
          CFI V14 load(1, XDATA, add(CFA_XSP16, literal(-8)))
          CFI V15 load(1, XDATA, add(CFA_XSP16, literal(-7)))
          CFI R7 load(1, XDATA, add(CFA_XSP16, literal(-6)))
          CFI ?RET_LOW load(1, XDATA, add(CFA_XSP16, literal(-5)))
          CFI ?RET_HIGH load(1, XDATA, add(CFA_XSP16, literal(-4)))
          CFI ?BRET_EXT load(1, XDATA, add(CFA_XSP16, literal(-3)))
          CFI DPL0 load(1, XDATA, add(CFA_XSP16, literal(-2)))
          CFI DPH0 load(1, XDATA, add(CFA_XSP16, literal(-1)))
          CFI CFA_SP SP+-2
          CFI CFA_XSP16 add(XSP16, 25)
          CFI Block cfiCond99 Using cfiCommon0
          CFI (cfiCond99) Function MT_AfIncomingMsg
          CFI (cfiCond99) Conditional ??CrossCallReturnLabel_33
          CFI (cfiCond99) R6 load(1, XDATA, add(CFA_XSP16, literal(-24)))
          CFI (cfiCond99) VB load(1, XDATA, add(CFA_XSP16, literal(-23)))
          CFI (cfiCond99) V0 load(1, XDATA, add(CFA_XSP16, literal(-22)))
          CFI (cfiCond99) V1 load(1, XDATA, add(CFA_XSP16, literal(-21)))
          CFI (cfiCond99) V2 load(1, XDATA, add(CFA_XSP16, literal(-20)))
          CFI (cfiCond99) V3 load(1, XDATA, add(CFA_XSP16, literal(-19)))
          CFI (cfiCond99) V4 load(1, XDATA, add(CFA_XSP16, literal(-18)))
          CFI (cfiCond99) V5 load(1, XDATA, add(CFA_XSP16, literal(-17)))
          CFI (cfiCond99) V6 load(1, XDATA, add(CFA_XSP16, literal(-16)))
          CFI (cfiCond99) V7 load(1, XDATA, add(CFA_XSP16, literal(-15)))
          CFI (cfiCond99) V8 load(1, XDATA, add(CFA_XSP16, literal(-14)))
          CFI (cfiCond99) V9 load(1, XDATA, add(CFA_XSP16, literal(-13)))
          CFI (cfiCond99) V10 load(1, XDATA, add(CFA_XSP16, literal(-12)))
          CFI (cfiCond99) V11 load(1, XDATA, add(CFA_XSP16, literal(-11)))
          CFI (cfiCond99) V12 load(1, XDATA, add(CFA_XSP16, literal(-10)))
          CFI (cfiCond99) V13 load(1, XDATA, add(CFA_XSP16, literal(-9)))
          CFI (cfiCond99) V14 load(1, XDATA, add(CFA_XSP16, literal(-8)))
          CFI (cfiCond99) V15 load(1, XDATA, add(CFA_XSP16, literal(-7)))
          CFI (cfiCond99) R7 load(1, XDATA, add(CFA_XSP16, literal(-6)))
          CFI (cfiCond99) ?RET_LOW load(1, XDATA, add(CFA_XSP16, literal(-5)))
          CFI (cfiCond99) ?RET_HIGH load(1, XDATA, add(CFA_XSP16, literal(-4)))
          CFI (cfiCond99) ?BRET_EXT load(1, XDATA, add(CFA_XSP16, literal(-3)))
          CFI (cfiCond99) DPL0 load(1, XDATA, add(CFA_XSP16, literal(-2)))
          CFI (cfiCond99) DPH0 load(1, XDATA, add(CFA_XSP16, literal(-1)))
          CFI (cfiCond99) CFA_SP SP+-2
          CFI (cfiCond99) CFA_XSP16 add(XSP16, 25)
          CFI Block cfiPicker100 Using cfiCommon1
          CFI (cfiPicker100) NoFunction
          CFI (cfiPicker100) Picker
        MOVX    A,@DPTR
        MOV     DPL,?V2
        MOV     DPH,?V3
        MOVX    @DPTR,A
        RET
          CFI EndBlock cfiCond98
          CFI EndBlock cfiCond99
          CFI EndBlock cfiPicker100

        RSEG BANKED_CODE:CODE:NOROOT(0)
?Subroutine19:
          CFI Block cfiCond101 Using cfiCommon0
          CFI Function MT_AfIncomingMsg
          CFI Conditional ??CrossCallReturnLabel_30
          CFI R6 load(1, XDATA, add(CFA_XSP16, literal(-24)))
          CFI VB load(1, XDATA, add(CFA_XSP16, literal(-23)))
          CFI V0 load(1, XDATA, add(CFA_XSP16, literal(-22)))
          CFI V1 load(1, XDATA, add(CFA_XSP16, literal(-21)))
          CFI V2 load(1, XDATA, add(CFA_XSP16, literal(-20)))
          CFI V3 load(1, XDATA, add(CFA_XSP16, literal(-19)))
          CFI V4 load(1, XDATA, add(CFA_XSP16, literal(-18)))
          CFI V5 load(1, XDATA, add(CFA_XSP16, literal(-17)))
          CFI V6 load(1, XDATA, add(CFA_XSP16, literal(-16)))
          CFI V7 load(1, XDATA, add(CFA_XSP16, literal(-15)))
          CFI V8 load(1, XDATA, add(CFA_XSP16, literal(-14)))
          CFI V9 load(1, XDATA, add(CFA_XSP16, literal(-13)))
          CFI V10 load(1, XDATA, add(CFA_XSP16, literal(-12)))
          CFI V11 load(1, XDATA, add(CFA_XSP16, literal(-11)))
          CFI V12 load(1, XDATA, add(CFA_XSP16, literal(-10)))
          CFI V13 load(1, XDATA, add(CFA_XSP16, literal(-9)))
          CFI V14 load(1, XDATA, add(CFA_XSP16, literal(-8)))
          CFI V15 load(1, XDATA, add(CFA_XSP16, literal(-7)))
          CFI R7 load(1, XDATA, add(CFA_XSP16, literal(-6)))
          CFI ?RET_LOW load(1, XDATA, add(CFA_XSP16, literal(-5)))
          CFI ?RET_HIGH load(1, XDATA, add(CFA_XSP16, literal(-4)))
          CFI ?BRET_EXT load(1, XDATA, add(CFA_XSP16, literal(-3)))
          CFI DPL0 load(1, XDATA, add(CFA_XSP16, literal(-2)))
          CFI DPH0 load(1, XDATA, add(CFA_XSP16, literal(-1)))
          CFI CFA_SP SP+-2
          CFI CFA_XSP16 add(XSP16, 25)
          CFI Block cfiCond102 Using cfiCommon0
          CFI (cfiCond102) Function MT_AfIncomingMsg
          CFI (cfiCond102) Conditional ??CrossCallReturnLabel_31
          CFI (cfiCond102) R6 load(1, XDATA, add(CFA_XSP16, literal(-24)))
          CFI (cfiCond102) VB load(1, XDATA, add(CFA_XSP16, literal(-23)))
          CFI (cfiCond102) V0 load(1, XDATA, add(CFA_XSP16, literal(-22)))
          CFI (cfiCond102) V1 load(1, XDATA, add(CFA_XSP16, literal(-21)))
          CFI (cfiCond102) V2 load(1, XDATA, add(CFA_XSP16, literal(-20)))
          CFI (cfiCond102) V3 load(1, XDATA, add(CFA_XSP16, literal(-19)))
          CFI (cfiCond102) V4 load(1, XDATA, add(CFA_XSP16, literal(-18)))
          CFI (cfiCond102) V5 load(1, XDATA, add(CFA_XSP16, literal(-17)))
          CFI (cfiCond102) V6 load(1, XDATA, add(CFA_XSP16, literal(-16)))
          CFI (cfiCond102) V7 load(1, XDATA, add(CFA_XSP16, literal(-15)))
          CFI (cfiCond102) V8 load(1, XDATA, add(CFA_XSP16, literal(-14)))
          CFI (cfiCond102) V9 load(1, XDATA, add(CFA_XSP16, literal(-13)))
          CFI (cfiCond102) V10 load(1, XDATA, add(CFA_XSP16, literal(-12)))
          CFI (cfiCond102) V11 load(1, XDATA, add(CFA_XSP16, literal(-11)))
          CFI (cfiCond102) V12 load(1, XDATA, add(CFA_XSP16, literal(-10)))
          CFI (cfiCond102) V13 load(1, XDATA, add(CFA_XSP16, literal(-9)))
          CFI (cfiCond102) V14 load(1, XDATA, add(CFA_XSP16, literal(-8)))
          CFI (cfiCond102) V15 load(1, XDATA, add(CFA_XSP16, literal(-7)))
          CFI (cfiCond102) R7 load(1, XDATA, add(CFA_XSP16, literal(-6)))
          CFI (cfiCond102) ?RET_LOW load(1, XDATA, add(CFA_XSP16, literal(-5)))
          CFI (cfiCond102) ?RET_HIGH load(1, XDATA, add(CFA_XSP16, literal(-4)))
          CFI (cfiCond102) ?BRET_EXT load(1, XDATA, add(CFA_XSP16, literal(-3)))
          CFI (cfiCond102) DPL0 load(1, XDATA, add(CFA_XSP16, literal(-2)))
          CFI (cfiCond102) DPH0 load(1, XDATA, add(CFA_XSP16, literal(-1)))
          CFI (cfiCond102) CFA_SP SP+-2
          CFI (cfiCond102) CFA_XSP16 add(XSP16, 25)
          CFI Block cfiPicker103 Using cfiCommon1
          CFI (cfiPicker103) NoFunction
          CFI (cfiPicker103) Picker
        MOVX    A,@DPTR
        MOV     DPL,?V6
        MOV     DPH,?V7
        MOVX    @DPTR,A
        RET
          CFI EndBlock cfiCond101
          CFI EndBlock cfiCond102
          CFI EndBlock cfiPicker103

        RSEG BANKED_CODE:CODE:NOROOT(0)
?Subroutine16:
          CFI Block cfiCond104 Using cfiCommon0
          CFI Function MT_AfIncomingMsg
          CFI Conditional ??CrossCallReturnLabel_24
          CFI R6 load(1, XDATA, add(CFA_XSP16, literal(-24)))
          CFI VB load(1, XDATA, add(CFA_XSP16, literal(-23)))
          CFI V0 load(1, XDATA, add(CFA_XSP16, literal(-22)))
          CFI V1 load(1, XDATA, add(CFA_XSP16, literal(-21)))
          CFI V2 load(1, XDATA, add(CFA_XSP16, literal(-20)))
          CFI V3 load(1, XDATA, add(CFA_XSP16, literal(-19)))
          CFI V4 load(1, XDATA, add(CFA_XSP16, literal(-18)))
          CFI V5 load(1, XDATA, add(CFA_XSP16, literal(-17)))
          CFI V6 load(1, XDATA, add(CFA_XSP16, literal(-16)))
          CFI V7 load(1, XDATA, add(CFA_XSP16, literal(-15)))
          CFI V8 load(1, XDATA, add(CFA_XSP16, literal(-14)))
          CFI V9 load(1, XDATA, add(CFA_XSP16, literal(-13)))
          CFI V10 load(1, XDATA, add(CFA_XSP16, literal(-12)))
          CFI V11 load(1, XDATA, add(CFA_XSP16, literal(-11)))
          CFI V12 load(1, XDATA, add(CFA_XSP16, literal(-10)))
          CFI V13 load(1, XDATA, add(CFA_XSP16, literal(-9)))
          CFI V14 load(1, XDATA, add(CFA_XSP16, literal(-8)))
          CFI V15 load(1, XDATA, add(CFA_XSP16, literal(-7)))
          CFI R7 load(1, XDATA, add(CFA_XSP16, literal(-6)))
          CFI ?RET_LOW load(1, XDATA, add(CFA_XSP16, literal(-5)))
          CFI ?RET_HIGH load(1, XDATA, add(CFA_XSP16, literal(-4)))
          CFI ?BRET_EXT load(1, XDATA, add(CFA_XSP16, literal(-3)))
          CFI DPL0 load(1, XDATA, add(CFA_XSP16, literal(-2)))
          CFI DPH0 load(1, XDATA, add(CFA_XSP16, literal(-1)))
          CFI CFA_SP SP+-2
          CFI CFA_XSP16 add(XSP16, 25)
          CFI Block cfiCond105 Using cfiCommon0
          CFI (cfiCond105) Function MT_AfIncomingMsg
          CFI (cfiCond105) Conditional ??CrossCallReturnLabel_25
          CFI (cfiCond105) R6 load(1, XDATA, add(CFA_XSP16, literal(-24)))
          CFI (cfiCond105) VB load(1, XDATA, add(CFA_XSP16, literal(-23)))
          CFI (cfiCond105) V0 load(1, XDATA, add(CFA_XSP16, literal(-22)))
          CFI (cfiCond105) V1 load(1, XDATA, add(CFA_XSP16, literal(-21)))
          CFI (cfiCond105) V2 load(1, XDATA, add(CFA_XSP16, literal(-20)))
          CFI (cfiCond105) V3 load(1, XDATA, add(CFA_XSP16, literal(-19)))
          CFI (cfiCond105) V4 load(1, XDATA, add(CFA_XSP16, literal(-18)))
          CFI (cfiCond105) V5 load(1, XDATA, add(CFA_XSP16, literal(-17)))
          CFI (cfiCond105) V6 load(1, XDATA, add(CFA_XSP16, literal(-16)))
          CFI (cfiCond105) V7 load(1, XDATA, add(CFA_XSP16, literal(-15)))
          CFI (cfiCond105) V8 load(1, XDATA, add(CFA_XSP16, literal(-14)))
          CFI (cfiCond105) V9 load(1, XDATA, add(CFA_XSP16, literal(-13)))
          CFI (cfiCond105) V10 load(1, XDATA, add(CFA_XSP16, literal(-12)))
          CFI (cfiCond105) V11 load(1, XDATA, add(CFA_XSP16, literal(-11)))
          CFI (cfiCond105) V12 load(1, XDATA, add(CFA_XSP16, literal(-10)))
          CFI (cfiCond105) V13 load(1, XDATA, add(CFA_XSP16, literal(-9)))
          CFI (cfiCond105) V14 load(1, XDATA, add(CFA_XSP16, literal(-8)))
          CFI (cfiCond105) V15 load(1, XDATA, add(CFA_XSP16, literal(-7)))
          CFI (cfiCond105) R7 load(1, XDATA, add(CFA_XSP16, literal(-6)))
          CFI (cfiCond105) ?RET_LOW load(1, XDATA, add(CFA_XSP16, literal(-5)))
          CFI (cfiCond105) ?RET_HIGH load(1, XDATA, add(CFA_XSP16, literal(-4)))
          CFI (cfiCond105) ?BRET_EXT load(1, XDATA, add(CFA_XSP16, literal(-3)))
          CFI (cfiCond105) DPL0 load(1, XDATA, add(CFA_XSP16, literal(-2)))
          CFI (cfiCond105) DPH0 load(1, XDATA, add(CFA_XSP16, literal(-1)))
          CFI (cfiCond105) CFA_SP SP+-2
          CFI (cfiCond105) CFA_XSP16 add(XSP16, 25)
          CFI Block cfiPicker106 Using cfiCommon1
          CFI (cfiPicker106) NoFunction
          CFI (cfiPicker106) Picker
        LCALL   ?Subroutine38 & 0xFFFF
??CrossCallReturnLabel_65:
        LCALL   ?Subroutine33 & 0xFFFF
??CrossCallReturnLabel_53:
        MOVX    @DPTR,A
        RET
          CFI EndBlock cfiCond104
          CFI EndBlock cfiCond105
          CFI EndBlock cfiPicker106

        RSEG BANKED_CODE:CODE:NOROOT(0)
?Subroutine38:
          CFI Block cfiCond107 Using cfiCommon0
          CFI Function MT_AfIncomingMsg
          CFI Conditional ??CrossCallReturnLabel_60
          CFI R6 load(1, XDATA, add(CFA_XSP16, literal(-24)))
          CFI VB load(1, XDATA, add(CFA_XSP16, literal(-23)))
          CFI V0 load(1, XDATA, add(CFA_XSP16, literal(-22)))
          CFI V1 load(1, XDATA, add(CFA_XSP16, literal(-21)))
          CFI V2 load(1, XDATA, add(CFA_XSP16, literal(-20)))
          CFI V3 load(1, XDATA, add(CFA_XSP16, literal(-19)))
          CFI V4 load(1, XDATA, add(CFA_XSP16, literal(-18)))
          CFI V5 load(1, XDATA, add(CFA_XSP16, literal(-17)))
          CFI V6 load(1, XDATA, add(CFA_XSP16, literal(-16)))
          CFI V7 load(1, XDATA, add(CFA_XSP16, literal(-15)))
          CFI V8 load(1, XDATA, add(CFA_XSP16, literal(-14)))
          CFI V9 load(1, XDATA, add(CFA_XSP16, literal(-13)))
          CFI V10 load(1, XDATA, add(CFA_XSP16, literal(-12)))
          CFI V11 load(1, XDATA, add(CFA_XSP16, literal(-11)))
          CFI V12 load(1, XDATA, add(CFA_XSP16, literal(-10)))
          CFI V13 load(1, XDATA, add(CFA_XSP16, literal(-9)))
          CFI V14 load(1, XDATA, add(CFA_XSP16, literal(-8)))
          CFI V15 load(1, XDATA, add(CFA_XSP16, literal(-7)))
          CFI R7 load(1, XDATA, add(CFA_XSP16, literal(-6)))
          CFI ?RET_LOW load(1, XDATA, add(CFA_XSP16, literal(-5)))
          CFI ?RET_HIGH load(1, XDATA, add(CFA_XSP16, literal(-4)))
          CFI ?BRET_EXT load(1, XDATA, add(CFA_XSP16, literal(-3)))
          CFI DPL0 load(1, XDATA, add(CFA_XSP16, literal(-2)))
          CFI DPH0 load(1, XDATA, add(CFA_XSP16, literal(-1)))
          CFI CFA_SP SP+-2
          CFI CFA_XSP16 add(XSP16, 25)
          CFI Block cfiCond108 Using cfiCommon0
          CFI (cfiCond108) Function MT_AfIncomingMsg
          CFI (cfiCond108) Conditional ??CrossCallReturnLabel_61
          CFI (cfiCond108) R6 load(1, XDATA, add(CFA_XSP16, literal(-24)))
          CFI (cfiCond108) VB load(1, XDATA, add(CFA_XSP16, literal(-23)))
          CFI (cfiCond108) V0 load(1, XDATA, add(CFA_XSP16, literal(-22)))
          CFI (cfiCond108) V1 load(1, XDATA, add(CFA_XSP16, literal(-21)))
          CFI (cfiCond108) V2 load(1, XDATA, add(CFA_XSP16, literal(-20)))
          CFI (cfiCond108) V3 load(1, XDATA, add(CFA_XSP16, literal(-19)))
          CFI (cfiCond108) V4 load(1, XDATA, add(CFA_XSP16, literal(-18)))
          CFI (cfiCond108) V5 load(1, XDATA, add(CFA_XSP16, literal(-17)))
          CFI (cfiCond108) V6 load(1, XDATA, add(CFA_XSP16, literal(-16)))
          CFI (cfiCond108) V7 load(1, XDATA, add(CFA_XSP16, literal(-15)))
          CFI (cfiCond108) V8 load(1, XDATA, add(CFA_XSP16, literal(-14)))
          CFI (cfiCond108) V9 load(1, XDATA, add(CFA_XSP16, literal(-13)))
          CFI (cfiCond108) V10 load(1, XDATA, add(CFA_XSP16, literal(-12)))
          CFI (cfiCond108) V11 load(1, XDATA, add(CFA_XSP16, literal(-11)))
          CFI (cfiCond108) V12 load(1, XDATA, add(CFA_XSP16, literal(-10)))
          CFI (cfiCond108) V13 load(1, XDATA, add(CFA_XSP16, literal(-9)))
          CFI (cfiCond108) V14 load(1, XDATA, add(CFA_XSP16, literal(-8)))
          CFI (cfiCond108) V15 load(1, XDATA, add(CFA_XSP16, literal(-7)))
          CFI (cfiCond108) R7 load(1, XDATA, add(CFA_XSP16, literal(-6)))
          CFI (cfiCond108) ?RET_LOW load(1, XDATA, add(CFA_XSP16, literal(-5)))
          CFI (cfiCond108) ?RET_HIGH load(1, XDATA, add(CFA_XSP16, literal(-4)))
          CFI (cfiCond108) ?BRET_EXT load(1, XDATA, add(CFA_XSP16, literal(-3)))
          CFI (cfiCond108) DPL0 load(1, XDATA, add(CFA_XSP16, literal(-2)))
          CFI (cfiCond108) DPH0 load(1, XDATA, add(CFA_XSP16, literal(-1)))
          CFI (cfiCond108) CFA_SP SP+-2
          CFI (cfiCond108) CFA_XSP16 add(XSP16, 25)
          CFI Block cfiCond109 Using cfiCommon0
          CFI (cfiCond109) Function MT_AfIncomingMsg
          CFI (cfiCond109) Conditional ??CrossCallReturnLabel_62
          CFI (cfiCond109) R6 load(1, XDATA, add(CFA_XSP16, literal(-24)))
          CFI (cfiCond109) VB load(1, XDATA, add(CFA_XSP16, literal(-23)))
          CFI (cfiCond109) V0 load(1, XDATA, add(CFA_XSP16, literal(-22)))
          CFI (cfiCond109) V1 load(1, XDATA, add(CFA_XSP16, literal(-21)))
          CFI (cfiCond109) V2 load(1, XDATA, add(CFA_XSP16, literal(-20)))
          CFI (cfiCond109) V3 load(1, XDATA, add(CFA_XSP16, literal(-19)))
          CFI (cfiCond109) V4 load(1, XDATA, add(CFA_XSP16, literal(-18)))
          CFI (cfiCond109) V5 load(1, XDATA, add(CFA_XSP16, literal(-17)))
          CFI (cfiCond109) V6 load(1, XDATA, add(CFA_XSP16, literal(-16)))
          CFI (cfiCond109) V7 load(1, XDATA, add(CFA_XSP16, literal(-15)))
          CFI (cfiCond109) V8 load(1, XDATA, add(CFA_XSP16, literal(-14)))
          CFI (cfiCond109) V9 load(1, XDATA, add(CFA_XSP16, literal(-13)))
          CFI (cfiCond109) V10 load(1, XDATA, add(CFA_XSP16, literal(-12)))
          CFI (cfiCond109) V11 load(1, XDATA, add(CFA_XSP16, literal(-11)))
          CFI (cfiCond109) V12 load(1, XDATA, add(CFA_XSP16, literal(-10)))
          CFI (cfiCond109) V13 load(1, XDATA, add(CFA_XSP16, literal(-9)))
          CFI (cfiCond109) V14 load(1, XDATA, add(CFA_XSP16, literal(-8)))
          CFI (cfiCond109) V15 load(1, XDATA, add(CFA_XSP16, literal(-7)))
          CFI (cfiCond109) R7 load(1, XDATA, add(CFA_XSP16, literal(-6)))
          CFI (cfiCond109) ?RET_LOW load(1, XDATA, add(CFA_XSP16, literal(-5)))
          CFI (cfiCond109) ?RET_HIGH load(1, XDATA, add(CFA_XSP16, literal(-4)))
          CFI (cfiCond109) ?BRET_EXT load(1, XDATA, add(CFA_XSP16, literal(-3)))
