///////////////////////////////////////////////////////////////////////////////
//
// IAR C/C++ Compiler V9.30.1.3056 for 8051               24/Aug/2016  23:14:02
// Copyright 2004-2015 IAR Systems AB.
//
//    Core               =  plain
//    Code model         =  banked
//    Data model         =  large
//    Calling convention =  xdata reentrant
//    Constant location  =  data_rom
//    Dptr setup         =  1,16
//                          
//    Source file        =  
//        C:\Texas Instruments\Z-Stack Home 1.2.2a.44539\Components\mt\MT_ZDO.c
//    Command line       =  
//        -f "C:\Texas Instruments\Z-Stack Home
//        1.2.2a.44539\Projects\zstack\HomeAutomation\Zigbee-HomeAutomatic\CC2530DB\..\..\..\Tools\CC2530DB\f8wCoord.cfg"
//        (-DCPU32MHZ -DROOT=__near_func -DMAC_CFG_APP_PENDING_QUEUE=TRUE
//        -DMAC_CFG_TX_DATA_MAX=5 -DMAC_CFG_TX_MAX=8 -DMAC_CFG_RX_MAX=5
//        -DZDO_COORDINATOR -DRTR_NWK) -f "C:\Texas Instruments\Z-Stack Home
//        1.2.2a.44539\Projects\zstack\HomeAutomation\Zigbee-HomeAutomatic\CC2530DB\..\..\..\Tools\CC2530DB\f8wConfig.cfg"
//        (-DZIGBEEPRO -DSECURE=1 -DZG_SECURE_DYNAMIC=0 -DREFLECTOR
//        -DDEFAULT_CHANLIST=0x00000800 -DZDAPP_CONFIG_PAN_ID=0xFFFF
//        -DNWK_START_DELAY=100 -DEXTENDED_JOINING_RANDOM_MASK=0x007F
//        -DBEACON_REQUEST_DELAY=100 -DBEACON_REQ_DELAY_MASK=0x00FF
//        -DLINK_STATUS_JITTER_MASK=0x007F -DROUTE_EXPIRY_TIME=30
//        -DAPSC_ACK_WAIT_DURATION_POLLED=3000 -DNWK_INDIRECT_MSG_TIMEOUT=7
//        -DMAX_RREQ_ENTRIES=8 -DAPSC_MAX_FRAME_RETRIES=3
//        -DNWK_MAX_DATA_RETRIES=2 -DMAX_POLL_FAILURE_RETRIES=2 -DMAX_BCAST=9
//        -DAPS_MAX_GROUPS=16 -DMAX_RTG_ENTRIES=40 -DNWK_MAX_BINDING_ENTRIES=4
//        -DMAX_BINDING_CLUSTER_IDS=4 "-DDEFAULT_KEY={0x01, 0x03, 0x05, 0x07,
//        0x09, 0x0B, 0x0D, 0x0F, 0x00, 0x02, 0x04, 0x06, 0x08, 0x0A, 0x0C,
//        0x0D}" -DMAC_MAX_FRAME_SIZE=116 -DZDNWKMGR_MIN_TRANSMISSIONS=20
//        "-DCONST=const __code" -DGENERIC=__generic -DRFD_RCVC_ALWAYS_ON=FALSE
//        -DPOLL_RATE=1000 -DQUEUED_POLL_RATE=100 -DRESPONSE_POLL_RATE=100
//        -DREJOIN_POLL_RATE=440 -DREJOIN_BACKOFF=900000 -DREJOIN_SCAN=900000)
//        -f "C:\Texas Instruments\Z-Stack Home
//        1.2.2a.44539\Projects\zstack\HomeAutomation\Zigbee-HomeAutomatic\CC2530DB\..\..\..\Tools\CC2530DB\f8wZCL.cfg"
//        "C:\Texas Instruments\Z-Stack Home
//        1.2.2a.44539\Components\mt\MT_ZDO.c" -D SECURE=1 -D TC_LINKKEY_JOIN
//        -D NV_INIT -D xNV_RESTORE -D xHOLD_AUTO_START -D ZTOOL_P1 -D MT_TASK
//        -D MT_APP_FUNC -D MT_SYS_FUNC -D MT_ZDO_FUNC -D xLCD_SUPPORTED=DEBUG
//        -D MULTICAST_ENABLED=FALSE -D ZCL_READ -D ZCL_WRITE -D ZCL_REPORT -D
//        ZCL_EZMODE -D ZCL_BASIC -D ZCL_IDENTIFY -D ZCL_ON_OFF -D ZCL_SCENES
//        -D ZCL_GROUPS -D xZCL_LEVEL_CTRL -D ZCL_DIAGNOSTIC -D
//        FEATURE_SYSTEM_STATS -lC "C:\Texas Instruments\Z-Stack Home
//        1.2.2a.44539\Projects\zstack\HomeAutomation\Zigbee-HomeAutomatic\CC2530DB\CoordinatorEB\List"
//        -lA "C:\Texas Instruments\Z-Stack Home
//        1.2.2a.44539\Projects\zstack\HomeAutomation\Zigbee-HomeAutomatic\CC2530DB\CoordinatorEB\List"
//        --diag_suppress Pe001,Pa010 -o "C:\Texas Instruments\Z-Stack Home
//        1.2.2a.44539\Projects\zstack\HomeAutomation\Zigbee-HomeAutomatic\CC2530DB\CoordinatorEB\Obj"
//        -e --debug --core=plain --dptr=16,1 --data_model=large
//        --code_model=banked --calling_convention=xdata_reentrant
//        --place_constants=data_rom --nr_virtual_regs 16 -I "C:\Texas
//        Instruments\Z-Stack Home
//        1.2.2a.44539\Projects\zstack\HomeAutomation\Zigbee-HomeAutomatic\CC2530DB\"
//        -I "C:\Texas Instruments\Z-Stack Home
//        1.2.2a.44539\Projects\zstack\HomeAutomation\Zigbee-HomeAutomatic\CC2530DB\..\Source\"
//        -I "C:\Texas Instruments\Z-Stack Home
//        1.2.2a.44539\Projects\zstack\HomeAutomation\Zigbee-HomeAutomatic\CC2530DB\..\..\Source\"
//        -I "C:\Texas Instruments\Z-Stack Home
//        1.2.2a.44539\Projects\zstack\HomeAutomation\Zigbee-HomeAutomatic\CC2530DB\..\..\..\ZMain\TI2530DB\"
//        -I "C:\Texas Instruments\Z-Stack Home
//        1.2.2a.44539\Projects\zstack\HomeAutomation\Zigbee-HomeAutomatic\CC2530DB\..\..\..\..\..\Components\hal\include\"
//        -I "C:\Texas Instruments\Z-Stack Home
//        1.2.2a.44539\Projects\zstack\HomeAutomation\Zigbee-HomeAutomatic\CC2530DB\..\..\..\..\..\Components\hal\target\CC2530EB\"
//        -I "C:\Texas Instruments\Z-Stack Home
//        1.2.2a.44539\Projects\zstack\HomeAutomation\Zigbee-HomeAutomatic\CC2530DB\..\..\..\..\..\Components\mac\include\"
//        -I "C:\Texas Instruments\Z-Stack Home
//        1.2.2a.44539\Projects\zstack\HomeAutomation\Zigbee-HomeAutomatic\CC2530DB\..\..\..\..\..\Components\mac\high_level\"
//        -I "C:\Texas Instruments\Z-Stack Home
//        1.2.2a.44539\Projects\zstack\HomeAutomation\Zigbee-HomeAutomatic\CC2530DB\..\..\..\..\..\Components\mac\low_level\srf04\"
//        -I "C:\Texas Instruments\Z-Stack Home
//        1.2.2a.44539\Projects\zstack\HomeAutomation\Zigbee-HomeAutomatic\CC2530DB\..\..\..\..\..\Components\mac\low_level\srf04\single_chip\"
//        -I "C:\Texas Instruments\Z-Stack Home
//        1.2.2a.44539\Projects\zstack\HomeAutomation\Zigbee-HomeAutomatic\CC2530DB\..\..\..\..\..\Components\mt\"
//        -I "C:\Texas Instruments\Z-Stack Home
//        1.2.2a.44539\Projects\zstack\HomeAutomation\Zigbee-HomeAutomatic\CC2530DB\..\..\..\..\..\Components\osal\include\"
//        -I "C:\Texas Instruments\Z-Stack Home
//        1.2.2a.44539\Projects\zstack\HomeAutomation\Zigbee-HomeAutomatic\CC2530DB\..\..\..\..\..\Components\services\saddr\"
//        -I "C:\Texas Instruments\Z-Stack Home
//        1.2.2a.44539\Projects\zstack\HomeAutomation\Zigbee-HomeAutomatic\CC2530DB\..\..\..\..\..\Components\services\sdata\"
//        -I "C:\Texas Instruments\Z-Stack Home
//        1.2.2a.44539\Projects\zstack\HomeAutomation\Zigbee-HomeAutomatic\CC2530DB\..\..\..\..\..\Components\stack\af\"
//        -I "C:\Texas Instruments\Z-Stack Home
//        1.2.2a.44539\Projects\zstack\HomeAutomation\Zigbee-HomeAutomatic\CC2530DB\..\..\..\..\..\Components\stack\nwk\"
//        -I "C:\Texas Instruments\Z-Stack Home
//        1.2.2a.44539\Projects\zstack\HomeAutomation\Zigbee-HomeAutomatic\CC2530DB\..\..\..\..\..\Components\stack\sapi\"
//        -I "C:\Texas Instruments\Z-Stack Home
//        1.2.2a.44539\Projects\zstack\HomeAutomation\Zigbee-HomeAutomatic\CC2530DB\..\..\..\..\..\Components\stack\sec\"
//        -I "C:\Texas Instruments\Z-Stack Home
//        1.2.2a.44539\Projects\zstack\HomeAutomation\Zigbee-HomeAutomatic\CC2530DB\..\..\..\..\..\Components\stack\sys\"
//        -I "C:\Texas Instruments\Z-Stack Home
//        1.2.2a.44539\Projects\zstack\HomeAutomation\Zigbee-HomeAutomatic\CC2530DB\..\..\..\..\..\Components\stack\zcl\"
//        -I "C:\Texas Instruments\Z-Stack Home
//        1.2.2a.44539\Projects\zstack\HomeAutomation\Zigbee-HomeAutomatic\CC2530DB\..\..\..\..\..\Components\stack\zdo\"
//        -I "C:\Texas Instruments\Z-Stack Home
//        1.2.2a.44539\Projects\zstack\HomeAutomation\Zigbee-HomeAutomatic\CC2530DB\..\..\..\..\..\Components\zmac\"
//        -I "C:\Texas Instruments\Z-Stack Home
//        1.2.2a.44539\Projects\zstack\HomeAutomation\Zigbee-HomeAutomatic\CC2530DB\..\..\..\..\..\Components\zmac\f8w\"
//        -Ohz --require_prototypes
//    List file          =  
//        C:\Texas Instruments\Z-Stack Home
//        1.2.2a.44539\Projects\zstack\HomeAutomation\Zigbee-HomeAutomatic\CC2530DB\CoordinatorEB\List\MT_ZDO.s51
//
///////////////////////////////////////////////////////////////////////////////

        NAME MT_ZDO

        RTMODEL "__SystemLibrary", "CLib"
        RTMODEL "__calling_convention", "xdata_reentrant"
        RTMODEL "__code_model", "banked"
        RTMODEL "__core", "plain"
        RTMODEL "__data_model", "large"
        RTMODEL "__dptr_size", "16"
        RTMODEL "__extended_stack", "disabled"
        RTMODEL "__location_for_constants", "data"
        RTMODEL "__number_of_dptrs", "1"
        RTMODEL "__rt_version", "1"

        RSEG DOVERLAY:DATA:NOROOT(0)
        RSEG IOVERLAY:IDATA:NOROOT(0)
        RSEG ISTACK:IDATA:NOROOT(0)
        RSEG PSTACK:XDATA:NOROOT(0)
        RSEG XSTACK:XDATA:NOROOT(0)

        EXTERN ?V0
        EXTERN ?V1
        EXTERN ?V2
        EXTERN ?V3
        EXTERN ?V4
        EXTERN ?V5
        EXTERN ?V6
        EXTERN ?V7
        EXTERN ?V8
        EXTERN ?V9
        EXTERN ?V10
        EXTERN ?V11
        EXTERN ?V12
        EXTERN ?V13
        EXTERN ?V14
        EXTERN ?V15
        EXTERN ?ALLOC_XSTACK8
        EXTERN ?BANKED_ENTER_XDATA
        EXTERN ?BANKED_LEAVE_XDATA
        EXTERN ?BDISPATCH
        EXTERN ?BRET
        EXTERN ?DEALLOC_XSTACK8
        EXTERN ?PUSH_XSTACK_I_ONE
        EXTERN ?PUSH_XSTACK_I_THREE
        EXTERN ?PUSH_XSTACK_I_TWO
        EXTERN ?XSP
        EXTERN ?XSTACK_DISP0_8
        EXTERN ?XSTACK_DISP100_8
        EXTERN ?XSTACK_DISP101_8
        EXTERN ?XSTACK_DISP102_8
        EXTERN __INIT_XDATA_Z

        PUBLIC `??MT_ZdoBeaconIndCB::?relay`
        FUNCTION `??MT_ZdoBeaconIndCB::?relay`,0203H
        FUNCTION `??MT_ZdoBindRequest::?relay`,0203H
        PUBLIC `??MT_ZdoCommandProcessing::?relay`
        FUNCTION `??MT_ZdoCommandProcessing::?relay`,0203H
        FUNCTION `??MT_ZdoEndDevBindRequest::?relay`,0203H
        PUBLIC `??MT_ZdoInit::?relay`
        FUNCTION `??MT_ZdoInit::?relay`,0203H
        PUBLIC `??MT_ZdoJoinCnfCB::?relay`
        FUNCTION `??MT_ZdoJoinCnfCB::?relay`,0203H
        FUNCTION `??MT_ZdoMatchDescRequest::?relay`,0203H
        FUNCTION `??MT_ZdoNwkAddrOfInterestReq::?relay`,0203H
        PUBLIC `??MT_ZdoNwkDiscoveryCnfCB::?relay`
        FUNCTION `??MT_ZdoNwkDiscoveryCnfCB::?relay`,0203H
        FUNCTION `??MT_ZdoSendData::?relay`,0203H
        PUBLIC `??MT_ZdoSendMsgCB::?relay`
        FUNCTION `??MT_ZdoSendMsgCB::?relay`,0203H
        FUNCTION `??MT_ZdoUnbindRequest::?relay`,0203H
        PUBLIC MT_ZdoBeaconIndCB
        FUNCTION MT_ZdoBeaconIndCB,0a1603H
        ARGFRAME XSTACK, 9, STACK
        ARGFRAME IOVERLAY, 0, STATIC
        ARGFRAME DOVERLAY, 0, STATIC
        LOCFRAME ISTACK, 1, STACK
        LOCFRAME XSTACK, 14, STACK
        FUNCTION MT_ZdoBindRequest,0a1203H
        ARGFRAME XSTACK, 52, STACK
        ARGFRAME IOVERLAY, 0, STATIC
        ARGFRAME DOVERLAY, 0, STATIC
        LOCFRAME ISTACK, 1, STACK
        LOCFRAME XSTACK, 43, STACK
        PUBLIC MT_ZdoCommandProcessing
        FUNCTION MT_ZdoCommandProcessing,0a1203H
        ARGFRAME XSTACK, 0, STACK
        LOCFRAME ISTACK, 1, STACK
        LOCFRAME XSTACK, 56, STACK
        FUNCTION MT_ZdoEndDevBindRequest,0a1203H
        ARGFRAME XSTACK, 52, STACK
        ARGFRAME IOVERLAY, 0, STATIC
        ARGFRAME DOVERLAY, 0, STATIC
        LOCFRAME ISTACK, 1, STACK
        LOCFRAME XSTACK, 99, STACK
        PUBLIC MT_ZdoInit
        FUNCTION MT_ZdoInit,0203H
        ARGFRAME XSTACK, 0, STACK
        PUBLIC MT_ZdoJoinCnfCB
        FUNCTION MT_ZdoJoinCnfCB,021603H
        ARGFRAME XSTACK, 0, STACK
        LOCFRAME ISTACK, 1, STACK
        LOCFRAME XSTACK, 14, STACK
        FUNCTION MT_ZdoMatchDescRequest,0a1203H
        ARGFRAME XSTACK, 52, STACK
        ARGFRAME IOVERLAY, 0, STATIC
        ARGFRAME DOVERLAY, 0, STATIC
        LOCFRAME ISTACK, 1, STACK
        LOCFRAME XSTACK, 100, STACK
        FUNCTION MT_ZdoNwkAddrOfInterestReq,0a1203H
        ARGFRAME XSTACK, 52, STACK
        ARGFRAME IOVERLAY, 0, STATIC
        ARGFRAME DOVERLAY, 0, STATIC
        LOCFRAME ISTACK, 1, STACK
        LOCFRAME XSTACK, 25, STACK
        PUBLIC MT_ZdoNwkDiscoveryCnfCB
        FUNCTION MT_ZdoNwkDiscoveryCnfCB,021603H
        ARGFRAME XSTACK, 0, STACK
        LOCFRAME XSTACK, 9, STACK
        FUNCTION MT_ZdoSendData,0a1203H
        ARGFRAME XSTACK, 52, STACK
        ARGFRAME IOVERLAY, 0, STATIC
        ARGFRAME DOVERLAY, 0, STATIC
        LOCFRAME ISTACK, 1, STACK
        LOCFRAME XSTACK, 30, STACK
        PUBLIC MT_ZdoSendMsgCB
        FUNCTION MT_ZdoSendMsgCB,0a1203H
        ARGFRAME XSTACK, 0, STACK
        LOCFRAME ISTACK, 1, STACK
        LOCFRAME XSTACK, 22, STACK
        FUNCTION MT_ZdoUnbindRequest,0a1203H
        ARGFRAME XSTACK, 52, STACK
        ARGFRAME IOVERLAY, 0, STATIC
        ARGFRAME DOVERLAY, 0, STATIC
        LOCFRAME ISTACK, 1, STACK
        LOCFRAME XSTACK, 43, STACK
        PUBLIC _zdoCallbackSub
        PUBLIC ignoreIndication
        PUBLIC pBeaconIndBuf
        
          CFI Names cfiNames0
          CFI StackFrame CFA_SP SP IDATA
          CFI StackFrame CFA_PSP16 PSP16 XDATA
          CFI StackFrame CFA_XSP16 XSP16 XDATA
          CFI StaticOverlayFrame CFA_IOVERLAY IOVERLAY
          CFI StaticOverlayFrame CFA_DOVERLAY DOVERLAY
          CFI Resource `PSW.CY`:1, `B.BR0`:1, `B.BR1`:1, `B.BR2`:1, `B.BR3`:1
          CFI Resource `B.BR4`:1, `B.BR5`:1, `B.BR6`:1, `B.BR7`:1, `VB.BR8`:1
          CFI Resource `VB.BR9`:1, `VB.BR10`:1, `VB.BR11`:1, `VB.BR12`:1
          CFI Resource `VB.BR13`:1, `VB.BR14`:1, `VB.BR15`:1, VB:8, B:8, A:8
          CFI Resource PSW:8, DPL0:8, DPH0:8, R0:8, R1:8, R2:8, R3:8, R4:8, R5:8
          CFI Resource R6:8, R7:8, V0:8, V1:8, V2:8, V3:8, V4:8, V5:8, V6:8, V7:8
          CFI Resource V8:8, V9:8, V10:8, V11:8, V12:8, V13:8, V14:8, V15:8, SP:8
          CFI Resource PSPH:8, PSPL:8, PSP16:16, XSPH:8, XSPL:8, XSP16:16
          CFI VirtualResource ?RET:24
          CFI Resource ?BRET_EXT:8
          CFI VirtualResource ?RET_HIGH:8, ?RET_LOW:8
          CFI ResourceParts PSP16 PSPH, PSPL
          CFI ResourceParts XSP16 XSPH, XSPL
          CFI ResourceParts ?RET ?BRET_EXT, ?RET_HIGH, ?RET_LOW
          CFI EndNames cfiNames0
        
          CFI Common cfiCommon0 Using cfiNames0
          CFI CodeAlign 1
          CFI DataAlign -1
          CFI ReturnAddress ?RET CODE
          CFI CFA_DOVERLAY Used
          CFI CFA_IOVERLAY Used
          CFI CFA_SP SP+-3
          CFI CFA_PSP16 PSP16+0
          CFI CFA_XSP16 XSP16+0
          CFI `PSW.CY` SameValue
          CFI `B.BR0` SameValue
          CFI `B.BR1` SameValue
          CFI `B.BR2` SameValue
          CFI `B.BR3` SameValue
          CFI `B.BR4` SameValue
          CFI `B.BR5` SameValue
          CFI `B.BR6` SameValue
          CFI `B.BR7` SameValue
          CFI `VB.BR8` SameValue
          CFI `VB.BR9` SameValue
          CFI `VB.BR10` SameValue
          CFI `VB.BR11` SameValue
          CFI `VB.BR12` SameValue
          CFI `VB.BR13` SameValue
          CFI `VB.BR14` SameValue
          CFI `VB.BR15` SameValue
          CFI VB SameValue
          CFI B Undefined
          CFI A Undefined
          CFI PSW SameValue
          CFI DPL0 SameValue
          CFI DPH0 SameValue
          CFI R0 Undefined
          CFI R1 Undefined
          CFI R2 Undefined
          CFI R3 Undefined
          CFI R4 Undefined
          CFI R5 Undefined
          CFI R6 SameValue
          CFI R7 SameValue
          CFI V0 SameValue
          CFI V1 SameValue
          CFI V2 SameValue
          CFI V3 SameValue
          CFI V4 SameValue
          CFI V5 SameValue
          CFI V6 SameValue
          CFI V7 SameValue
          CFI V8 SameValue
          CFI V9 SameValue
          CFI V10 SameValue
          CFI V11 SameValue
          CFI V12 SameValue
          CFI V13 SameValue
          CFI V14 SameValue
          CFI V15 SameValue
          CFI PSPH Undefined
          CFI PSPL Undefined
          CFI XSPH Undefined
          CFI XSPL Undefined
          CFI ?RET Concat
          CFI ?BRET_EXT Frame(CFA_SP, 3)
          CFI ?RET_HIGH Frame(CFA_SP, 2)
          CFI ?RET_LOW Frame(CFA_SP, 1)
          CFI EndCommon cfiCommon0
        
        
          CFI Common cfiCommon1 Using cfiNames0
          CFI CodeAlign 1
          CFI DataAlign -1
          CFI ReturnAddress ?RET CODE
          CFI CFA_DOVERLAY Used
          CFI CFA_IOVERLAY Used
          CFI CFA_SP SP+-2
          CFI CFA_PSP16 PSP16+0
          CFI CFA_XSP16 XSP16+0
          CFI `PSW.CY` SameValue
          CFI `B.BR0` SameValue
          CFI `B.BR1` SameValue
          CFI `B.BR2` SameValue
          CFI `B.BR3` SameValue
          CFI `B.BR4` SameValue
          CFI `B.BR5` SameValue
          CFI `B.BR6` SameValue
          CFI `B.BR7` SameValue
          CFI `VB.BR8` SameValue
          CFI `VB.BR9` SameValue
          CFI `VB.BR10` SameValue
          CFI `VB.BR11` SameValue
          CFI `VB.BR12` SameValue
          CFI `VB.BR13` SameValue
          CFI `VB.BR14` SameValue
          CFI `VB.BR15` SameValue
          CFI VB SameValue
          CFI B SameValue
          CFI A SameValue
          CFI PSW SameValue
          CFI DPL0 SameValue
          CFI DPH0 SameValue
          CFI R0 SameValue
          CFI R1 SameValue
          CFI R2 SameValue
          CFI R3 SameValue
          CFI R4 SameValue
          CFI R5 SameValue
          CFI R6 SameValue
          CFI R7 SameValue
          CFI V0 SameValue
          CFI V1 SameValue
          CFI V2 SameValue
          CFI V3 SameValue
          CFI V4 SameValue
          CFI V5 SameValue
          CFI V6 SameValue
          CFI V7 SameValue
          CFI V8 SameValue
          CFI V9 SameValue
          CFI V10 SameValue
          CFI V11 SameValue
          CFI V12 SameValue
          CFI V13 SameValue
          CFI V14 SameValue
          CFI V15 SameValue
          CFI PSPH Undefined
          CFI PSPL Undefined
          CFI XSPH Undefined
          CFI XSPL Undefined
          CFI ?RET Concat
          CFI ?BRET_EXT SameValue
          CFI ?RET_HIGH Frame(CFA_SP, 2)
          CFI ?RET_LOW Frame(CFA_SP, 1)
          CFI EndCommon cfiCommon1
        
MT_BuildAndSendZToolResponse SYMBOL "MT_BuildAndSendZToolResponse"
`??MT_BuildAndSendZToolResponse::?relay` SYMBOL "?relay", MT_BuildAndSendZToolResponse
ZDApp_JoinReq       SYMBOL "ZDApp_JoinReq"
`??ZDApp_JoinReq::?relay` SYMBOL "?relay", ZDApp_JoinReq
ZDApp_NetworkDiscoveryReq SYMBOL "ZDApp_NetworkDiscoveryReq"
`??ZDApp_NetworkDiscoveryReq::?relay` SYMBOL "?relay", ZDApp_NetworkDiscoveryReq
ZDApp_SetRejoinBackoffDuration SYMBOL "ZDApp_SetRejoinBackoffDuration"
`??ZDApp_SetRejoinBackoffDuration::?relay` SYMBOL "?relay", ZDApp_SetRejoinBackoffDuration
ZDApp_SetRejoinScanDuration SYMBOL "ZDApp_SetRejoinScanDuration"
`??ZDApp_SetRejoinScanDuration::?relay` SYMBOL "?relay", ZDApp_SetRejoinScanDuration
ZDOInitDevice       SYMBOL "ZDOInitDevice"
`??ZDOInitDevice::?relay` SYMBOL "?relay", ZDOInitDevice
ZDO_DeregisterForZdoCB SYMBOL "ZDO_DeregisterForZdoCB"
`??ZDO_DeregisterForZdoCB::?relay` SYMBOL "?relay", ZDO_DeregisterForZdoCB
ZDO_RegisterForZDOMsg SYMBOL "ZDO_RegisterForZDOMsg"
`??ZDO_RegisterForZDOMsg::?relay` SYMBOL "?relay", ZDO_RegisterForZDOMsg
ZDO_RegisterForZdoCB SYMBOL "ZDO_RegisterForZdoCB"
`??ZDO_RegisterForZdoCB::?relay` SYMBOL "?relay", ZDO_RegisterForZdoCB
ZDO_RemoveRegisteredCB SYMBOL "ZDO_RemoveRegisteredCB"
`??ZDO_RemoveRegisteredCB::?relay` SYMBOL "?relay", ZDO_RemoveRegisteredCB
ZDP_BindUnbindReq   SYMBOL "ZDP_BindUnbindReq"
`??ZDP_BindUnbindReq::?relay` SYMBOL "?relay", ZDP_BindUnbindReq
ZDP_DeviceAnnce     SYMBOL "ZDP_DeviceAnnce"
`??ZDP_DeviceAnnce::?relay` SYMBOL "?relay", ZDP_DeviceAnnce
ZDP_EndDeviceBindReq SYMBOL "ZDP_EndDeviceBindReq"
`??ZDP_EndDeviceBindReq::?relay` SYMBOL "?relay", ZDP_EndDeviceBindReq
ZDP_IEEEAddrReq     SYMBOL "ZDP_IEEEAddrReq"
`??ZDP_IEEEAddrReq::?relay` SYMBOL "?relay", ZDP_IEEEAddrReq
ZDP_MatchDescReq    SYMBOL "ZDP_MatchDescReq"
`??ZDP_MatchDescReq::?relay` SYMBOL "?relay", ZDP_MatchDescReq
ZDP_NWKAddrOfInterestReq SYMBOL "ZDP_NWKAddrOfInterestReq"
`??ZDP_NWKAddrOfInterestReq::?relay` SYMBOL "?relay", ZDP_NWKAddrOfInterestReq
ZDP_NwkAddrReq      SYMBOL "ZDP_NwkAddrReq"
`??ZDP_NwkAddrReq::?relay` SYMBOL "?relay", ZDP_NwkAddrReq
ZDP_SendData        SYMBOL "ZDP_SendData"
`??ZDP_SendData::?relay` SYMBOL "?relay", ZDP_SendData
ZDP_ServerDiscReq   SYMBOL "ZDP_ServerDiscReq"
`??ZDP_ServerDiscReq::?relay` SYMBOL "?relay", ZDP_ServerDiscReq
ZDP_SimpleDescReq   SYMBOL "ZDP_SimpleDescReq"
`??ZDP_SimpleDescReq::?relay` SYMBOL "?relay", ZDP_SimpleDescReq
ZDP_UserDescSet     SYMBOL "ZDP_UserDescSet"
`??ZDP_UserDescSet::?relay` SYMBOL "?relay", ZDP_UserDescSet
osal_build_uint16   SYMBOL "osal_build_uint16"
`??osal_build_uint16::?relay` SYMBOL "?relay", osal_build_uint16
osal_build_uint32   SYMBOL "osal_build_uint32"
`??osal_build_uint32::?relay` SYMBOL "?relay", osal_build_uint32
osal_mem_alloc      SYMBOL "osal_mem_alloc"
`??osal_mem_alloc::?relay` SYMBOL "?relay", osal_mem_alloc
osal_mem_free       SYMBOL "osal_mem_free"
`??osal_mem_free::?relay` SYMBOL "?relay", osal_mem_free
osal_memcpy         SYMBOL "osal_memcpy"
`??osal_memcpy::?relay` SYMBOL "?relay", osal_memcpy
sAddrExtCpy         SYMBOL "sAddrExtCpy"
`??sAddrExtCpy::?relay` SYMBOL "?relay", sAddrExtCpy
MT_ZdoBeaconIndCB   SYMBOL "MT_ZdoBeaconIndCB"
`??MT_ZdoBeaconIndCB::?relay` SYMBOL "?relay", MT_ZdoBeaconIndCB
MT_ZdoCommandProcessing SYMBOL "MT_ZdoCommandProcessing"
`??MT_ZdoCommandProcessing::?relay` SYMBOL "?relay", MT_ZdoCommandProcessing
MT_ZdoInit          SYMBOL "MT_ZdoInit"
`??MT_ZdoInit::?relay` SYMBOL "?relay", MT_ZdoInit
MT_ZdoJoinCnfCB     SYMBOL "MT_ZdoJoinCnfCB"
`??MT_ZdoJoinCnfCB::?relay` SYMBOL "?relay", MT_ZdoJoinCnfCB
MT_ZdoNwkDiscoveryCnfCB SYMBOL "MT_ZdoNwkDiscoveryCnfCB"
`??MT_ZdoNwkDiscoveryCnfCB::?relay` SYMBOL "?relay", MT_ZdoNwkDiscoveryCnfCB
MT_ZdoSendMsgCB     SYMBOL "MT_ZdoSendMsgCB"
`??MT_ZdoSendMsgCB::?relay` SYMBOL "?relay", MT_ZdoSendMsgCB

        EXTERN `??MT_BuildAndSendZToolResponse::?relay`
        FUNCTION `??MT_BuildAndSendZToolResponse::?relay`,00H
        EXTERN `??ZDApp_JoinReq::?relay`
        FUNCTION `??ZDApp_JoinReq::?relay`,00H
        EXTERN `??ZDApp_NetworkDiscoveryReq::?relay`
        FUNCTION `??ZDApp_NetworkDiscoveryReq::?relay`,00H
        EXTERN `??ZDApp_SetRejoinBackoffDuration::?relay`
        FUNCTION `??ZDApp_SetRejoinBackoffDuration::?relay`,00H
        EXTERN `??ZDApp_SetRejoinScanDuration::?relay`
        FUNCTION `??ZDApp_SetRejoinScanDuration::?relay`,00H
        EXTERN `??ZDOInitDevice::?relay`
        FUNCTION `??ZDOInitDevice::?relay`,00H
        EXTERN `??ZDO_DeregisterForZdoCB::?relay`
        FUNCTION `??ZDO_DeregisterForZdoCB::?relay`,00H
        EXTERN `??ZDO_RegisterForZDOMsg::?relay`
        FUNCTION `??ZDO_RegisterForZDOMsg::?relay`,00H
        EXTERN `??ZDO_RegisterForZdoCB::?relay`
        FUNCTION `??ZDO_RegisterForZdoCB::?relay`,00H
        EXTERN `??ZDO_RemoveRegisteredCB::?relay`
        FUNCTION `??ZDO_RemoveRegisteredCB::?relay`,00H
        EXTERN `??ZDP_BindUnbindReq::?relay`
        FUNCTION `??ZDP_BindUnbindReq::?relay`,00H
        EXTERN `??ZDP_DeviceAnnce::?relay`
        FUNCTION `??ZDP_DeviceAnnce::?relay`,00H
        EXTERN `??ZDP_EndDeviceBindReq::?relay`
        FUNCTION `??ZDP_EndDeviceBindReq::?relay`,00H
        EXTERN `??ZDP_IEEEAddrReq::?relay`
        FUNCTION `??ZDP_IEEEAddrReq::?relay`,00H
        EXTERN `??ZDP_MatchDescReq::?relay`
        FUNCTION `??ZDP_MatchDescReq::?relay`,00H
        EXTERN `??ZDP_NWKAddrOfInterestReq::?relay`
        FUNCTION `??ZDP_NWKAddrOfInterestReq::?relay`,00H
        EXTERN `??ZDP_NwkAddrReq::?relay`
        FUNCTION `??ZDP_NwkAddrReq::?relay`,00H
        EXTERN `??ZDP_SendData::?relay`
        FUNCTION `??ZDP_SendData::?relay`,00H
        EXTERN `??ZDP_ServerDiscReq::?relay`
        FUNCTION `??ZDP_ServerDiscReq::?relay`,00H
        EXTERN `??ZDP_SimpleDescReq::?relay`
        FUNCTION `??ZDP_SimpleDescReq::?relay`,00H
        EXTERN `??ZDP_UserDescSet::?relay`
        FUNCTION `??ZDP_UserDescSet::?relay`,00H
        EXTERN `??osal_build_uint16::?relay`
        FUNCTION `??osal_build_uint16::?relay`,00H
        EXTERN `??osal_build_uint32::?relay`
        FUNCTION `??osal_build_uint32::?relay`,00H
        EXTERN `??osal_mem_alloc::?relay`
        FUNCTION `??osal_mem_alloc::?relay`,00H
        EXTERN `??osal_mem_free::?relay`
        FUNCTION `??osal_mem_free::?relay`,00H
        EXTERN `??osal_memcpy::?relay`
        FUNCTION `??osal_memcpy::?relay`,00H
        EXTERN `??sAddrExtCpy::?relay`
        FUNCTION `??sAddrExtCpy::?relay`,00H
        EXTERN MT_BuildAndSendZToolResponse
        FUNCTION MT_BuildAndSendZToolResponse,0202H
        ARGFRAME ISTACK, 0, STACK
        ARGFRAME PSTACK, 0, STACK
        ARGFRAME XSTACK, 92, STACK
        ARGFRAME IOVERLAY, 0, STATIC
        ARGFRAME DOVERLAY, 0, STATIC
        EXTERN MT_TaskID
        EXTERN ZDApp_JoinReq
        FUNCTION ZDApp_JoinReq,0202H
        ARGFRAME ISTACK, 0, STACK
        ARGFRAME PSTACK, 0, STACK
        ARGFRAME XSTACK, 56, STACK
        ARGFRAME IOVERLAY, 0, STATIC
        ARGFRAME DOVERLAY, 0, STATIC
        EXTERN ZDApp_NetworkDiscoveryReq
        FUNCTION ZDApp_NetworkDiscoveryReq,0202H
        ARGFRAME ISTACK, 0, STACK
        ARGFRAME PSTACK, 0, STACK
        ARGFRAME XSTACK, 52, STACK
        ARGFRAME IOVERLAY, 0, STATIC
        ARGFRAME DOVERLAY, 0, STATIC
        EXTERN ZDApp_SetRejoinBackoffDuration
        FUNCTION ZDApp_SetRejoinBackoffDuration,0202H
        ARGFRAME ISTACK, 0, STACK
        ARGFRAME PSTACK, 0, STACK
        ARGFRAME XSTACK, 52, STACK
        ARGFRAME IOVERLAY, 0, STATIC
        ARGFRAME DOVERLAY, 0, STATIC
        EXTERN ZDApp_SetRejoinScanDuration
        FUNCTION ZDApp_SetRejoinScanDuration,0202H
        ARGFRAME ISTACK, 0, STACK
        ARGFRAME PSTACK, 0, STACK
        ARGFRAME XSTACK, 52, STACK
        ARGFRAME IOVERLAY, 0, STATIC
        ARGFRAME DOVERLAY, 0, STATIC
        EXTERN ZDOInitDevice
        FUNCTION ZDOInitDevice,0202H
        ARGFRAME ISTACK, 0, STACK
        ARGFRAME PSTACK, 0, STACK
        ARGFRAME XSTACK, 52, STACK
        ARGFRAME IOVERLAY, 0, STATIC
        ARGFRAME DOVERLAY, 0, STATIC
        EXTERN ZDO_DeregisterForZdoCB
        FUNCTION ZDO_DeregisterForZdoCB,0202H
        ARGFRAME ISTACK, 0, STACK
        ARGFRAME PSTACK, 0, STACK
        ARGFRAME XSTACK, 14, STACK
        ARGFRAME IOVERLAY, 0, STATIC
        ARGFRAME DOVERLAY, 0, STATIC
        EXTERN ZDO_RegisterForZDOMsg
        FUNCTION ZDO_RegisterForZDOMsg,0202H
        ARGFRAME ISTACK, 0, STACK
        ARGFRAME PSTACK, 0, STACK
        ARGFRAME XSTACK, 52, STACK
        ARGFRAME IOVERLAY, 0, STATIC
        ARGFRAME DOVERLAY, 0, STATIC
        EXTERN ZDO_RegisterForZdoCB
        FUNCTION ZDO_RegisterForZdoCB,0202H
        ARGFRAME ISTACK, 0, STACK
        ARGFRAME PSTACK, 0, STACK
        ARGFRAME XSTACK, 52, STACK
        ARGFRAME IOVERLAY, 0, STATIC
        ARGFRAME DOVERLAY, 0, STATIC
        EXTERN ZDO_RemoveRegisteredCB
        FUNCTION ZDO_RemoveRegisteredCB,0202H
        ARGFRAME ISTACK, 0, STACK
        ARGFRAME PSTACK, 0, STACK
        ARGFRAME XSTACK, 52, STACK
        ARGFRAME IOVERLAY, 0, STATIC
        ARGFRAME DOVERLAY, 0, STATIC
        EXTERN ZDP_BindUnbindReq
        FUNCTION ZDP_BindUnbindReq,0202H
        ARGFRAME ISTACK, 0, STACK
        ARGFRAME PSTACK, 0, STACK
        ARGFRAME XSTACK, 43, STACK
        ARGFRAME IOVERLAY, 0, STATIC
        ARGFRAME DOVERLAY, 0, STATIC
        EXTERN ZDP_DeviceAnnce
        FUNCTION ZDP_DeviceAnnce,0202H
        ARGFRAME ISTACK, 0, STACK
        ARGFRAME PSTACK, 0, STACK
        ARGFRAME XSTACK, 53, STACK
        ARGFRAME IOVERLAY, 0, STATIC
        ARGFRAME DOVERLAY, 0, STATIC
        EXTERN ZDP_EndDeviceBindReq
        FUNCTION ZDP_EndDeviceBindReq,0202H
        ARGFRAME ISTACK, 0, STACK
        ARGFRAME PSTACK, 0, STACK
        ARGFRAME XSTACK, 99, STACK
        ARGFRAME IOVERLAY, 0, STATIC
        ARGFRAME DOVERLAY, 0, STATIC
        EXTERN ZDP_IEEEAddrReq
        FUNCTION ZDP_IEEEAddrReq,0202H
        ARGFRAME ISTACK, 0, STACK
        ARGFRAME PSTACK, 0, STACK
        ARGFRAME XSTACK, 52, STACK
        ARGFRAME IOVERLAY, 0, STATIC
        ARGFRAME DOVERLAY, 0, STATIC
        EXTERN ZDP_MatchDescReq
        FUNCTION ZDP_MatchDescReq,0202H
        ARGFRAME ISTACK, 0, STACK
        ARGFRAME PSTACK, 0, STACK
        ARGFRAME XSTACK, 100, STACK
        ARGFRAME IOVERLAY, 0, STATIC
        ARGFRAME DOVERLAY, 0, STATIC
        EXTERN ZDP_NWKAddrOfInterestReq
        FUNCTION ZDP_NWKAddrOfInterestReq,0202H
        ARGFRAME ISTACK, 0, STACK
        ARGFRAME PSTACK, 0, STACK
        ARGFRAME XSTACK, 53, STACK
        ARGFRAME IOVERLAY, 0, STATIC
        ARGFRAME DOVERLAY, 0, STATIC
        EXTERN ZDP_NwkAddrReq
        FUNCTION ZDP_NwkAddrReq,0202H
        ARGFRAME ISTACK, 0, STACK
        ARGFRAME PSTACK, 0, STACK
        ARGFRAME XSTACK, 52, STACK
        ARGFRAME IOVERLAY, 0, STATIC
        ARGFRAME DOVERLAY, 0, STATIC
        EXTERN ZDP_SendData
        FUNCTION ZDP_SendData,0202H
        ARGFRAME ISTACK, 0, STACK
        ARGFRAME PSTACK, 0, STACK
        ARGFRAME XSTACK, 30, STACK
        ARGFRAME IOVERLAY, 0, STATIC
        ARGFRAME DOVERLAY, 0, STATIC
        EXTERN ZDP_ServerDiscReq
        FUNCTION ZDP_ServerDiscReq,0202H
        ARGFRAME ISTACK, 0, STACK
        ARGFRAME PSTACK, 0, STACK
        ARGFRAME XSTACK, 52, STACK
        ARGFRAME IOVERLAY, 0, STATIC
        ARGFRAME DOVERLAY, 0, STATIC
        EXTERN ZDP_SimpleDescReq
        FUNCTION ZDP_SimpleDescReq,0202H
        ARGFRAME ISTACK, 0, STACK
        ARGFRAME PSTACK, 0, STACK
        ARGFRAME XSTACK, 53, STACK
        ARGFRAME IOVERLAY, 0, STATIC
        ARGFRAME DOVERLAY, 0, STATIC
        EXTERN ZDP_UserDescSet
        FUNCTION ZDP_UserDescSet,0202H
        ARGFRAME ISTACK, 0, STACK
        ARGFRAME PSTACK, 0, STACK
        ARGFRAME XSTACK, 54, STACK
        ARGFRAME IOVERLAY, 0, STATIC
        ARGFRAME DOVERLAY, 0, STATIC
        EXTERN _NIB
        EXTERN osal_build_uint16
        FUNCTION osal_build_uint16,0202H
        ARGFRAME ISTACK, 0, STACK
        ARGFRAME PSTACK, 0, STACK
        ARGFRAME XSTACK, 92, STACK
        ARGFRAME IOVERLAY, 0, STATIC
        ARGFRAME DOVERLAY, 0, STATIC
        EXTERN osal_build_uint32
        FUNCTION osal_build_uint32,0202H
        ARGFRAME ISTACK, 0, STACK
        ARGFRAME PSTACK, 0, STACK
        ARGFRAME XSTACK, 52, STACK
        ARGFRAME IOVERLAY, 0, STATIC
        ARGFRAME DOVERLAY, 0, STATIC
        EXTERN osal_mem_alloc
        FUNCTION osal_mem_alloc,0202H
        ARGFRAME ISTACK, 0, STACK
        ARGFRAME PSTACK, 0, STACK
        ARGFRAME XSTACK, 19, STACK
        ARGFRAME IOVERLAY, 0, STATIC
        ARGFRAME DOVERLAY, 0, STATIC
        EXTERN osal_mem_free
        FUNCTION osal_mem_free,0202H
        ARGFRAME ISTACK, 0, STACK
        ARGFRAME PSTACK, 0, STACK
        ARGFRAME XSTACK, 19, STACK
        ARGFRAME IOVERLAY, 0, STATIC
        ARGFRAME DOVERLAY, 0, STATIC
        EXTERN osal_memcpy
        FUNCTION osal_memcpy,0202H
        ARGFRAME ISTACK, 0, STACK
        ARGFRAME PSTACK, 0, STACK
        ARGFRAME XSTACK, 55, STACK
        ARGFRAME IOVERLAY, 0, STATIC
        ARGFRAME DOVERLAY, 0, STATIC
        EXTERN sAddrExtCpy
        FUNCTION sAddrExtCpy,0202H
        ARGFRAME ISTACK, 0, STACK
        ARGFRAME PSTACK, 0, STACK
        ARGFRAME XSTACK, 35, STACK
        ARGFRAME IOVERLAY, 0, STATIC
        ARGFRAME DOVERLAY, 0, STATIC

// C:\Texas Instruments\Z-Stack Home 1.2.2a.44539\Components\mt\MT_ZDO.c
//    1 /**************************************************************************************************
//    2   Filename:       MT_ZDO.c
//    3   Revised:        $Date: 2015-02-05 17:15:13 -0800 (Thu, 05 Feb 2015) $
//    4   Revision:       $Revision: 42371 $
//    5 
//    6   Description:    MonitorTest functions for the ZDO layer.
//    7 
//    8   Copyright 2004-2015 Texas Instruments Incorporated. All rights reserved.
//    9 
//   10   IMPORTANT: Your use of this Software is limited to those specific rights
//   11   granted under the terms of a software license agreement between the user
//   12   who downloaded the software, his/her employer (which must be your employer)
//   13   and Texas Instruments Incorporated (the "License"). You may not use this
//   14   Software unless you agree to abide by the terms of the License. The License
//   15   limits your use, and you acknowledge, that the Software may not be modified,
//   16   copied or distributed unless embedded on a Texas Instruments microcontroller
//   17   or used solely and exclusively in conjunction with a Texas Instruments radio
//   18   frequency transceiver, which is integrated into your product. Other than for
//   19   the foregoing purpose, you may not use, reproduce, copy, prepare derivative
//   20   works of, modify, distribute, perform, display or sell this Software and/or
//   21   its documentation for any purpose.
//   22 
//   23   YOU FURTHER ACKNOWLEDGE AND AGREE THAT THE SOFTWARE AND DOCUMENTATION ARE
//   24   PROVIDED "AS IS" WITHOUT WARRANTY OF ANY KIND, EITHER EXPRESS OR IMPLIED,
//   25   INCLUDING WITHOUT LIMITATION, ANY WARRANTY OF MERCHANTABILITY, TITLE,
//   26   NON-INFRINGEMENT AND FITNESS FOR A PARTICULAR PURPOSE. IN NO EVENT SHALL
//   27   TEXAS INSTRUMENTS OR ITS LICENSORS BE LIABLE OR OBLIGATED UNDER CONTRACT,
//   28   NEGLIGENCE, STRICT LIABILITY, CONTRIBUTION, BREACH OF WARRANTY, OR OTHER
//   29   LEGAL EQUITABLE THEORY ANY DIRECT OR INDIRECT DAMAGES OR EXPENSES
//   30   INCLUDING BUT NOT LIMITED TO ANY INCIDENTAL, SPECIAL, INDIRECT, PUNITIVE
//   31   OR CONSEQUENTIAL DAMAGES, LOST PROFITS OR LOST DATA, COST OF PROCUREMENT
//   32   OF SUBSTITUTE GOODS, TECHNOLOGY, SERVICES, OR ANY CLAIMS BY THIRD PARTIES
//   33   (INCLUDING BUT NOT LIMITED TO ANY DEFENSE THEREOF), OR OTHER SIMILAR COSTS.
//   34 
//   35   Should you have any questions regarding your right to use this Software,
//   36   contact Texas Instruments Incorporated at www.TI.com.
//   37 **************************************************************************************************/
//   38 
//   39 #ifdef MT_ZDO_FUNC
//   40 
//   41 /**************************************************************************************************
//   42  * INCLUDES
//   43  **************************************************************************************************/
//   44 #include "ZComDef.h"
//   45 #include "OSAL.h"
//   46 #include "OSAL_Nv.h"
//   47 #include "MT.h"
//   48 #include "MT_ZDO.h"
//   49 #include "AddrMgr.h"
//   50 #include "APSMEDE.h"
//   51 #include "ZDConfig.h"
//   52 #include "ZDProfile.h"
//   53 #include "ZDObject.h"
//   54 #include "ZDApp.h"
//   55 #include "OnBoard.h"
//   56 #include "aps_groups.h"
//   57 
//   58 #if defined ( MT_ZDO_EXTENSIONS )
//   59   #include "rtg.h"
//   60 #endif
//   61 #if defined ( MT_SYS_KEY_MANAGEMENT ) || defined ( MT_ZDO_EXTENSIONS )
//   62   #include "ZDSecMgr.h"
//   63 #endif
//   64 
//   65 #include "nwk_util.h"
//   66 
//   67 /**************************************************************************************************
//   68  * CONSTANTS
//   69  **************************************************************************************************/
//   70 #define MT_ZDO_END_DEVICE_ANNCE_IND_LEN   0x0D
//   71 #define MT_ZDO_ADDR_RSP_LEN               0x0D
//   72 #define MT_ZDO_BIND_UNBIND_RSP_LEN        0x03
//   73 #define MT_ZDO_BEACON_IND_LEN             21
//   74 #define MT_ZDO_BEACON_IND_PACK_LEN        (MT_UART_TX_BUFF_MAX - SPI_0DATA_MSG_LEN)
//   75 #define MT_ZDO_JOIN_CNF_LEN               5
//   76 
//   77 // Message must pack nwk addr, entire (not just pointer to) ieee addr, and packet cost, so the
//   78 // sizeof(zdoConcentratorInd_t) is not usable.
//   79 #define MT_ZDO_CONCENTRATOR_IND_LEN      (2 + Z_EXTADDR_LEN + 1)
//   80 
//   81 #define MTZDO_RESPONSE_BUFFER_LEN   100
//   82 
//   83 #define MTZDO_MAX_MATCH_CLUSTERS    16
//   84 #define MTZDO_MAX_ED_BIND_CLUSTERS  15
//   85 
//   86 // Conversion from ZDO Cluster Id to the RPC AREQ Id is direct as follows:
//   87 #define MT_ZDO_CID_TO_AREQ_ID(CId)  ((uint8)(CId) | 0x80)
//   88 
//   89 #define MT_ZDO_STATUS_LEN   1
//   90 
//   91 #if defined ( MT_ZDO_EXTENSIONS )
//   92 typedef struct
//   93 {
//   94   uint16            ami;
//   95   uint16            keyNvId;   // index to the Link Key table in NV
//   96   ZDSecMgr_Authentication_Option authenticateOption;
//   97 } ZDSecMgrEntry_t;
//   98 #endif  // MT_ZDO_EXTENSIONS
//   99 
//  100 /**************************************************************************************************
//  101  * GLOBAL VARIABLES
//  102  **************************************************************************************************/

        RSEG XDATA_Z:XDATA:NOROOT(0)
        DATA32
//  103 uint32 _zdoCallbackSub;
_zdoCallbackSub:
        DS 4
        REQUIRE __INIT_XDATA_Z

        RSEG XDATA_Z:XDATA:NOROOT(0)
        DATA16
//  104 uint8 *pBeaconIndBuf = NULL;
pBeaconIndBuf:
        DS 2
        REQUIRE __INIT_XDATA_Z
//  105 
//  106 /**************************************************************************************************
//  107  * LOCAL VARIABLES
//  108  **************************************************************************************************/

        RSEG XDATA_Z:XDATA:NOROOT(0)
        DATA8
//  109 bool ignoreIndication = FALSE;
ignoreIndication:
        DS 1
        REQUIRE __INIT_XDATA_Z
//  110 
//  111 /**************************************************************************************************
//  112  * LOCAL FUNCTIONS
//  113  **************************************************************************************************/
//  114 #if defined (MT_ZDO_FUNC)
//  115 static void MT_ZdoNWKAddressRequest(uint8 *pBuf);
//  116 static void MT_ZdoIEEEAddrRequest(uint8 *pBuf);
//  117 static void MT_ZdoNodeDescRequest(uint8 *pBuf);
//  118 static void MT_ZdoPowerDescRequest(uint8 *pBuf);
//  119 static void MT_ZdoSimpleDescRequest(uint8 *pBuf);
//  120 static void MT_ZdoActiveEpRequest(uint8 *pBuf);
//  121 static void MT_ZdoMatchDescRequest(uint8 *pBuf);
//  122 static void MT_ZdoComplexDescRequest(uint8 *pBuf);
//  123 static void MT_ZdoUserDescRequest(uint8 *pBuf);
//  124 static void MT_ZdoEndDevAnnce(uint8 *pBuf);
//  125 static void MT_ZdoUserDescSet(uint8 *pBuf);
//  126 static void MT_ZdoServiceDiscRequest(uint8 *pBuf);
//  127 static void MT_ZdoEndDevBindRequest(uint8 *pBuf);
//  128 static void MT_ZdoBindRequest(uint8 *pBuf);
//  129 static void MT_ZdoUnbindRequest(uint8 *pBuf);
//  130 #if defined ( MT_SYS_KEY_MANAGEMENT )
//  131 static void MT_ZdoSetLinkKey(uint8 *pBuf);
//  132 static void MT_ZdoRemoveLinkKey(uint8 *pBuf);
//  133 static void MT_ZdoGetLinkKey(uint8 *pBuf);
//  134 #endif /* MT_SYS_KEY_MANAGEMENT */
//  135 static void MT_ZdoNetworkDiscoveryReq(uint8 *pBuf);
//  136 static void MT_ZdoJoinReq(uint8 *pBuf);
//  137 /* Call back function */
//  138 void *MT_ZdoNwkDiscoveryCnfCB ( void *pStr );
//  139 void *MT_ZdoBeaconIndCB ( void *pStr );
//  140 void *MT_ZdoJoinCnfCB ( void *pStr );
//  141 #if defined (MT_ZDO_MGMT)
//  142 static void MT_ZdoMgmtLqiRequest(uint8 *pBuf);
//  143 static void MT_ZdoMgmtRtgRequest(uint8 *pBuf);
//  144 static void MT_ZdoMgmtBindRequest(uint8 *pBuf);
//  145 static void MT_ZdoMgmtLeaveRequest(uint8 *pBuf);
//  146 static void MT_ZdoMgmtDirectJoinRequest(uint8 *pBuf);
//  147 static void MT_ZdoMgmtPermitJoinRequest(uint8 *pBuf);
//  148 static void MT_ZdoMgmtNwkUpdateRequest(uint8 *pBuf);
//  149 static void MT_ZdoMgmtNwkDiscRequest(uint8 *pBuf);
//  150 #endif /* MT_ZDO_MGMT */
//  151 static void MT_ZdoSendData( uint8 *pBuf );
//  152 static void MT_ZdoNwkAddrOfInterestReq( uint8 *pBuf );
//  153 static void MT_ZdoStartupFromApp(uint8 *pBuf);
//  154 static void MT_ZdoRegisterForZDOMsg(uint8 *pBuf);
//  155 static void MT_ZdoRemoveRegisteredCB(uint8 *pBuf);
//  156 static void MT_ZdoSetRejoinParameters(uint8 *pBuf);
//  157 #endif /* MT_ZDO_FUNC */
//  158 
//  159 #if defined (MT_ZDO_CB_FUNC)
//  160 uint8 MT_ZdoHandleExceptions( afIncomingMSGPacket_t *pData, zdoIncomingMsg_t *inMsg );
//  161 void MT_ZdoAddrRspCB( ZDO_NwkIEEEAddrResp_t *pMsg, uint16 clusterID );
//  162 void MT_ZdoEndDevAnnceCB( ZDO_DeviceAnnce_t *pMsg, uint16 srcAddr );
//  163 void MT_ZdoBindUnbindRspCB( uint16 clusterID, uint16 srcAddr, uint8 status );
//  164 void* MT_ZdoSrcRtgCB( void *pStr );
//  165 static void *MT_ZdoConcentratorIndCB(void *pStr);
//  166 static void *MT_ZdoLeaveInd(void *vPtr);
//  167 void *MT_ZdoTcDeviceInd( void *params );
//  168 void *MT_ZdoPermitJoinInd( void *duration );
//  169 #endif /* MT_ZDO_CB_FUNC */
//  170 
//  171 #if defined ( MT_ZDO_EXTENSIONS )
//  172 #if ( ZG_BUILD_COORDINATOR_TYPE )
//  173 static void MT_ZdoSecUpdateNwkKey( uint8 *pBuf );
//  174 static void MT_ZdoSecSwitchNwkKey( uint8 *pBuf );
//  175 #endif // ZDO_COORDINATOR
//  176 static void MT_ZdoSecAddLinkKey( uint8 *pBuf );
//  177 static void MT_ZdoSecEntryLookupExt( uint8 *pBuf );
//  178 static void MT_ZdoSecDeviceRemove( uint8 *pBuf );
//  179 static void MT_ZdoExtRouteDisc( uint8 *pBuf );
//  180 static void MT_ZdoExtRouteCheck( uint8 *pBuf );
//  181 static void MT_ZdoExtRemoveGroup( uint8 *pBuf );
//  182 static void MT_ZdoExtRemoveAllGroup( uint8 *pBuf );
//  183 static void MT_ZdoExtFindAllGroupsEndpoint( uint8 *pBuf );
//  184 static void MT_ZdoExtFindGroup( uint8 *pBuf );
//  185 static void MT_ZdoExtAddGroup( uint8 *pBuf );
//  186 static void MT_ZdoExtCountAllGroups( uint8 *pBuf );
//  187 static void MT_ZdoExtRxIdle( uint8 *pBuf );
//  188 static void MT_ZdoExtNwkInfo( uint8 *pBuf );
//  189 static void MT_ZdoExtSecApsRemoveReq( uint8 *pBuf );
//  190 static void MT_ZdoExtSetParams( uint8 *pBuf );
//  191 extern ZStatus_t ZDSecMgrEntryLookupExt( uint8* extAddr, ZDSecMgrEntry_t** entry );
//  192 #endif // MT_ZDO_EXTENSIONS
//  193 
//  194 #if defined (MT_ZDO_FUNC)
//  195 /***************************************************************************************************
//  196  * @fn      MT_ZdoInit
//  197  *
//  198  * @brief   MT ZDO initialization
//  199  *
//  200  * @param   none
//  201  *
//  202  * @return  none
//  203  ***************************************************************************************************/

        RSEG BANKED_CODE:CODE:NOROOT(0)
//  204 void MT_ZdoInit(void)
MT_ZdoInit:
          CFI Block cfiBlock0 Using cfiCommon0
          CFI Function MT_ZdoInit
        CODE
//  205 {
        ; Saved register size: 0
        ; Auto size: 0
//  206 #ifdef MT_ZDO_CB_FUNC
//  207   /* Register with ZDO for indication callbacks */
//  208   ZDO_RegisterForZdoCB(ZDO_SRC_RTG_IND_CBID, &MT_ZdoSrcRtgCB);
//  209   ZDO_RegisterForZdoCB(ZDO_CONCENTRATOR_IND_CBID, &MT_ZdoConcentratorIndCB);
//  210   ZDO_RegisterForZdoCB(ZDO_LEAVE_IND_CBID, &MT_ZdoLeaveInd);
//  211   ZDO_RegisterForZdoCB(ZDO_PERMIT_JOIN_CBID, &MT_ZdoPermitJoinInd);
//  212   ZDO_RegisterForZdoCB(ZDO_TC_DEVICE_CBID, &MT_ZdoTcDeviceInd);
//  213 #endif
//  214 }
        LJMP    ?BRET
          CFI EndBlock cfiBlock0
//  215 
//  216 /***************************************************************************************************
//  217  * @fn      MT_ZdoCommandProcessing
//  218  *
//  219  * @brief
//  220  *
//  221  *   Process all the ZDO commands that are issued by test tool
//  222  *
//  223  * @param   pBuf - pointer to the msg buffer
//  224  *
//  225  *          | LEN  | CMD0  | CMD1  |  DATA  |
//  226  *          |  1   |   1   |   1   |  0-255 |
//  227  *
//  228  * @return  status
//  229  ***************************************************************************************************/

        RSEG BANKED_CODE:CODE:NOROOT(0)
//  230 uint8 MT_ZdoCommandProcessing(uint8* pBuf)
MT_ZdoCommandProcessing:
          CFI Block cfiBlock1 Using cfiCommon0
          CFI Function MT_ZdoCommandProcessing
        CODE
//  231 {
        FUNCALL MT_ZdoCommandProcessing, ZDP_NwkAddrReq
        LOCFRAME ISTACK, 0, STACK
        LOCFRAME PSTACK, 0, STACK
        LOCFRAME XSTACK, 52, STACK
        LOCFRAME IOVERLAY, 0, STATIC
        LOCFRAME DOVERLAY, 0, STATIC
        ARGFRAME ISTACK, 0, STACK
        ARGFRAME PSTACK, 0, STACK
        ARGFRAME XSTACK, 52, STACK
        ARGFRAME IOVERLAY, 0, STATIC
        ARGFRAME DOVERLAY, 0, STATIC
        FUNCALL MT_ZdoCommandProcessing, MT_BuildAndSendZToolResponse
        LOCFRAME ISTACK, 0, STACK
        LOCFRAME PSTACK, 0, STACK
        LOCFRAME XSTACK, 52, STACK
        LOCFRAME IOVERLAY, 0, STATIC
        LOCFRAME DOVERLAY, 0, STATIC
        ARGFRAME ISTACK, 0, STACK
        ARGFRAME PSTACK, 0, STACK
        ARGFRAME XSTACK, 52, STACK
        ARGFRAME IOVERLAY, 0, STATIC
        ARGFRAME DOVERLAY, 0, STATIC
        FUNCALL MT_ZdoCommandProcessing, osal_build_uint16
        LOCFRAME ISTACK, 0, STACK
        LOCFRAME PSTACK, 0, STACK
        LOCFRAME XSTACK, 52, STACK
        LOCFRAME IOVERLAY, 0, STATIC
        LOCFRAME DOVERLAY, 0, STATIC
        ARGFRAME ISTACK, 0, STACK
        ARGFRAME PSTACK, 0, STACK
        ARGFRAME XSTACK, 52, STACK
        ARGFRAME IOVERLAY, 0, STATIC
        ARGFRAME DOVERLAY, 0, STATIC
        FUNCALL MT_ZdoCommandProcessing, ZDP_IEEEAddrReq
        LOCFRAME ISTACK, 0, STACK
        LOCFRAME PSTACK, 0, STACK
        LOCFRAME XSTACK, 52, STACK
        LOCFRAME IOVERLAY, 0, STATIC
        LOCFRAME DOVERLAY, 0, STATIC
        ARGFRAME ISTACK, 0, STACK
        ARGFRAME PSTACK, 0, STACK
        ARGFRAME XSTACK, 52, STACK
        ARGFRAME IOVERLAY, 0, STATIC
        ARGFRAME DOVERLAY, 0, STATIC
        FUNCALL MT_ZdoCommandProcessing, MT_BuildAndSendZToolResponse
        LOCFRAME ISTACK, 0, STACK
        LOCFRAME PSTACK, 0, STACK
        LOCFRAME XSTACK, 52, STACK
        LOCFRAME IOVERLAY, 0, STATIC
        LOCFRAME DOVERLAY, 0, STATIC
        ARGFRAME ISTACK, 0, STACK
        ARGFRAME PSTACK, 0, STACK
        ARGFRAME XSTACK, 52, STACK
        ARGFRAME IOVERLAY, 0, STATIC
        ARGFRAME DOVERLAY, 0, STATIC
        FUNCALL MT_ZdoCommandProcessing, osal_build_uint16
        LOCFRAME ISTACK, 0, STACK
        LOCFRAME PSTACK, 0, STACK
        LOCFRAME XSTACK, 52, STACK
        LOCFRAME IOVERLAY, 0, STATIC
        LOCFRAME DOVERLAY, 0, STATIC
        ARGFRAME ISTACK, 0, STACK
        ARGFRAME PSTACK, 0, STACK
        ARGFRAME XSTACK, 52, STACK
        ARGFRAME IOVERLAY, 0, STATIC
        ARGFRAME DOVERLAY, 0, STATIC
        FUNCALL MT_ZdoCommandProcessing, osal_build_uint16
        LOCFRAME ISTACK, 0, STACK
        LOCFRAME PSTACK, 0, STACK
        LOCFRAME XSTACK, 52, STACK
        LOCFRAME IOVERLAY, 0, STATIC
        LOCFRAME DOVERLAY, 0, STATIC
        ARGFRAME ISTACK, 0, STACK
        ARGFRAME PSTACK, 0, STACK
        ARGFRAME XSTACK, 52, STACK
        ARGFRAME IOVERLAY, 0, STATIC
        ARGFRAME DOVERLAY, 0, STATIC
        FUNCALL MT_ZdoCommandProcessing, ZDP_NWKAddrOfInterestReq
        LOCFRAME ISTACK, 0, STACK
        LOCFRAME PSTACK, 0, STACK
        LOCFRAME XSTACK, 53, STACK
        LOCFRAME IOVERLAY, 0, STATIC
        LOCFRAME DOVERLAY, 0, STATIC
        ARGFRAME ISTACK, 0, STACK
        ARGFRAME PSTACK, 0, STACK
        ARGFRAME XSTACK, 53, STACK
        ARGFRAME IOVERLAY, 0, STATIC
        ARGFRAME DOVERLAY, 0, STATIC
        FUNCALL MT_ZdoCommandProcessing, MT_BuildAndSendZToolResponse
        LOCFRAME ISTACK, 0, STACK
        LOCFRAME PSTACK, 0, STACK
        LOCFRAME XSTACK, 52, STACK
        LOCFRAME IOVERLAY, 0, STATIC
        LOCFRAME DOVERLAY, 0, STATIC
        ARGFRAME ISTACK, 0, STACK
        ARGFRAME PSTACK, 0, STACK
        ARGFRAME XSTACK, 52, STACK
        ARGFRAME IOVERLAY, 0, STATIC
        ARGFRAME DOVERLAY, 0, STATIC
        FUNCALL MT_ZdoCommandProcessing, osal_build_uint16
        LOCFRAME ISTACK, 0, STACK
        LOCFRAME PSTACK, 0, STACK
        LOCFRAME XSTACK, 52, STACK
        LOCFRAME IOVERLAY, 0, STATIC
        LOCFRAME DOVERLAY, 0, STATIC
        ARGFRAME ISTACK, 0, STACK
        ARGFRAME PSTACK, 0, STACK
        ARGFRAME XSTACK, 52, STACK
        ARGFRAME IOVERLAY, 0, STATIC
        ARGFRAME DOVERLAY, 0, STATIC
        FUNCALL MT_ZdoCommandProcessing, osal_build_uint16
        LOCFRAME ISTACK, 0, STACK
        LOCFRAME PSTACK, 0, STACK
        LOCFRAME XSTACK, 52, STACK
        LOCFRAME IOVERLAY, 0, STATIC
        LOCFRAME DOVERLAY, 0, STATIC
        ARGFRAME ISTACK, 0, STACK
        ARGFRAME PSTACK, 0, STACK
        ARGFRAME XSTACK, 52, STACK
        ARGFRAME IOVERLAY, 0, STATIC
        ARGFRAME DOVERLAY, 0, STATIC
        FUNCALL MT_ZdoCommandProcessing, ZDP_NWKAddrOfInterestReq
        LOCFRAME ISTACK, 0, STACK
        LOCFRAME PSTACK, 0, STACK
        LOCFRAME XSTACK, 53, STACK
        LOCFRAME IOVERLAY, 0, STATIC
        LOCFRAME DOVERLAY, 0, STATIC
        ARGFRAME ISTACK, 0, STACK
        ARGFRAME PSTACK, 0, STACK
        ARGFRAME XSTACK, 53, STACK
        ARGFRAME IOVERLAY, 0, STATIC
        ARGFRAME DOVERLAY, 0, STATIC
        FUNCALL MT_ZdoCommandProcessing, MT_BuildAndSendZToolResponse
        LOCFRAME ISTACK, 0, STACK
        LOCFRAME PSTACK, 0, STACK
        LOCFRAME XSTACK, 52, STACK
        LOCFRAME IOVERLAY, 0, STATIC
        LOCFRAME DOVERLAY, 0, STATIC
        ARGFRAME ISTACK, 0, STACK
        ARGFRAME PSTACK, 0, STACK
        ARGFRAME XSTACK, 52, STACK
        ARGFRAME IOVERLAY, 0, STATIC
        ARGFRAME DOVERLAY, 0, STATIC
        FUNCALL MT_ZdoCommandProcessing, osal_build_uint16
        LOCFRAME ISTACK, 0, STACK
        LOCFRAME PSTACK, 0, STACK
        LOCFRAME XSTACK, 52, STACK
        LOCFRAME IOVERLAY, 0, STATIC
        LOCFRAME DOVERLAY, 0, STATIC
        ARGFRAME ISTACK, 0, STACK
        ARGFRAME PSTACK, 0, STACK
        ARGFRAME XSTACK, 52, STACK
        ARGFRAME IOVERLAY, 0, STATIC
        ARGFRAME DOVERLAY, 0, STATIC
        FUNCALL MT_ZdoCommandProcessing, osal_build_uint16
        LOCFRAME ISTACK, 0, STACK
        LOCFRAME PSTACK, 0, STACK
        LOCFRAME XSTACK, 52, STACK
        LOCFRAME IOVERLAY, 0, STATIC
        LOCFRAME DOVERLAY, 0, STATIC
        ARGFRAME ISTACK, 0, STACK
        ARGFRAME PSTACK, 0, STACK
        ARGFRAME XSTACK, 52, STACK
        ARGFRAME IOVERLAY, 0, STATIC
        ARGFRAME DOVERLAY, 0, STATIC
        FUNCALL MT_ZdoCommandProcessing, ZDP_SimpleDescReq
        LOCFRAME ISTACK, 0, STACK
        LOCFRAME PSTACK, 0, STACK
        LOCFRAME XSTACK, 53, STACK
        LOCFRAME IOVERLAY, 0, STATIC
        LOCFRAME DOVERLAY, 0, STATIC
        ARGFRAME ISTACK, 0, STACK
        ARGFRAME PSTACK, 0, STACK
        ARGFRAME XSTACK, 53, STACK
        ARGFRAME IOVERLAY, 0, STATIC
        ARGFRAME DOVERLAY, 0, STATIC
        FUNCALL MT_ZdoCommandProcessing, MT_BuildAndSendZToolResponse
        LOCFRAME ISTACK, 0, STACK
        LOCFRAME PSTACK, 0, STACK
        LOCFRAME XSTACK, 52, STACK
        LOCFRAME IOVERLAY, 0, STATIC
        LOCFRAME DOVERLAY, 0, STATIC
        ARGFRAME ISTACK, 0, STACK
        ARGFRAME PSTACK, 0, STACK
        ARGFRAME XSTACK, 52, STACK
        ARGFRAME IOVERLAY, 0, STATIC
        ARGFRAME DOVERLAY, 0, STATIC
        FUNCALL MT_ZdoCommandProcessing, osal_build_uint16
        LOCFRAME ISTACK, 0, STACK
        LOCFRAME PSTACK, 0, STACK
        LOCFRAME XSTACK, 52, STACK
        LOCFRAME IOVERLAY, 0, STATIC
        LOCFRAME DOVERLAY, 0, STATIC
        ARGFRAME ISTACK, 0, STACK
        ARGFRAME PSTACK, 0, STACK
        ARGFRAME XSTACK, 52, STACK
        ARGFRAME IOVERLAY, 0, STATIC
        ARGFRAME DOVERLAY, 0, STATIC
        FUNCALL MT_ZdoCommandProcessing, osal_build_uint16
        LOCFRAME ISTACK, 0, STACK
        LOCFRAME PSTACK, 0, STACK
        LOCFRAME XSTACK, 52, STACK
        LOCFRAME IOVERLAY, 0, STATIC
        LOCFRAME DOVERLAY, 0, STATIC
        ARGFRAME ISTACK, 0, STACK
        ARGFRAME PSTACK, 0, STACK
        ARGFRAME XSTACK, 52, STACK
        ARGFRAME IOVERLAY, 0, STATIC
        ARGFRAME DOVERLAY, 0, STATIC
        FUNCALL MT_ZdoCommandProcessing, ZDP_NWKAddrOfInterestReq
        LOCFRAME ISTACK, 0, STACK
        LOCFRAME PSTACK, 0, STACK
        LOCFRAME XSTACK, 53, STACK
        LOCFRAME IOVERLAY, 0, STATIC
        LOCFRAME DOVERLAY, 0, STATIC
        ARGFRAME ISTACK, 0, STACK
        ARGFRAME PSTACK, 0, STACK
        ARGFRAME XSTACK, 53, STACK
        ARGFRAME IOVERLAY, 0, STATIC
        ARGFRAME DOVERLAY, 0, STATIC
        FUNCALL MT_ZdoCommandProcessing, MT_BuildAndSendZToolResponse
        LOCFRAME ISTACK, 0, STACK
        LOCFRAME PSTACK, 0, STACK
        LOCFRAME XSTACK, 52, STACK
        LOCFRAME IOVERLAY, 0, STATIC
        LOCFRAME DOVERLAY, 0, STATIC
        ARGFRAME ISTACK, 0, STACK
        ARGFRAME PSTACK, 0, STACK
        ARGFRAME XSTACK, 52, STACK
        ARGFRAME IOVERLAY, 0, STATIC
        ARGFRAME DOVERLAY, 0, STATIC
        FUNCALL MT_ZdoCommandProcessing, MT_ZdoMatchDescRequest
        LOCFRAME ISTACK, 0, STACK
        LOCFRAME PSTACK, 0, STACK
        LOCFRAME XSTACK, 52, STACK
        LOCFRAME IOVERLAY, 0, STATIC
        LOCFRAME DOVERLAY, 0, STATIC
        ARGFRAME ISTACK, 0, STACK
        ARGFRAME PSTACK, 0, STACK
        ARGFRAME XSTACK, 52, STACK
        ARGFRAME IOVERLAY, 0, STATIC
        ARGFRAME DOVERLAY, 0, STATIC
        FUNCALL MT_ZdoCommandProcessing, osal_build_uint16
        LOCFRAME ISTACK, 0, STACK
        LOCFRAME PSTACK, 0, STACK
        LOCFRAME XSTACK, 52, STACK
        LOCFRAME IOVERLAY, 0, STATIC
        LOCFRAME DOVERLAY, 0, STATIC
        ARGFRAME ISTACK, 0, STACK
        ARGFRAME PSTACK, 0, STACK
        ARGFRAME XSTACK, 52, STACK
        ARGFRAME IOVERLAY, 0, STATIC
        ARGFRAME DOVERLAY, 0, STATIC
        FUNCALL MT_ZdoCommandProcessing, osal_build_uint16
        LOCFRAME ISTACK, 0, STACK
        LOCFRAME PSTACK, 0, STACK
        LOCFRAME XSTACK, 52, STACK
        LOCFRAME IOVERLAY, 0, STATIC
        LOCFRAME DOVERLAY, 0, STATIC
        ARGFRAME ISTACK, 0, STACK
        ARGFRAME PSTACK, 0, STACK
        ARGFRAME XSTACK, 52, STACK
        ARGFRAME IOVERLAY, 0, STATIC
        ARGFRAME DOVERLAY, 0, STATIC
        FUNCALL MT_ZdoCommandProcessing, ZDP_NWKAddrOfInterestReq
        LOCFRAME ISTACK, 0, STACK
        LOCFRAME PSTACK, 0, STACK
        LOCFRAME XSTACK, 53, STACK
        LOCFRAME IOVERLAY, 0, STATIC
        LOCFRAME DOVERLAY, 0, STATIC
        ARGFRAME ISTACK, 0, STACK
        ARGFRAME PSTACK, 0, STACK
        ARGFRAME XSTACK, 53, STACK
        ARGFRAME IOVERLAY, 0, STATIC
        ARGFRAME DOVERLAY, 0, STATIC
        FUNCALL MT_ZdoCommandProcessing, MT_BuildAndSendZToolResponse
        LOCFRAME ISTACK, 0, STACK
        LOCFRAME PSTACK, 0, STACK
        LOCFRAME XSTACK, 52, STACK
        LOCFRAME IOVERLAY, 0, STATIC
        LOCFRAME DOVERLAY, 0, STATIC
        ARGFRAME ISTACK, 0, STACK
        ARGFRAME PSTACK, 0, STACK
        ARGFRAME XSTACK, 52, STACK
        ARGFRAME IOVERLAY, 0, STATIC
        ARGFRAME DOVERLAY, 0, STATIC
        FUNCALL MT_ZdoCommandProcessing, osal_build_uint16
        LOCFRAME ISTACK, 0, STACK
        LOCFRAME PSTACK, 0, STACK
        LOCFRAME XSTACK, 52, STACK
        LOCFRAME IOVERLAY, 0, STATIC
        LOCFRAME DOVERLAY, 0, STATIC
        ARGFRAME ISTACK, 0, STACK
        ARGFRAME PSTACK, 0, STACK
        ARGFRAME XSTACK, 52, STACK
        ARGFRAME IOVERLAY, 0, STATIC
        ARGFRAME DOVERLAY, 0, STATIC
        FUNCALL MT_ZdoCommandProcessing, osal_build_uint16
        LOCFRAME ISTACK, 0, STACK
        LOCFRAME PSTACK, 0, STACK
        LOCFRAME XSTACK, 52, STACK
        LOCFRAME IOVERLAY, 0, STATIC
        LOCFRAME DOVERLAY, 0, STATIC
        ARGFRAME ISTACK, 0, STACK
        ARGFRAME PSTACK, 0, STACK
        ARGFRAME XSTACK, 52, STACK
        ARGFRAME IOVERLAY, 0, STATIC
        ARGFRAME DOVERLAY, 0, STATIC
        FUNCALL MT_ZdoCommandProcessing, ZDP_NWKAddrOfInterestReq
        LOCFRAME ISTACK, 0, STACK
        LOCFRAME PSTACK, 0, STACK
        LOCFRAME XSTACK, 53, STACK
        LOCFRAME IOVERLAY, 0, STATIC
        LOCFRAME DOVERLAY, 0, STATIC
        ARGFRAME ISTACK, 0, STACK
        ARGFRAME PSTACK, 0, STACK
        ARGFRAME XSTACK, 53, STACK
        ARGFRAME IOVERLAY, 0, STATIC
        ARGFRAME DOVERLAY, 0, STATIC
        FUNCALL MT_ZdoCommandProcessing, MT_BuildAndSendZToolResponse
        LOCFRAME ISTACK, 0, STACK
        LOCFRAME PSTACK, 0, STACK
        LOCFRAME XSTACK, 52, STACK
        LOCFRAME IOVERLAY, 0, STATIC
        LOCFRAME DOVERLAY, 0, STATIC
        ARGFRAME ISTACK, 0, STACK
        ARGFRAME PSTACK, 0, STACK
        ARGFRAME XSTACK, 52, STACK
        ARGFRAME IOVERLAY, 0, STATIC
        ARGFRAME DOVERLAY, 0, STATIC
        FUNCALL MT_ZdoCommandProcessing, osal_build_uint16
        LOCFRAME ISTACK, 0, STACK
        LOCFRAME PSTACK, 0, STACK
        LOCFRAME XSTACK, 52, STACK
        LOCFRAME IOVERLAY, 0, STATIC
        LOCFRAME DOVERLAY, 0, STATIC
        ARGFRAME ISTACK, 0, STACK
        ARGFRAME PSTACK, 0, STACK
        ARGFRAME XSTACK, 52, STACK
        ARGFRAME IOVERLAY, 0, STATIC
        ARGFRAME DOVERLAY, 0, STATIC
        FUNCALL MT_ZdoCommandProcessing, ZDP_DeviceAnnce
        LOCFRAME ISTACK, 0, STACK
        LOCFRAME PSTACK, 0, STACK
        LOCFRAME XSTACK, 53, STACK
        LOCFRAME IOVERLAY, 0, STATIC
        LOCFRAME DOVERLAY, 0, STATIC
        ARGFRAME ISTACK, 0, STACK
        ARGFRAME PSTACK, 0, STACK
        ARGFRAME XSTACK, 53, STACK
        ARGFRAME IOVERLAY, 0, STATIC
        ARGFRAME DOVERLAY, 0, STATIC
        FUNCALL MT_ZdoCommandProcessing, MT_BuildAndSendZToolResponse
        LOCFRAME ISTACK, 0, STACK
        LOCFRAME PSTACK, 0, STACK
        LOCFRAME XSTACK, 52, STACK
        LOCFRAME IOVERLAY, 0, STATIC
        LOCFRAME DOVERLAY, 0, STATIC
        ARGFRAME ISTACK, 0, STACK
        ARGFRAME PSTACK, 0, STACK
        ARGFRAME XSTACK, 52, STACK
        ARGFRAME IOVERLAY, 0, STATIC
        ARGFRAME DOVERLAY, 0, STATIC
        FUNCALL MT_ZdoCommandProcessing, osal_build_uint16
        LOCFRAME ISTACK, 0, STACK
        LOCFRAME PSTACK, 0, STACK
        LOCFRAME XSTACK, 52, STACK
        LOCFRAME IOVERLAY, 0, STATIC
        LOCFRAME DOVERLAY, 0, STATIC
        ARGFRAME ISTACK, 0, STACK
        ARGFRAME PSTACK, 0, STACK
        ARGFRAME XSTACK, 52, STACK
        ARGFRAME IOVERLAY, 0, STATIC
        ARGFRAME DOVERLAY, 0, STATIC
        FUNCALL MT_ZdoCommandProcessing, osal_build_uint16
        LOCFRAME ISTACK, 0, STACK
        LOCFRAME PSTACK, 0, STACK
        LOCFRAME XSTACK, 52, STACK
        LOCFRAME IOVERLAY, 0, STATIC
        LOCFRAME DOVERLAY, 0, STATIC
        ARGFRAME ISTACK, 0, STACK
        ARGFRAME PSTACK, 0, STACK
        ARGFRAME XSTACK, 52, STACK
        ARGFRAME IOVERLAY, 0, STATIC
        ARGFRAME DOVERLAY, 0, STATIC
        FUNCALL MT_ZdoCommandProcessing, osal_memcpy
        LOCFRAME ISTACK, 0, STACK
        LOCFRAME PSTACK, 0, STACK
        LOCFRAME XSTACK, 55, STACK
        LOCFRAME IOVERLAY, 0, STATIC
        LOCFRAME DOVERLAY, 0, STATIC
        ARGFRAME ISTACK, 0, STACK
        ARGFRAME PSTACK, 0, STACK
        ARGFRAME XSTACK, 55, STACK
        ARGFRAME IOVERLAY, 0, STATIC
        ARGFRAME DOVERLAY, 0, STATIC
        FUNCALL MT_ZdoCommandProcessing, ZDP_UserDescSet
        LOCFRAME ISTACK, 0, STACK
        LOCFRAME PSTACK, 0, STACK
        LOCFRAME XSTACK, 54, STACK
        LOCFRAME IOVERLAY, 0, STATIC
        LOCFRAME DOVERLAY, 0, STATIC
        ARGFRAME ISTACK, 0, STACK
        ARGFRAME PSTACK, 0, STACK
        ARGFRAME XSTACK, 54, STACK
        ARGFRAME IOVERLAY, 0, STATIC
        ARGFRAME DOVERLAY, 0, STATIC
        FUNCALL MT_ZdoCommandProcessing, MT_BuildAndSendZToolResponse
        LOCFRAME ISTACK, 0, STACK
        LOCFRAME PSTACK, 0, STACK
        LOCFRAME XSTACK, 52, STACK
        LOCFRAME IOVERLAY, 0, STATIC
        LOCFRAME DOVERLAY, 0, STATIC
        ARGFRAME ISTACK, 0, STACK
        ARGFRAME PSTACK, 0, STACK
        ARGFRAME XSTACK, 52, STACK
        ARGFRAME IOVERLAY, 0, STATIC
        ARGFRAME DOVERLAY, 0, STATIC
        FUNCALL MT_ZdoCommandProcessing, osal_build_uint16
        LOCFRAME ISTACK, 0, STACK
        LOCFRAME PSTACK, 0, STACK
        LOCFRAME XSTACK, 52, STACK
        LOCFRAME IOVERLAY, 0, STATIC
        LOCFRAME DOVERLAY, 0, STATIC
        ARGFRAME ISTACK, 0, STACK
        ARGFRAME PSTACK, 0, STACK
        ARGFRAME XSTACK, 52, STACK
        ARGFRAME IOVERLAY, 0, STATIC
        ARGFRAME DOVERLAY, 0, STATIC
        FUNCALL MT_ZdoCommandProcessing, ZDP_ServerDiscReq
        LOCFRAME ISTACK, 0, STACK
        LOCFRAME PSTACK, 0, STACK
        LOCFRAME XSTACK, 52, STACK
        LOCFRAME IOVERLAY, 0, STATIC
        LOCFRAME DOVERLAY, 0, STATIC
        ARGFRAME ISTACK, 0, STACK
        ARGFRAME PSTACK, 0, STACK
        ARGFRAME XSTACK, 52, STACK
        ARGFRAME IOVERLAY, 0, STATIC
        ARGFRAME DOVERLAY, 0, STATIC
        FUNCALL MT_ZdoCommandProcessing, MT_BuildAndSendZToolResponse
        LOCFRAME ISTACK, 0, STACK
        LOCFRAME PSTACK, 0, STACK
        LOCFRAME XSTACK, 52, STACK
        LOCFRAME IOVERLAY, 0, STATIC
        LOCFRAME DOVERLAY, 0, STATIC
        ARGFRAME ISTACK, 0, STACK
        ARGFRAME PSTACK, 0, STACK
        ARGFRAME XSTACK, 52, STACK
        ARGFRAME IOVERLAY, 0, STATIC
        ARGFRAME DOVERLAY, 0, STATIC
        FUNCALL MT_ZdoCommandProcessing, MT_ZdoEndDevBindRequest
        LOCFRAME ISTACK, 0, STACK
        LOCFRAME PSTACK, 0, STACK
        LOCFRAME XSTACK, 52, STACK
        LOCFRAME IOVERLAY, 0, STATIC
        LOCFRAME DOVERLAY, 0, STATIC
        ARGFRAME ISTACK, 0, STACK
        ARGFRAME PSTACK, 0, STACK
        ARGFRAME XSTACK, 52, STACK
        ARGFRAME IOVERLAY, 0, STATIC
        ARGFRAME DOVERLAY, 0, STATIC
        FUNCALL MT_ZdoCommandProcessing, MT_ZdoBindRequest
        LOCFRAME ISTACK, 0, STACK
        LOCFRAME PSTACK, 0, STACK
        LOCFRAME XSTACK, 52, STACK
        LOCFRAME IOVERLAY, 0, STATIC
        LOCFRAME DOVERLAY, 0, STATIC
        ARGFRAME ISTACK, 0, STACK
        ARGFRAME PSTACK, 0, STACK
        ARGFRAME XSTACK, 52, STACK
        ARGFRAME IOVERLAY, 0, STATIC
        ARGFRAME DOVERLAY, 0, STATIC
        FUNCALL MT_ZdoCommandProcessing, MT_ZdoUnbindRequest
        LOCFRAME ISTACK, 0, STACK
        LOCFRAME PSTACK, 0, STACK
        LOCFRAME XSTACK, 52, STACK
        LOCFRAME IOVERLAY, 0, STATIC
        LOCFRAME DOVERLAY, 0, STATIC
        ARGFRAME ISTACK, 0, STACK
        ARGFRAME PSTACK, 0, STACK
        ARGFRAME XSTACK, 52, STACK
        ARGFRAME IOVERLAY, 0, STATIC
        ARGFRAME DOVERLAY, 0, STATIC
        FUNCALL MT_ZdoCommandProcessing, osal_build_uint32
        LOCFRAME ISTACK, 0, STACK
        LOCFRAME PSTACK, 0, STACK
        LOCFRAME XSTACK, 52, STACK
        LOCFRAME IOVERLAY, 0, STATIC
        LOCFRAME DOVERLAY, 0, STATIC
        ARGFRAME ISTACK, 0, STACK
        ARGFRAME PSTACK, 0, STACK
        ARGFRAME XSTACK, 52, STACK
        ARGFRAME IOVERLAY, 0, STATIC
        ARGFRAME DOVERLAY, 0, STATIC
        FUNCALL MT_ZdoCommandProcessing, ZDApp_NetworkDiscoveryReq
        LOCFRAME ISTACK, 0, STACK
        LOCFRAME PSTACK, 0, STACK
        LOCFRAME XSTACK, 52, STACK
        LOCFRAME IOVERLAY, 0, STATIC
        LOCFRAME DOVERLAY, 0, STATIC
        ARGFRAME ISTACK, 0, STACK
        ARGFRAME PSTACK, 0, STACK
        ARGFRAME XSTACK, 52, STACK
        ARGFRAME IOVERLAY, 0, STATIC
        ARGFRAME DOVERLAY, 0, STATIC
        FUNCALL MT_ZdoCommandProcessing, ZDO_RegisterForZdoCB
        LOCFRAME ISTACK, 0, STACK
        LOCFRAME PSTACK, 0, STACK
        LOCFRAME XSTACK, 52, STACK
        LOCFRAME IOVERLAY, 0, STATIC
        LOCFRAME DOVERLAY, 0, STATIC
        ARGFRAME ISTACK, 0, STACK
        ARGFRAME PSTACK, 0, STACK
        ARGFRAME XSTACK, 52, STACK
        ARGFRAME IOVERLAY, 0, STATIC
        ARGFRAME DOVERLAY, 0, STATIC
        FUNCALL MT_ZdoCommandProcessing, ZDO_RegisterForZdoCB
        LOCFRAME ISTACK, 0, STACK
        LOCFRAME PSTACK, 0, STACK
        LOCFRAME XSTACK, 52, STACK
        LOCFRAME IOVERLAY, 0, STATIC
        LOCFRAME DOVERLAY, 0, STATIC
        ARGFRAME ISTACK, 0, STACK
        ARGFRAME PSTACK, 0, STACK
        ARGFRAME XSTACK, 52, STACK
        ARGFRAME IOVERLAY, 0, STATIC
        ARGFRAME DOVERLAY, 0, STATIC
        FUNCALL MT_ZdoCommandProcessing, MT_BuildAndSendZToolResponse
        LOCFRAME ISTACK, 0, STACK
        LOCFRAME PSTACK, 0, STACK
        LOCFRAME XSTACK, 52, STACK
        LOCFRAME IOVERLAY, 0, STATIC
        LOCFRAME DOVERLAY, 0, STATIC
        ARGFRAME ISTACK, 0, STACK
        ARGFRAME PSTACK, 0, STACK
        ARGFRAME XSTACK, 52, STACK
        ARGFRAME IOVERLAY, 0, STATIC
        ARGFRAME DOVERLAY, 0, STATIC
        FUNCALL MT_ZdoCommandProcessing, osal_build_uint16
        LOCFRAME ISTACK, 0, STACK
        LOCFRAME PSTACK, 0, STACK
        LOCFRAME XSTACK, 52, STACK
        LOCFRAME IOVERLAY, 0, STATIC
        LOCFRAME DOVERLAY, 0, STATIC
        ARGFRAME ISTACK, 0, STACK
        ARGFRAME PSTACK, 0, STACK
        ARGFRAME XSTACK, 52, STACK
        ARGFRAME IOVERLAY, 0, STATIC
        ARGFRAME DOVERLAY, 0, STATIC
        FUNCALL MT_ZdoCommandProcessing, osal_build_uint16
        LOCFRAME ISTACK, 0, STACK
        LOCFRAME PSTACK, 0, STACK
        LOCFRAME XSTACK, 52, STACK
        LOCFRAME IOVERLAY, 0, STATIC
        LOCFRAME DOVERLAY, 0, STATIC
        ARGFRAME ISTACK, 0, STACK
        ARGFRAME PSTACK, 0, STACK
        ARGFRAME XSTACK, 52, STACK
        ARGFRAME IOVERLAY, 0, STATIC
        ARGFRAME DOVERLAY, 0, STATIC
        FUNCALL MT_ZdoCommandProcessing, ZDApp_JoinReq
        LOCFRAME ISTACK, 0, STACK
        LOCFRAME PSTACK, 0, STACK
        LOCFRAME XSTACK, 56, STACK
        LOCFRAME IOVERLAY, 0, STATIC
        LOCFRAME DOVERLAY, 0, STATIC
        ARGFRAME ISTACK, 0, STACK
        ARGFRAME PSTACK, 0, STACK
        ARGFRAME XSTACK, 56, STACK
        ARGFRAME IOVERLAY, 0, STATIC
        ARGFRAME DOVERLAY, 0, STATIC
        FUNCALL MT_ZdoCommandProcessing, ZDO_RegisterForZdoCB
        LOCFRAME ISTACK, 0, STACK
        LOCFRAME PSTACK, 0, STACK
        LOCFRAME XSTACK, 52, STACK
        LOCFRAME IOVERLAY, 0, STATIC
        LOCFRAME DOVERLAY, 0, STATIC
        ARGFRAME ISTACK, 0, STACK
        ARGFRAME PSTACK, 0, STACK
        ARGFRAME XSTACK, 52, STACK
        ARGFRAME IOVERLAY, 0, STATIC
        ARGFRAME DOVERLAY, 0, STATIC
        FUNCALL MT_ZdoCommandProcessing, MT_BuildAndSendZToolResponse
        LOCFRAME ISTACK, 0, STACK
        LOCFRAME PSTACK, 0, STACK
        LOCFRAME XSTACK, 52, STACK
        LOCFRAME IOVERLAY, 0, STATIC
        LOCFRAME DOVERLAY, 0, STATIC
        ARGFRAME ISTACK, 0, STACK
        ARGFRAME PSTACK, 0, STACK
        ARGFRAME XSTACK, 52, STACK
        ARGFRAME IOVERLAY, 0, STATIC
        ARGFRAME DOVERLAY, 0, STATIC
        FUNCALL MT_ZdoCommandProcessing, ZDOInitDevice
        LOCFRAME ISTACK, 0, STACK
        LOCFRAME PSTACK, 0, STACK
        LOCFRAME XSTACK, 52, STACK
        LOCFRAME IOVERLAY, 0, STATIC
        LOCFRAME DOVERLAY, 0, STATIC
        ARGFRAME ISTACK, 0, STACK
        ARGFRAME PSTACK, 0, STACK
        ARGFRAME XSTACK, 52, STACK
        ARGFRAME IOVERLAY, 0, STATIC
        ARGFRAME DOVERLAY, 0, STATIC
        FUNCALL MT_ZdoCommandProcessing, MT_BuildAndSendZToolResponse
        LOCFRAME ISTACK, 0, STACK
        LOCFRAME PSTACK, 0, STACK
        LOCFRAME XSTACK, 52, STACK
        LOCFRAME IOVERLAY, 0, STATIC
        LOCFRAME DOVERLAY, 0, STATIC
        ARGFRAME ISTACK, 0, STACK
        ARGFRAME PSTACK, 0, STACK
        ARGFRAME XSTACK, 52, STACK
        ARGFRAME IOVERLAY, 0, STATIC
        ARGFRAME DOVERLAY, 0, STATIC
        FUNCALL MT_ZdoCommandProcessing, MT_ZdoSendData
        LOCFRAME ISTACK, 0, STACK
        LOCFRAME PSTACK, 0, STACK
        LOCFRAME XSTACK, 52, STACK
        LOCFRAME IOVERLAY, 0, STATIC
        LOCFRAME DOVERLAY, 0, STATIC
        ARGFRAME ISTACK, 0, STACK
        ARGFRAME PSTACK, 0, STACK
        ARGFRAME XSTACK, 52, STACK
        ARGFRAME IOVERLAY, 0, STATIC
        ARGFRAME DOVERLAY, 0, STATIC
        FUNCALL MT_ZdoCommandProcessing, MT_ZdoNwkAddrOfInterestReq
        LOCFRAME ISTACK, 0, STACK
        LOCFRAME PSTACK, 0, STACK
        LOCFRAME XSTACK, 52, STACK
        LOCFRAME IOVERLAY, 0, STATIC
        LOCFRAME DOVERLAY, 0, STATIC
        ARGFRAME ISTACK, 0, STACK
        ARGFRAME PSTACK, 0, STACK
        ARGFRAME XSTACK, 52, STACK
        ARGFRAME IOVERLAY, 0, STATIC
        ARGFRAME DOVERLAY, 0, STATIC
        FUNCALL MT_ZdoCommandProcessing, osal_build_uint16
        LOCFRAME ISTACK, 0, STACK
        LOCFRAME PSTACK, 0, STACK
        LOCFRAME XSTACK, 52, STACK
        LOCFRAME IOVERLAY, 0, STATIC
        LOCFRAME DOVERLAY, 0, STATIC
        ARGFRAME ISTACK, 0, STACK
        ARGFRAME PSTACK, 0, STACK
        ARGFRAME XSTACK, 52, STACK
        ARGFRAME IOVERLAY, 0, STATIC
        ARGFRAME DOVERLAY, 0, STATIC
        FUNCALL MT_ZdoCommandProcessing, ZDO_RegisterForZDOMsg
        LOCFRAME ISTACK, 0, STACK
        LOCFRAME PSTACK, 0, STACK
        LOCFRAME XSTACK, 52, STACK
        LOCFRAME IOVERLAY, 0, STATIC
        LOCFRAME DOVERLAY, 0, STATIC
        ARGFRAME ISTACK, 0, STACK
        ARGFRAME PSTACK, 0, STACK
        ARGFRAME XSTACK, 52, STACK
        ARGFRAME IOVERLAY, 0, STATIC
        ARGFRAME DOVERLAY, 0, STATIC
        FUNCALL MT_ZdoCommandProcessing, MT_BuildAndSendZToolResponse
        LOCFRAME ISTACK, 0, STACK
        LOCFRAME PSTACK, 0, STACK
        LOCFRAME XSTACK, 52, STACK
        LOCFRAME IOVERLAY, 0, STATIC
        LOCFRAME DOVERLAY, 0, STATIC
        ARGFRAME ISTACK, 0, STACK
        ARGFRAME PSTACK, 0, STACK
        ARGFRAME XSTACK, 52, STACK
        ARGFRAME IOVERLAY, 0, STATIC
        ARGFRAME DOVERLAY, 0, STATIC
        FUNCALL MT_ZdoCommandProcessing, osal_build_uint16
        LOCFRAME ISTACK, 0, STACK
        LOCFRAME PSTACK, 0, STACK
        LOCFRAME XSTACK, 52, STACK
        LOCFRAME IOVERLAY, 0, STATIC
        LOCFRAME DOVERLAY, 0, STATIC
        ARGFRAME ISTACK, 0, STACK
        ARGFRAME PSTACK, 0, STACK
        ARGFRAME XSTACK, 52, STACK
        ARGFRAME IOVERLAY, 0, STATIC
        ARGFRAME DOVERLAY, 0, STATIC
        FUNCALL MT_ZdoCommandProcessing, ZDO_RemoveRegisteredCB
        LOCFRAME ISTACK, 0, STACK
        LOCFRAME PSTACK, 0, STACK
        LOCFRAME XSTACK, 52, STACK
        LOCFRAME IOVERLAY, 0, STATIC
        LOCFRAME DOVERLAY, 0, STATIC
        ARGFRAME ISTACK, 0, STACK
        ARGFRAME PSTACK, 0, STACK
        ARGFRAME XSTACK, 52, STACK
        ARGFRAME IOVERLAY, 0, STATIC
        ARGFRAME DOVERLAY, 0, STATIC
        FUNCALL MT_ZdoCommandProcessing, MT_BuildAndSendZToolResponse
        LOCFRAME ISTACK, 0, STACK
        LOCFRAME PSTACK, 0, STACK
        LOCFRAME XSTACK, 52, STACK
        LOCFRAME IOVERLAY, 0, STATIC
        LOCFRAME DOVERLAY, 0, STATIC
        ARGFRAME ISTACK, 0, STACK
        ARGFRAME PSTACK, 0, STACK
        ARGFRAME XSTACK, 52, STACK
        ARGFRAME IOVERLAY, 0, STATIC
        ARGFRAME DOVERLAY, 0, STATIC
        FUNCALL MT_ZdoCommandProcessing, osal_build_uint32
        LOCFRAME ISTACK, 0, STACK
        LOCFRAME PSTACK, 0, STACK
        LOCFRAME XSTACK, 52, STACK
        LOCFRAME IOVERLAY, 0, STATIC
        LOCFRAME DOVERLAY, 0, STATIC
        ARGFRAME ISTACK, 0, STACK
        ARGFRAME PSTACK, 0, STACK
        ARGFRAME XSTACK, 52, STACK
        ARGFRAME IOVERLAY, 0, STATIC
        ARGFRAME DOVERLAY, 0, STATIC
        FUNCALL MT_ZdoCommandProcessing, osal_build_uint32
        LOCFRAME ISTACK, 0, STACK
        LOCFRAME PSTACK, 0, STACK
        LOCFRAME XSTACK, 52, STACK
        LOCFRAME IOVERLAY, 0, STATIC
        LOCFRAME DOVERLAY, 0, STATIC
        ARGFRAME ISTACK, 0, STACK
        ARGFRAME PSTACK, 0, STACK
        ARGFRAME XSTACK, 52, STACK
        ARGFRAME IOVERLAY, 0, STATIC
        ARGFRAME DOVERLAY, 0, STATIC
        FUNCALL MT_ZdoCommandProcessing, ZDApp_SetRejoinScanDuration
        LOCFRAME ISTACK, 0, STACK
        LOCFRAME PSTACK, 0, STACK
        LOCFRAME XSTACK, 52, STACK
        LOCFRAME IOVERLAY, 0, STATIC
        LOCFRAME DOVERLAY, 0, STATIC
        ARGFRAME ISTACK, 0, STACK
        ARGFRAME PSTACK, 0, STACK
        ARGFRAME XSTACK, 52, STACK
        ARGFRAME IOVERLAY, 0, STATIC
        ARGFRAME DOVERLAY, 0, STATIC
        FUNCALL MT_ZdoCommandProcessing, ZDApp_SetRejoinBackoffDuration
        LOCFRAME ISTACK, 0, STACK
        LOCFRAME PSTACK, 0, STACK
        LOCFRAME XSTACK, 52, STACK
        LOCFRAME IOVERLAY, 0, STATIC
        LOCFRAME DOVERLAY, 0, STATIC
        ARGFRAME ISTACK, 0, STACK
        ARGFRAME PSTACK, 0, STACK
        ARGFRAME XSTACK, 52, STACK
        ARGFRAME IOVERLAY, 0, STATIC
        ARGFRAME DOVERLAY, 0, STATIC
        FUNCALL MT_ZdoCommandProcessing, MT_BuildAndSendZToolResponse
        LOCFRAME ISTACK, 0, STACK
        LOCFRAME PSTACK, 0, STACK
        LOCFRAME XSTACK, 52, STACK
        LOCFRAME IOVERLAY, 0, STATIC
        LOCFRAME DOVERLAY, 0, STATIC
        ARGFRAME ISTACK, 0, STACK
        ARGFRAME PSTACK, 0, STACK
        ARGFRAME XSTACK, 52, STACK
        ARGFRAME IOVERLAY, 0, STATIC
        ARGFRAME DOVERLAY, 0, STATIC
        REQUIRE ?V0
        REQUIRE ?V1
        REQUIRE ?V2
        REQUIRE ?V3
        REQUIRE ?V4
        REQUIRE ?V5
        REQUIRE ?V6
        REQUIRE ?V7
        REQUIRE ?V8
        REQUIRE ?V9
        REQUIRE ?V10
        REQUIRE ?V11
        REQUIRE ?V12
        REQUIRE ?V13
        REQUIRE ?V14
        REQUIRE ?V15
        MOV     A,#-0x18
        LCALL   ?BANKED_ENTER_XDATA
          CFI DPH0 load(1, XDATA, add(CFA_XSP16, literal(-1)))
          CFI DPL0 load(1, XDATA, add(CFA_XSP16, literal(-2)))
          CFI ?BRET_EXT load(1, XDATA, add(CFA_XSP16, literal(-3)))
          CFI ?RET_HIGH load(1, XDATA, add(CFA_XSP16, literal(-4)))
          CFI ?RET_LOW load(1, XDATA, add(CFA_XSP16, literal(-5)))
          CFI R7 load(1, XDATA, add(CFA_XSP16, literal(-6)))
          CFI V15 load(1, XDATA, add(CFA_XSP16, literal(-7)))
          CFI V14 load(1, XDATA, add(CFA_XSP16, literal(-8)))
          CFI V13 load(1, XDATA, add(CFA_XSP16, literal(-9)))
          CFI V12 load(1, XDATA, add(CFA_XSP16, literal(-10)))
          CFI V11 load(1, XDATA, add(CFA_XSP16, literal(-11)))
          CFI V10 load(1, XDATA, add(CFA_XSP16, literal(-12)))
          CFI V9 load(1, XDATA, add(CFA_XSP16, literal(-13)))
          CFI V8 load(1, XDATA, add(CFA_XSP16, literal(-14)))
          CFI V7 load(1, XDATA, add(CFA_XSP16, literal(-15)))
          CFI V6 load(1, XDATA, add(CFA_XSP16, literal(-16)))
          CFI V5 load(1, XDATA, add(CFA_XSP16, literal(-17)))
          CFI V4 load(1, XDATA, add(CFA_XSP16, literal(-18)))
          CFI V3 load(1, XDATA, add(CFA_XSP16, literal(-19)))
          CFI V2 load(1, XDATA, add(CFA_XSP16, literal(-20)))
          CFI V1 load(1, XDATA, add(CFA_XSP16, literal(-21)))
          CFI V0 load(1, XDATA, add(CFA_XSP16, literal(-22)))
          CFI VB load(1, XDATA, add(CFA_XSP16, literal(-23)))
          CFI R6 load(1, XDATA, add(CFA_XSP16, literal(-24)))
          CFI CFA_SP SP+0
          CFI CFA_XSP16 add(XSP16, 24)
        ; Saved register size: 24
        ; Auto size: 28
        MOV     A,#-0x1c
        LCALL   ?ALLOC_XSTACK8
          CFI CFA_XSP16 add(XSP16, 52)
//  232   uint8 status = MT_RPC_SUCCESS;
        MOV     ?V12,#0x0
//  233 
//  234   switch (pBuf[MT_RPC_POS_CMD1])
        MOV     A,R2
        ADD     A,#0x2
        MOV     R0,A
        CLR     A
        ADDC    A,R3
        MOV     R1,A
        MOV     A,R0
        MOV     R4,A
        MOV     A,R1
        MOV     R5,A
        MOV     DPL,R4
        MOV     DPH,R5
        MOVX    A,@DPTR
        MOV     R7,A
        MOV     A,R2
        ADD     A,#0x3
        INC     R0
        CLR     A
        ADDC    A,R3
        MOV     R1,A
        MOV     A,R7
        JNZ     $+5
        LJMP    ??MT_ZdoCommandProcessing_0 & 0xFFFF
        DEC     A
        JNZ     $+5
        LJMP    ??MT_ZdoCommandProcessing_1 & 0xFFFF
        DEC     A
        JNZ     $+5
        LJMP    ??MT_ZdoCommandProcessing_2 & 0xFFFF
        DEC     A
        JNZ     $+5
        LJMP    ??MT_ZdoCommandProcessing_3 & 0xFFFF
        DEC     A
        JNZ     $+5
        LJMP    ??MT_ZdoCommandProcessing_4 & 0xFFFF
        DEC     A
        JNZ     $+5
        LJMP    ??MT_ZdoCommandProcessing_5 & 0xFFFF
        DEC     A
        JNZ     $+5
        LJMP    ??MT_ZdoCommandProcessing_6 & 0xFFFF
        DEC     A
        JNZ     $+5
        LJMP    ??MT_ZdoCommandProcessing_7 & 0xFFFF
        DEC     A
        JNZ     $+5
        LJMP    ??MT_ZdoCommandProcessing_8 & 0xFFFF
        ADD     A,#-0x2
        JNZ     $+5
        LJMP    ??MT_ZdoCommandProcessing_9 & 0xFFFF
        DEC     A
        JNZ     $+5
        LJMP    ??MT_ZdoCommandProcessing_10 & 0xFFFF
        DEC     A
        JNZ     $+5
        LJMP    ??MT_ZdoCommandProcessing_11 & 0xFFFF
        ADD     A,#-0x14
        JNZ     $+5
        LJMP    ??MT_ZdoCommandProcessing_12 & 0xFFFF
        DEC     A
        JNZ     $+5
        LJMP    ??MT_ZdoCommandProcessing_13 & 0xFFFF
        DEC     A
        JNZ     $+5
        LJMP    ??MT_ZdoCommandProcessing_14 & 0xFFFF
        ADD     A,#-0x4
        JNZ     $+5
        LJMP    ??MT_ZdoCommandProcessing_15 & 0xFFFF
        DEC     A
        JNZ     $+5
        LJMP    ??MT_ZdoCommandProcessing_16 & 0xFFFF
        DEC     A
        JNZ     $+5
        LJMP    ??MT_ZdoCommandProcessing_17 & 0xFFFF
        DEC     A
        JNZ     $+5
        LJMP    ??MT_ZdoCommandProcessing_18 & 0xFFFF
        ADD     A,#-0x15
        JNZ     $+5
        LJMP    ??MT_ZdoCommandProcessing_19 & 0xFFFF
        DEC     A
        JNZ     $+5
        LJMP    ??MT_ZdoCommandProcessing_20 & 0xFFFF
        DEC     A
        JNZ     $+5
        LJMP    ??MT_ZdoCommandProcessing_21 & 0xFFFF
        ADD     A,#0x74
        JNZ     $+5
        LJMP    ??MT_ZdoCommandProcessing_22 & 0xFFFF
        LJMP    ??MT_ZdoCommandProcessing_23 & 0xFFFF
//  235   {
//  236 #if defined ( ZDO_NWKADDR_REQUEST )
//  237     case MT_ZDO_NWK_ADDR_REQ:
//  238       MT_ZdoNWKAddressRequest(pBuf);
??MT_ZdoCommandProcessing_0:
        MOV     A,#0x1
        LCALL   ?XSTACK_DISP0_8
        MOV     A,R7
        MOVX    @DPTR,A
        INC     R2
        INC     R2
        INC     R2
        MOV     A,R1
        MOV     R3,A
        MOV     A,R2
        ADD     A,#0x8
        MOV     R0,A
        CLR     A
        ADDC    A,R3
        MOV     R1,A
        ; Setup parameters for call to function ZDP_NwkAddrReq
        MOV     R5,#0x0
        MOV     DPL,R0
        MOV     DPH,R1
        INC     DPTR
        MOVX    A,@DPTR
        MOV     R4,A
        MOV     DPL,R0
        MOV     DPH,R1
        MOVX    A,@DPTR
        MOV     R1,A
        LCALL   `??ZDP_NwkAddrReq::?relay`; Banked call to: ZDP_NwkAddrReq
        LJMP    ??MT_ZdoCommandProcessing_24 & 0xFFFF
//  239       break;
//  240 #endif
//  241 
//  242 #if defined ( ZDO_IEEEADDR_REQUEST )
//  243     case MT_ZDO_IEEE_ADDR_REQ:
//  244       MT_ZdoIEEEAddrRequest(pBuf);
??MT_ZdoCommandProcessing_1:
        MOV     A,#0x1
        LCALL   ?XSTACK_DISP0_8
        MOV     A,R7
        MOVX    @DPTR,A
        MOV     A,R0
        MOV     R6,A
        MOV     A,R1
        MOV     R7,A
        ; Setup parameters for call to function osal_build_uint16
        INC     R2
        INC     R2
        INC     R2
        MOV     R3,A
        LCALL   `??osal_build_uint16::?relay`; Banked call to: osal_build_uint16
        ; Setup parameters for call to function ZDP_IEEEAddrReq
        MOV     R5,#0x0
        MOV     DPL,R6
        MOV     DPH,R7
        INC     DPTR
        INC     DPTR
        INC     DPTR
        MOVX    A,@DPTR
        MOV     R4,A
        MOV     DPL,R6
        MOV     DPH,R7
        INC     DPTR
        INC     DPTR
        MOVX    A,@DPTR
        MOV     R1,A
        LCALL   `??ZDP_IEEEAddrReq::?relay`; Banked call to: ZDP_IEEEAddrReq
        LJMP    ??MT_ZdoCommandProcessing_24 & 0xFFFF
//  245       break;
//  246 #endif
//  247 
//  248 #if defined ( ZDO_NODEDESC_REQUEST )
//  249     case MT_ZDO_NODE_DESC_REQ:
//  250       MT_ZdoNodeDescRequest(pBuf);
??MT_ZdoCommandProcessing_2:
        MOV     A,#0x1
        LCALL   ?XSTACK_DISP0_8
        LCALL   ?Subroutine20 & 0xFFFF
??CrossCallReturnLabel_41:
        LCALL   ?XSTACK_DISP0_8
        LCALL   ?Subroutine19 & 0xFFFF
??CrossCallReturnLabel_30:
        LCALL   `??osal_build_uint16::?relay`; Banked call to: osal_build_uint16
        MOV     A,#0x2
        LCALL   ?XSTACK_DISP0_8
        LCALL   ?Subroutine5 & 0xFFFF
??CrossCallReturnLabel_4:
        LCALL   `??osal_build_uint16::?relay`; Banked call to: osal_build_uint16
        MOV     ?V0,R2
        MOV     ?V1,R3
        MOV     R4,?V0
        MOV     R5,?V1
        ; Setup parameters for call to function ZDP_NWKAddrOfInterestReq
        MOV     ?V0,#0x0
        MOV     R0,#?V0
        LCALL   ?PUSH_XSTACK_I_ONE
          CFI CFA_XSP16 add(XSP16, 53)
        MOV     R1,#0x2
        LJMP    ??MT_ZdoCommandProcessing_25 & 0xFFFF
          CFI CFA_XSP16 add(XSP16, 52)
//  251       break;
//  252 #endif
//  253 
//  254 #if defined ( ZDO_POWERDESC_REQUEST )
//  255     case MT_ZDO_POWER_DESC_REQ:
//  256       MT_ZdoPowerDescRequest(pBuf);
??MT_ZdoCommandProcessing_3:
        MOV     A,#0x1
        LCALL   ?XSTACK_DISP0_8
        LCALL   ?Subroutine20 & 0xFFFF
??CrossCallReturnLabel_42:
        LCALL   ?XSTACK_DISP0_8
        LCALL   ?Subroutine19 & 0xFFFF
??CrossCallReturnLabel_31:
        LCALL   `??osal_build_uint16::?relay`; Banked call to: osal_build_uint16
        MOV     A,#0x2
        LCALL   ?XSTACK_DISP0_8
        LCALL   ?Subroutine5 & 0xFFFF
??CrossCallReturnLabel_5:
        LCALL   `??osal_build_uint16::?relay`; Banked call to: osal_build_uint16
        MOV     ?V0,R2
        MOV     ?V1,R3
        MOV     R4,?V0
        MOV     R5,?V1
        ; Setup parameters for call to function ZDP_NWKAddrOfInterestReq
        MOV     ?V0,#0x0
        MOV     R0,#?V0
        LCALL   ?PUSH_XSTACK_I_ONE
          CFI CFA_XSP16 add(XSP16, 53)
        MOV     R1,#0x3
        MOV     A,R1
        LJMP    ??MT_ZdoCommandProcessing_26 & 0xFFFF
          CFI CFA_XSP16 add(XSP16, 52)
//  257       break;
//  258 #endif
//  259 
//  260 #if defined ( ZDO_SIMPLEDESC_REQUEST )
//  261     case MT_ZDO_SIMPLE_DESC_REQ:
//  262       MT_ZdoSimpleDescRequest(pBuf);
??MT_ZdoCommandProcessing_4:
        MOV     A,#0x1
        LCALL   ?XSTACK_DISP0_8
        LCALL   ?Subroutine20 & 0xFFFF
??CrossCallReturnLabel_43:
        LCALL   ?XSTACK_DISP0_8
        LCALL   ?Subroutine19 & 0xFFFF
??CrossCallReturnLabel_32:
        LCALL   `??osal_build_uint16::?relay`; Banked call to: osal_build_uint16
        MOV     A,#0x2
        LCALL   ?XSTACK_DISP0_8
        LCALL   ??Subroutine40_0 & 0xFFFF
??CrossCallReturnLabel_84:
        JNC     ??MT_ZdoCommandProcessing_27
        INC     R7
??MT_ZdoCommandProcessing_27:
        ; Setup parameters for call to function osal_build_uint16
        MOV     R2,A
        MOV     A,R7
        MOV     R3,A
        LCALL   `??osal_build_uint16::?relay`; Banked call to: osal_build_uint16
        MOV     ?V0,R2
        MOV     ?V1,R3
        MOV     R4,?V0
        MOV     R5,?V1
        ; Setup parameters for call to function ZDP_SimpleDescReq
        MOV     ?V0,#0x0
        MOV     R0,#?V0
        LCALL   ?PUSH_XSTACK_I_ONE
          CFI CFA_XSP16 add(XSP16, 53)
        MOV     DPL,R6
        MOV     DPH,R7
        INC     DPTR
        INC     DPTR
        MOVX    A,@DPTR
        MOV     R1,A
        MOV     A,#0x3
        LCALL   ?XSTACK_DISP101_8
        LCALL   `??ZDP_SimpleDescReq::?relay`; Banked call to: ZDP_SimpleDescReq
        LJMP    ??MT_ZdoCommandProcessing_28 & 0xFFFF
          CFI CFA_XSP16 add(XSP16, 52)
//  263       break;
//  264 #endif
//  265 
//  266 #if defined ( ZDO_ACTIVEEP_REQUEST )
//  267     case MT_ZDO_ACTIVE_EP_REQ:
//  268       MT_ZdoActiveEpRequest(pBuf);
??MT_ZdoCommandProcessing_5:
        MOV     A,#0x1
        LCALL   ?XSTACK_DISP0_8
        LCALL   ?Subroutine20 & 0xFFFF
??CrossCallReturnLabel_44:
        LCALL   ?XSTACK_DISP0_8
        LCALL   ?Subroutine19 & 0xFFFF
??CrossCallReturnLabel_33:
        LCALL   `??osal_build_uint16::?relay`; Banked call to: osal_build_uint16
        MOV     A,#0x2
        LCALL   ?XSTACK_DISP0_8
        LCALL   ?Subroutine5 & 0xFFFF
??CrossCallReturnLabel_6:
        LCALL   `??osal_build_uint16::?relay`; Banked call to: osal_build_uint16
        MOV     ?V0,R2
        MOV     ?V1,R3
        MOV     R4,?V0
        MOV     R5,?V1
        ; Setup parameters for call to function ZDP_NWKAddrOfInterestReq
        MOV     ?V0,#0x0
        MOV     R0,#?V0
        LCALL   ?PUSH_XSTACK_I_ONE
          CFI CFA_XSP16 add(XSP16, 53)
        MOV     R1,#0x5
        SJMP    ??MT_ZdoCommandProcessing_25
          CFI CFA_XSP16 add(XSP16, 52)
//  269       break;
//  270 #endif
//  271 
//  272 #if defined ( ZDO_MATCH_REQUEST )
//  273     case MT_ZDO_MATCH_DESC_REQ:
//  274       MT_ZdoMatchDescRequest(pBuf);
??MT_ZdoCommandProcessing_6:
        ; Setup parameters for call to function MT_ZdoMatchDescRequest
        LCALL   `??MT_ZdoMatchDescRequest::?relay`; Banked call to: MT_ZdoMatchDescRequest
//  275       break;
        LJMP    ??MT_ZdoCommandProcessing_29 & 0xFFFF
//  276 #endif
//  277 
//  278 #if defined ( ZDO_COMPLEXDESC_REQUEST )
//  279     case MT_ZDO_COMPLEX_DESC_REQ:
//  280       MT_ZdoComplexDescRequest(pBuf);
??MT_ZdoCommandProcessing_7:
        MOV     A,#0x1
        LCALL   ?XSTACK_DISP0_8
        LCALL   ?Subroutine20 & 0xFFFF
??CrossCallReturnLabel_45:
        LCALL   ?XSTACK_DISP0_8
        LCALL   ?Subroutine19 & 0xFFFF
??CrossCallReturnLabel_34:
        LCALL   `??osal_build_uint16::?relay`; Banked call to: osal_build_uint16
        MOV     A,#0x2
        LCALL   ?XSTACK_DISP0_8
        LCALL   ?Subroutine5 & 0xFFFF
??CrossCallReturnLabel_7:
        LCALL   `??osal_build_uint16::?relay`; Banked call to: osal_build_uint16
        MOV     ?V0,R2
        MOV     ?V1,R3
        MOV     R4,?V0
        MOV     R5,?V1
        ; Setup parameters for call to function ZDP_NWKAddrOfInterestReq
        MOV     ?V0,#0x0
        MOV     R0,#?V0
        LCALL   ?PUSH_XSTACK_I_ONE
          CFI CFA_XSP16 add(XSP16, 53)
        MOV     R1,#0x10
        SJMP    ??MT_ZdoCommandProcessing_25
          CFI CFA_XSP16 add(XSP16, 52)
//  281       break;
//  282 #endif
//  283 
//  284 #if defined ( ZDO_USERDESC_REQUEST )
//  285     case MT_ZDO_USER_DESC_REQ:
//  286       MT_ZdoUserDescRequest(pBuf);
??MT_ZdoCommandProcessing_8:
        MOV     A,#0x1
        LCALL   ?XSTACK_DISP0_8
        LCALL   ?Subroutine20 & 0xFFFF
??CrossCallReturnLabel_46:
        LCALL   ?XSTACK_DISP0_8
        LCALL   ?Subroutine19 & 0xFFFF
??CrossCallReturnLabel_35:
        LCALL   `??osal_build_uint16::?relay`; Banked call to: osal_build_uint16
        MOV     A,#0x2
        LCALL   ?XSTACK_DISP0_8
        LCALL   ?Subroutine5 & 0xFFFF
??CrossCallReturnLabel_8:
        LCALL   `??osal_build_uint16::?relay`; Banked call to: osal_build_uint16
        MOV     ?V0,R2
        MOV     ?V1,R3
        MOV     R4,?V0
        MOV     R5,?V1
        ; Setup parameters for call to function ZDP_NWKAddrOfInterestReq
        MOV     ?V0,#0x0
        MOV     R0,#?V0
        LCALL   ?PUSH_XSTACK_I_ONE
          CFI CFA_XSP16 add(XSP16, 53)
        MOV     R1,#0x11
??MT_ZdoCommandProcessing_25:
        MOV     A,#0x3
??MT_ZdoCommandProcessing_26:
        LCALL   ?XSTACK_DISP101_8
        LCALL   `??ZDP_NWKAddrOfInterestReq::?relay`; Banked call to: ZDP_NWKAddrOfInterestReq
??MT_ZdoCommandProcessing_28:
        MOV     A,#0x1
        LCALL   ?DEALLOC_XSTACK8
          CFI CFA_XSP16 add(XSP16, 52)
??MT_ZdoCommandProcessing_24:
        LCALL   ?Subroutine21 & 0xFFFF
??CrossCallReturnLabel_91:
        MOV     A,R3
        LCALL   ?XSTACK_DISP0_8
        MOVX    A,@DPTR
        MOV     R2,A
        LJMP    ??MT_ZdoCommandProcessing_30 & 0xFFFF
//  287       break;
//  288 #endif
//  289 
//  290 #if defined ( ZDO_ENDDEVICE_ANNCE )
//  291     case MT_ZDO_END_DEV_ANNCE:
//  292       MT_ZdoEndDevAnnce(pBuf);
??MT_ZdoCommandProcessing_9:
        MOV     ?V15,R7
        MOV     A,R0
        MOV     R6,A
        MOV     A,R1
        MOV     R7,A
        ; Setup parameters for call to function osal_build_uint16
        INC     R2
        INC     R2
        INC     R2
        MOV     R3,A
        LCALL   `??osal_build_uint16::?relay`; Banked call to: osal_build_uint16
        MOV     A,R6
        ADD     A,#0x2
        MOV     R6,A
        JNC     ??MT_ZdoCommandProcessing_31
        INC     R7
??MT_ZdoCommandProcessing_31:
        ; Setup parameters for call to function ZDP_DeviceAnnce
        MOV     ?V0,#0x0
        MOV     R0,#?V0
        LCALL   ?PUSH_XSTACK_I_ONE
          CFI CFA_XSP16 add(XSP16, 53)
        MOV     DPL,R6
        MOV     DPH,R7
        INC     DPTR
        INC     DPTR
        INC     DPTR
        INC     DPTR
        INC     DPTR
        INC     DPTR
        INC     DPTR
        INC     DPTR
        MOVX    A,@DPTR
        MOV     R1,A
        MOV     A,R6
        MOV     R4,A
        MOV     A,R7
        MOV     R5,A
        LCALL   `??ZDP_DeviceAnnce::?relay`; Banked call to: ZDP_DeviceAnnce
        MOV     A,#0x1
        LCALL   ?DEALLOC_XSTACK8
          CFI CFA_XSP16 add(XSP16, 52)
        LCALL   ?Subroutine21 & 0xFFFF
??CrossCallReturnLabel_92:
        MOV     R2,?V15
        LJMP    ??MT_ZdoCommandProcessing_30 & 0xFFFF
//  293       break;
//  294 #endif
//  295 
//  296 #if defined ( ZDO_USERDESCSET_REQUEST )
//  297     case MT_ZDO_USER_DESC_SET:
//  298       MT_ZdoUserDescSet(pBuf);
??MT_ZdoCommandProcessing_10:
        MOV     ?V14,R7
        MOV     ?V0,R0
        MOV     ?V1,R1
        MOV     A,#0xa
        LCALL   ?XSTACK_DISP0_8
        MOV     A,#0x2
        MOVX    @DPTR,A
        ; Setup parameters for call to function osal_build_uint16
        INC     R2
        INC     R2
        INC     R2
        MOV     R3,?V1
        LCALL   `??osal_build_uint16::?relay`; Banked call to: osal_build_uint16
        MOV     A,#0x2
        LCALL   ?XSTACK_DISP0_8
        MOV     A,R2
        MOVX    @DPTR,A
        INC     DPTR
        MOV     A,R3
        MOVX    @DPTR,A
        MOV     A,?V0
        ADD     A,#0x2
        MOV     ?V0,A
        JNC     ??MT_ZdoCommandProcessing_32
        INC     ?V1
??MT_ZdoCommandProcessing_32:
        ; Setup parameters for call to function osal_build_uint16
        MOV     R2,A
        MOV     R3,?V1
        LCALL   `??osal_build_uint16::?relay`; Banked call to: osal_build_uint16
        MOV     ?V2,R2
        MOV     ?V3,R3
        MOV     R6,?V2
        MOV     DPL,?V0
        MOV     DPH,?V1
        INC     DPTR
        INC     DPTR
        MOVX    A,@DPTR
        PUSH    A
          CFI CFA_SP SP+-1
        MOV     A,#0xb
        LCALL   ?XSTACK_DISP0_8
        POP     A
          CFI CFA_SP SP+0
        LCALL   ?Subroutine23 & 0xFFFF
??CrossCallReturnLabel_49:
        INC     DPTR
        MOV     R1,DPL
        MOV     R2,DPH
        MOV     ?V0,R1
        MOV     ?V1,R2
        MOV     ?V2,#0x0
        MOV     R0,#?V0
        LCALL   ?PUSH_XSTACK_I_THREE
          CFI CFA_XSP16 add(XSP16, 55)
        MOV     A,#0xe
        LCALL   ?XSTACK_DISP0_8
        MOVX    A,@DPTR
        MOV     R4,A
        MOV     R5,#0x0
        MOV     A,#0xf
        LCALL   ?XSTACK_DISP0_8
        MOV     R2,DPL
        MOV     R3,DPH
        LCALL   `??osal_memcpy::?relay`; Banked call to: osal_memcpy
        MOV     A,#0x3
        LCALL   ?DEALLOC_XSTACK8
          CFI CFA_XSP16 add(XSP16, 52)
        ; Setup parameters for call to function ZDP_UserDescSet
        MOV     A,#0xb
        LCALL   ?XSTACK_DISP100_8
        MOV     ?V0,R0
        MOV     ?V1,R1
        MOV     R0,#?V0
        LCALL   ?PUSH_XSTACK_I_TWO
          CFI CFA_XSP16 add(XSP16, 54)
        MOV     R1,#0x0
        MOV     A,R6
        MOV     R4,A
        MOV     R5,?V3
        MOV     A,#0x4
        LCALL   ?XSTACK_DISP101_8
        LCALL   `??ZDP_UserDescSet::?relay`; Banked call to: ZDP_UserDescSet
        MOV     A,#0x2
        LCALL   ?DEALLOC_XSTACK8
          CFI CFA_XSP16 add(XSP16, 52)
        LCALL   ?Subroutine21 & 0xFFFF
??CrossCallReturnLabel_93:
        MOV     R2,?V14
        LJMP    ??MT_ZdoCommandProcessing_30 & 0xFFFF
//  299       break;
//  300 #endif
//  301 
//  302 #if defined ( ZDO_SERVERDISC_REQUEST )
//  303     case MT_ZDO_SERVICE_DISC_REQ:
//  304       MT_ZdoServiceDiscRequest(pBuf);
??MT_ZdoCommandProcessing_11:
        MOV     ?V13,R7
        ; Setup parameters for call to function osal_build_uint16
        INC     R2
        INC     R2
        INC     R2
        MOV     A,R1
        MOV     R3,A
        LCALL   `??osal_build_uint16::?relay`; Banked call to: osal_build_uint16
        ; Setup parameters for call to function ZDP_ServerDiscReq
        MOV     R1,#0x0
        LCALL   `??ZDP_ServerDiscReq::?relay`; Banked call to: ZDP_ServerDiscReq
        LCALL   ?Subroutine21 & 0xFFFF
??CrossCallReturnLabel_94:
        MOV     R2,?V13
        LJMP    ??MT_ZdoCommandProcessing_30 & 0xFFFF
//  305       break;
//  306 #endif
//  307 
//  308 #if defined ( ZDO_ENDDEVICEBIND_REQUEST )
//  309     case MT_ZDO_END_DEV_BIND_REQ:
//  310       MT_ZdoEndDevBindRequest(pBuf);
??MT_ZdoCommandProcessing_12:
        ; Setup parameters for call to function MT_ZdoEndDevBindRequest
        LCALL   `??MT_ZdoEndDevBindRequest::?relay`; Banked call to: MT_ZdoEndDevBindRequest
//  311       break;
        LJMP    ??MT_ZdoCommandProcessing_29 & 0xFFFF
//  312 #endif
//  313 
//  314 #if defined ( ZDO_BIND_UNBIND_REQUEST )
//  315     case MT_ZDO_BIND_REQ:
//  316       MT_ZdoBindRequest(pBuf);
??MT_ZdoCommandProcessing_13:
        ; Setup parameters for call to function MT_ZdoBindRequest
        LCALL   `??MT_ZdoBindRequest::?relay`; Banked call to: MT_ZdoBindRequest
//  317       break;
        LJMP    ??MT_ZdoCommandProcessing_29 & 0xFFFF
//  318 #endif
//  319 
//  320 #if defined ( ZDO_BIND_UNBIND_REQUEST )
//  321     case MT_ZDO_UNBIND_REQ:
//  322       MT_ZdoUnbindRequest(pBuf);
??MT_ZdoCommandProcessing_14:
        ; Setup parameters for call to function MT_ZdoUnbindRequest
        LCALL   `??MT_ZdoUnbindRequest::?relay`; Banked call to: MT_ZdoUnbindRequest
//  323       break;
        LJMP    ??MT_ZdoCommandProcessing_29 & 0xFFFF
//  324 #endif
//  325 
//  326 #if defined ( MT_SYS_KEY_MANAGEMENT )
//  327     case MT_ZDO_SET_LINK_KEY:
//  328       MT_ZdoSetLinkKey(pBuf);
//  329       break;
//  330 
//  331     case MT_ZDO_REMOVE_LINK_KEY:
//  332       MT_ZdoRemoveLinkKey(pBuf);
//  333       break;
//  334 
//  335     case MT_ZDO_GET_LINK_KEY:
//  336       MT_ZdoGetLinkKey(pBuf);
//  337       break;
//  338 #endif // MT_SYS_KEY_MANAGEMENT
//  339 
//  340 #if defined ( ZDO_MANUAL_JOIN )
//  341     case MT_ZDO_NWK_DISCOVERY_REQ:
//  342       MT_ZdoNetworkDiscoveryReq(pBuf);
??MT_ZdoCommandProcessing_15:
        MOV     DPL,?XSP + 0
        MOV     DPH,?XSP + 1
        MOV     A,#0x1
        MOVX    @DPTR,A
        MOV     DPL,R4
        MOV     DPH,R5
        MOVX    A,@DPTR
        MOV     ?V0,A
        MOV     A,R0
        MOV     R6,A
        MOV     A,R1
        MOV     R7,A
        ; Setup parameters for call to function osal_build_uint32
        MOV     R1,#0x4
        INC     R2
        INC     R2
        INC     R2
        MOV     R3,A
        LCALL   `??osal_build_uint32::?relay`; Banked call to: osal_build_uint32
        ; Setup parameters for call to function ZDApp_NetworkDiscoveryReq
        MOV     DPL,R6
        MOV     DPH,R7
        INC     DPTR
        INC     DPTR
        INC     DPTR
        INC     DPTR
        MOVX    A,@DPTR
        MOV     R1,A
        LCALL   `??ZDApp_NetworkDiscoveryReq::?relay`; Banked call to: ZDApp_NetworkDiscoveryReq
        MOV     A,R1
        MOV     DPL,?XSP + 0
        MOV     DPH,?XSP + 1
        MOVX    @DPTR,A
        ; Setup parameters for call to function ZDO_RegisterForZdoCB
        MOV     R2,#`??MT_ZdoNwkDiscoveryCnfCB::?relay` & 0xff
        MOV     R3,#(`??MT_ZdoNwkDiscoveryCnfCB::?relay` >> 8) & 0xff
        MOV     R1,#0x2
        LCALL   `??ZDO_RegisterForZdoCB::?relay`; Banked call to: ZDO_RegisterForZdoCB
        ; Setup parameters for call to function ZDO_RegisterForZdoCB
        MOV     R2,#`??MT_ZdoBeaconIndCB::?relay` & 0xff
        MOV     R3,#(`??MT_ZdoBeaconIndCB::?relay` >> 8) & 0xff
        MOV     R1,#0x3
        LCALL   `??ZDO_RegisterForZdoCB::?relay`; Banked call to: ZDO_RegisterForZdoCB
        ; Setup parameters for call to function MT_BuildAndSendZToolResponse
        MOV     R4,?XSP + 0
        MOV     R5,?XSP + 1
        MOV     R3,#0x1
        MOV     R2,?V0
        LJMP    ??MT_ZdoCommandProcessing_30 & 0xFFFF
//  343       break;
//  344 
//  345     case MT_ZDO_JOIN_REQ:
//  346       MT_ZdoJoinReq(pBuf);
??MT_ZdoCommandProcessing_16:
        MOV     DPL,?XSP + 0
        MOV     DPH,?XSP + 1
        MOV     A,#0x1
        MOVX    @DPTR,A
        MOV     DPL,R4
        MOV     DPH,R5
        MOVX    A,@DPTR
        MOV     ?V2,A
        MOV     A,R0
        MOV     R6,A
        MOV     A,R1
        MOV     R7,A
        ; Setup parameters for call to function osal_build_uint16
        MOV     DPL,R6
        MOV     DPH,R7
        INC     DPTR
        MOV     R2,DPL
        MOV     R3,DPH
        LCALL   `??osal_build_uint16::?relay`; Banked call to: osal_build_uint16
        MOV     ?V0,R2
        MOV     ?V1,R3
        ; Setup parameters for call to function osal_build_uint16
        MOV     A,R6
        ADD     A,#0xb
        MOV     R2,A
        CLR     A
        ADDC    A,R7
        MOV     R3,A
        LCALL   `??osal_build_uint16::?relay`; Banked call to: osal_build_uint16
        MOV     ?V4,R2
        MOV     ?V5,R3
        ; Setup parameters for call to function ZDApp_JoinReq
        MOV     A,R6
        ADD     A,#0xe
        LCALL   ?Subroutine30 & 0xFFFF
??CrossCallReturnLabel_64:
        LCALL   ?PUSH_XSTACK_I_ONE
          CFI CFA_XSP16 add(XSP16, 53)
        MOV     A,R6
        ADD     A,#0xd
        LCALL   ?Subroutine30 & 0xFFFF
??CrossCallReturnLabel_65:
        LCALL   ?PUSH_XSTACK_I_ONE
          CFI CFA_XSP16 add(XSP16, 54)
        MOV     R0,#?V4
        LCALL   ?PUSH_XSTACK_I_TWO
          CFI CFA_XSP16 add(XSP16, 56)
        MOV     A,R6
        ADD     A,#0x3
        MOV     R4,A
        CLR     A
        ADDC    A,R7
        MOV     R5,A
        MOV     R2,?V0
        MOV     R3,?V1
        MOV     DPL,R6
        MOV     DPH,R7
        MOVX    A,@DPTR
        MOV     R1,A
        LCALL   `??ZDApp_JoinReq::?relay`; Banked call to: ZDApp_JoinReq
        MOV     A,#0x4
        LCALL   ?DEALLOC_XSTACK8
          CFI CFA_XSP16 add(XSP16, 52)
        MOV     A,R1
        MOV     DPL,?XSP + 0
        MOV     DPH,?XSP + 1
        MOVX    @DPTR,A
        ; Setup parameters for call to function ZDO_RegisterForZdoCB
        MOV     R2,#`??MT_ZdoJoinCnfCB::?relay` & 0xff
        MOV     R3,#(`??MT_ZdoJoinCnfCB::?relay` >> 8) & 0xff
        MOV     R1,#0x4
        LCALL   `??ZDO_RegisterForZdoCB::?relay`; Banked call to: ZDO_RegisterForZdoCB
        ; Setup parameters for call to function MT_BuildAndSendZToolResponse
        MOV     R4,?XSP + 0
        MOV     R5,?XSP + 1
        MOV     R3,#0x1
        MOV     R2,?V2
        LJMP    ??MT_ZdoCommandProcessing_30 & 0xFFFF
//  347       break;
//  348 #endif
//  349 
//  350 #if defined ( ZDO_MGMT_NWKDISC_REQUEST )
//  351     case MT_ZDO_MGMT_NWKDISC_REQ:
//  352       MT_ZdoMgmtNwkDiscRequest(pBuf);
//  353       break;
//  354 #endif
//  355 
//  356 #if defined ( ZDO_MGMT_LQI_REQUEST )
//  357     case MT_ZDO_MGMT_LQI_REQ:
//  358       MT_ZdoMgmtLqiRequest(pBuf);
//  359       break;
//  360 #endif
//  361 
//  362 #if defined ( ZDO_MGMT_RTG_REQUEST )
//  363     case MT_ZDO_MGMT_RTG_REQ:
//  364       MT_ZdoMgmtRtgRequest(pBuf);
//  365       break;
//  366 #endif
//  367 
//  368 #if defined ( ZDO_MGMT_BIND_REQUEST )
//  369     case MT_ZDO_MGMT_BIND_REQ:
//  370       MT_ZdoMgmtBindRequest(pBuf);
//  371       break;
//  372 #endif
//  373 
//  374 #if defined ( ZDO_MGMT_LEAVE_REQUEST )
//  375     case MT_ZDO_MGMT_LEAVE_REQ:
//  376       MT_ZdoMgmtLeaveRequest(pBuf);
//  377       break;
//  378 #endif
//  379 
//  380 #if defined ( ZDO_MGMT_JOINDIRECT_REQUEST )
//  381     case MT_ZDO_MGMT_DIRECT_JOIN_REQ:
//  382       MT_ZdoMgmtDirectJoinRequest(pBuf);
//  383       break;
//  384 #endif
//  385 
//  386 #if defined ( ZDO_MGMT_PERMIT_JOIN_REQUEST )
//  387     case MT_ZDO_MGMT_PERMIT_JOIN_REQ:
//  388       MT_ZdoMgmtPermitJoinRequest(pBuf);
//  389       break;
//  390 #endif
//  391 
//  392 #if defined ( ZDO_MGMT_NWKUPDATE_REQUEST )
//  393     case MT_ZDO_MGMT_NWK_UPDATE_REQ:
//  394       MT_ZdoMgmtNwkUpdateRequest(pBuf);
//  395       break;
//  396 #endif
//  397 
//  398 #if defined ( ZDO_NETWORKSTART_REQUEST )
//  399     case MT_ZDO_STARTUP_FROM_APP:
//  400       MT_ZdoStartupFromApp(pBuf);
??MT_ZdoCommandProcessing_21:
        MOV     DPL,R2
        MOV     DPH,R3
        INC     DPTR
        MOVX    A,@DPTR
        MOV     R6,A
        MOV     ?V7,R7
        ; Setup parameters for call to function ZDOInitDevice
        MOV     R2,#0x64
        MOV     R3,#0x0
        LCALL   `??ZDOInitDevice::?relay`; Banked call to: ZDOInitDevice
        LCALL   ?Subroutine24 & 0xFFFF
??CrossCallReturnLabel_51:
        JZ      $+5
        LJMP    ??MT_ZdoCommandProcessing_29 & 0xFFFF
        ; Setup parameters for call to function MT_BuildAndSendZToolResponse
        MOV     R4,?XSP + 0
        MOV     R5,?XSP + 1
        MOV     R3,#0x1
        MOV     R2,?V7
        LJMP    ??MT_ZdoCommandProcessing_30 & 0xFFFF
//  401       break;
//  402 #endif
//  403 
//  404     case MT_ZDO_SEND_DATA:
//  405       MT_ZdoSendData( pBuf );
??MT_ZdoCommandProcessing_17:
        ; Setup parameters for call to function MT_ZdoSendData
        LCALL   `??MT_ZdoSendData::?relay`; Banked call to: MT_ZdoSendData
//  406       break;
        LJMP    ??MT_ZdoCommandProcessing_29 & 0xFFFF
//  407 
//  408     case MT_ZDO_NWK_ADDR_OF_INTEREST_REQ:
//  409       MT_ZdoNwkAddrOfInterestReq( pBuf );
??MT_ZdoCommandProcessing_18:
        ; Setup parameters for call to function MT_ZdoNwkAddrOfInterestReq
        LCALL   `??MT_ZdoNwkAddrOfInterestReq::?relay`; Banked call to: MT_ZdoNwkAddrOfInterestReq
//  410       break;
        LJMP    ??MT_ZdoCommandProcessing_29 & 0xFFFF
//  411 
//  412     case MT_ZDO_MSG_CB_REGISTER:
//  413       MT_ZdoRegisterForZDOMsg(pBuf);
??MT_ZdoCommandProcessing_19:
        MOV     DPL,R2
        MOV     DPH,R3
        INC     DPTR
        MOVX    A,@DPTR
        MOV     R6,A
        MOV     ?V6,R7
        ; Setup parameters for call to function osal_build_uint16
        INC     R2
        INC     R2
        INC     R2
        MOV     A,R1
        MOV     R3,A
        LCALL   `??osal_build_uint16::?relay`; Banked call to: osal_build_uint16
        ; Setup parameters for call to function ZDO_RegisterForZDOMsg
        MOV     DPTR,#MT_TaskID
        MOVX    A,@DPTR
        MOV     R1,A
        LCALL   `??ZDO_RegisterForZDOMsg::?relay`; Banked call to: ZDO_RegisterForZDOMsg
        LCALL   ?Subroutine24 & 0xFFFF
??CrossCallReturnLabel_52:
        JNZ     ??MT_ZdoCommandProcessing_29
        ; Setup parameters for call to function MT_BuildAndSendZToolResponse
        MOV     R4,?XSP + 0
        MOV     R5,?XSP + 1
        MOV     R3,#0x1
        MOV     R2,?V6
        SJMP    ??MT_ZdoCommandProcessing_30
//  414       break;
//  415 
//  416     case MT_ZDO_MSG_CB_REMOVE:
//  417       MT_ZdoRemoveRegisteredCB(pBuf);
??MT_ZdoCommandProcessing_20:
        MOV     DPL,R2
        MOV     DPH,R3
        INC     DPTR
        MOVX    A,@DPTR
        MOV     R6,A
        MOV     ?V5,R7
        ; Setup parameters for call to function osal_build_uint16
        INC     R2
        INC     R2
        INC     R2
        MOV     A,R1
        MOV     R3,A
        LCALL   `??osal_build_uint16::?relay`; Banked call to: osal_build_uint16
        ; Setup parameters for call to function ZDO_RemoveRegisteredCB
        MOV     DPTR,#MT_TaskID
        MOVX    A,@DPTR
        MOV     R1,A
        LCALL   `??ZDO_RemoveRegisteredCB::?relay`; Banked call to: ZDO_RemoveRegisteredCB
        LCALL   ?Subroutine24 & 0xFFFF
??CrossCallReturnLabel_53:
        JNZ     ??MT_ZdoCommandProcessing_29
        ; Setup parameters for call to function MT_BuildAndSendZToolResponse
        MOV     R4,?XSP + 0
        MOV     R5,?XSP + 1
        MOV     R3,#0x1
        MOV     R2,?V5
        SJMP    ??MT_ZdoCommandProcessing_30
//  418       break;
//  419 
//  420     case MT_ZDO_SET_REJOIN_PARAMS:
//  421       MT_ZdoSetRejoinParameters(pBuf);
??MT_ZdoCommandProcessing_22:
        MOV     ?V4,R7
        MOV     A,R0
        MOV     R6,A
        MOV     A,R1
        MOV     R7,A
        ; Setup parameters for call to function osal_build_uint32
        MOV     R1,#0x4
        INC     R2
        INC     R2
        INC     R2
        MOV     R3,A
        LCALL   `??osal_build_uint32::?relay`; Banked call to: osal_build_uint32
        MOV     ?V0,R2
        MOV     ?V1,R3
        MOV     ?V2,R4
        MOV     ?V3,R5
        ; Setup parameters for call to function osal_build_uint32
        MOV     R1,#0x4
        MOV     A,R6
        ADD     A,R1
        MOV     R2,A
        CLR     A
        ADDC    A,R7
        MOV     R3,A
        LCALL   `??osal_build_uint32::?relay`; Banked call to: osal_build_uint32
        ; Setup parameters for call to function ZDApp_SetRejoinScanDuration
        LCALL   `??ZDApp_SetRejoinScanDuration::?relay`; Banked call to: ZDApp_SetRejoinScanDuration
        ; Setup parameters for call to function ZDApp_SetRejoinBackoffDuration
        MOV     R2,?V0
        MOV     R3,?V1
        MOV     R4,?V2
        MOV     R5,?V3
        LCALL   `??ZDApp_SetRejoinBackoffDuration::?relay`; Banked call to: ZDApp_SetRejoinBackoffDuration
        MOV     DPL,?XSP + 0
        MOV     DPH,?XSP + 1
        CLR     A
        LCALL   ??Subroutine41_0 & 0xFFFF
??CrossCallReturnLabel_96:
        MOV     R2,?V4
??MT_ZdoCommandProcessing_30:
        MOV     R1,#0x65
        LCALL   `??MT_BuildAndSendZToolResponse::?relay`; Banked call to: MT_BuildAndSendZToolResponse
//  422       break;
        SJMP    ??MT_ZdoCommandProcessing_29
//  423 
//  424 #if defined ( MT_ZDO_EXTENSIONS )
//  425 #if ( ZG_BUILD_COORDINATOR_TYPE )
//  426     case MT_ZDO_EXT_UPDATE_NWK_KEY:
//  427       MT_ZdoSecUpdateNwkKey( pBuf );
//  428       break;
//  429 
//  430     case MT_ZDO_EXT_SWITCH_NWK_KEY:
//  431       MT_ZdoSecSwitchNwkKey( pBuf );
//  432       break;
//  433 #endif // ZDO_COORDINATOR
//  434     case MT_ZDO_SEC_ADD_LINK_KEY:
//  435       MT_ZdoSecAddLinkKey( pBuf );
//  436       break;
//  437 
//  438     case MT_ZDO_SEC_ENTRY_LOOKUP_EXT:
//  439       MT_ZdoSecEntryLookupExt( pBuf );
//  440       break;
//  441 
//  442     case MT_ZDO_SEC_DEVICE_REMOVE:
//  443        MT_ZdoSecDeviceRemove( pBuf );
//  444        break;
//  445 
//  446     case MT_ZDO_EXT_ROUTE_DISC:
//  447        MT_ZdoExtRouteDisc( pBuf );
//  448        break;
//  449 
//  450     case MT_ZDO_EXT_ROUTE_CHECK:
//  451        MT_ZdoExtRouteCheck( pBuf );
//  452        break;
//  453 
//  454     case MT_ZDO_EXT_REMOVE_GROUP:
//  455       MT_ZdoExtRemoveGroup( pBuf );
//  456       break;
//  457 
//  458     case MT_ZDO_EXT_REMOVE_ALL_GROUP:
//  459       MT_ZdoExtRemoveAllGroup( pBuf );
//  460       break;
//  461 
//  462     case MT_ZDO_EXT_FIND_ALL_GROUPS_ENDPOINT:
//  463       MT_ZdoExtFindAllGroupsEndpoint( pBuf );
//  464       break;
//  465 
//  466     case MT_ZDO_EXT_FIND_GROUP:
//  467       MT_ZdoExtFindGroup( pBuf );
//  468       break;
//  469 
//  470     case MT_ZDO_EXT_ADD_GROUP:
//  471       MT_ZdoExtAddGroup( pBuf );
//  472       break;
//  473 
//  474     case MT_ZDO_EXT_COUNT_ALL_GROUPS:
//  475       MT_ZdoExtCountAllGroups( pBuf );
//  476       break;
//  477 
//  478     case MT_ZDO_EXT_RX_IDLE:
//  479       MT_ZdoExtRxIdle( pBuf );
//  480       break;
//  481 
//  482     case MT_ZDO_EXT_NWK_INFO:
//  483       MT_ZdoExtNwkInfo( pBuf );
//  484       break;
//  485 
//  486     case MT_ZDO_EXT_SEC_APS_REMOVE_REQ:
//  487       MT_ZdoExtSecApsRemoveReq( pBuf );
//  488       break;
//  489 
//  490     case MT_ZDO_FORCE_CONCENTRATOR_CHANGE:
//  491       ZDApp_ForceConcentratorChange();
//  492       break;
//  493 
//  494     case MT_ZDO_EXT_SET_PARAMS:
//  495       MT_ZdoExtSetParams( pBuf );
//  496       break;
//  497 #endif  // MT_ZDO_EXTENSIONS
//  498 
//  499     default:
//  500       status = MT_RPC_ERR_COMMAND_ID;
??MT_ZdoCommandProcessing_23:
        MOV     ?V12,#0x2
//  501       break;
//  502   }
//  503 
//  504   return status;
??MT_ZdoCommandProcessing_29:
        MOV     R1,?V12
        MOV     A,#0x1c
        LCALL   ?DEALLOC_XSTACK8
          CFI CFA_XSP16 add(XSP16, 24)
        MOV     R7,#0x10
        LJMP    ?BANKED_LEAVE_XDATA
//  505 }
          CFI EndBlock cfiBlock1

        RSEG BANKED_CODE:CODE:NOROOT(0)
?Subroutine30:
          CFI Block cfiCond2 Using cfiCommon0
          CFI Function MT_ZdoCommandProcessing
          CFI Conditional ??CrossCallReturnLabel_64
          CFI R6 load(1, XDATA, add(CFA_XSP16, literal(-24)))
          CFI VB load(1, XDATA, add(CFA_XSP16, literal(-23)))
          CFI V0 load(1, XDATA, add(CFA_XSP16, literal(-22)))
          CFI V1 load(1, XDATA, add(CFA_XSP16, literal(-21)))
          CFI V2 load(1, XDATA, add(CFA_XSP16, literal(-20)))
          CFI V3 load(1, XDATA, add(CFA_XSP16, literal(-19)))
          CFI V4 load(1, XDATA, add(CFA_XSP16, literal(-18)))
          CFI V5 load(1, XDATA, add(CFA_XSP16, literal(-17)))
          CFI V6 load(1, XDATA, add(CFA_XSP16, literal(-16)))
          CFI V7 load(1, XDATA, add(CFA_XSP16, literal(-15)))
          CFI V8 load(1, XDATA, add(CFA_XSP16, literal(-14)))
          CFI V9 load(1, XDATA, add(CFA_XSP16, literal(-13)))
          CFI V10 load(1, XDATA, add(CFA_XSP16, literal(-12)))
          CFI V11 load(1, XDATA, add(CFA_XSP16, literal(-11)))
          CFI V12 load(1, XDATA, add(CFA_XSP16, literal(-10)))
          CFI V13 load(1, XDATA, add(CFA_XSP16, literal(-9)))
          CFI V14 load(1, XDATA, add(CFA_XSP16, literal(-8)))
          CFI V15 load(1, XDATA, add(CFA_XSP16, literal(-7)))
          CFI R7 load(1, XDATA, add(CFA_XSP16, literal(-6)))
          CFI ?RET_LOW load(1, XDATA, add(CFA_XSP16, literal(-5)))
          CFI ?RET_HIGH load(1, XDATA, add(CFA_XSP16, literal(-4)))
          CFI ?BRET_EXT load(1, XDATA, add(CFA_XSP16, literal(-3)))
          CFI DPL0 load(1, XDATA, add(CFA_XSP16, literal(-2)))
          CFI DPH0 load(1, XDATA, add(CFA_XSP16, literal(-1)))
          CFI CFA_SP SP+-2
          CFI CFA_XSP16 add(XSP16, 52)
          CFI Block cfiCond3 Using cfiCommon0
          CFI (cfiCond3) Function MT_ZdoCommandProcessing
          CFI (cfiCond3) Conditional ??CrossCallReturnLabel_65
          CFI (cfiCond3) R6 load(1, XDATA, add(CFA_XSP16, literal(-24)))
          CFI (cfiCond3) VB load(1, XDATA, add(CFA_XSP16, literal(-23)))
          CFI (cfiCond3) V0 load(1, XDATA, add(CFA_XSP16, literal(-22)))
          CFI (cfiCond3) V1 load(1, XDATA, add(CFA_XSP16, literal(-21)))
          CFI (cfiCond3) V2 load(1, XDATA, add(CFA_XSP16, literal(-20)))
          CFI (cfiCond3) V3 load(1, XDATA, add(CFA_XSP16, literal(-19)))
          CFI (cfiCond3) V4 load(1, XDATA, add(CFA_XSP16, literal(-18)))
          CFI (cfiCond3) V5 load(1, XDATA, add(CFA_XSP16, literal(-17)))
          CFI (cfiCond3) V6 load(1, XDATA, add(CFA_XSP16, literal(-16)))
          CFI (cfiCond3) V7 load(1, XDATA, add(CFA_XSP16, literal(-15)))
          CFI (cfiCond3) V8 load(1, XDATA, add(CFA_XSP16, literal(-14)))
          CFI (cfiCond3) V9 load(1, XDATA, add(CFA_XSP16, literal(-13)))
          CFI (cfiCond3) V10 load(1, XDATA, add(CFA_XSP16, literal(-12)))
          CFI (cfiCond3) V11 load(1, XDATA, add(CFA_XSP16, literal(-11)))
          CFI (cfiCond3) V12 load(1, XDATA, add(CFA_XSP16, literal(-10)))
          CFI (cfiCond3) V13 load(1, XDATA, add(CFA_XSP16, literal(-9)))
          CFI (cfiCond3) V14 load(1, XDATA, add(CFA_XSP16, literal(-8)))
          CFI (cfiCond3) V15 load(1, XDATA, add(CFA_XSP16, literal(-7)))
          CFI (cfiCond3) R7 load(1, XDATA, add(CFA_XSP16, literal(-6)))
          CFI (cfiCond3) ?RET_LOW load(1, XDATA, add(CFA_XSP16, literal(-5)))
          CFI (cfiCond3) ?RET_HIGH load(1, XDATA, add(CFA_XSP16, literal(-4)))
          CFI (cfiCond3) ?BRET_EXT load(1, XDATA, add(CFA_XSP16, literal(-3)))
          CFI (cfiCond3) DPL0 load(1, XDATA, add(CFA_XSP16, literal(-2)))
          CFI (cfiCond3) DPH0 load(1, XDATA, add(CFA_XSP16, literal(-1)))
          CFI (cfiCond3) CFA_SP SP+-2
          CFI (cfiCond3) CFA_XSP16 add(XSP16, 53)
          CFI Block cfiPicker4 Using cfiCommon1
          CFI (cfiPicker4) NoFunction
          CFI (cfiPicker4) Picker
        MOV     DPL,A
        CLR     A
        ADDC    A,R7
        MOV     DPH,A
        MOVX    A,@DPTR
        MOV     ?V3,A
        MOV     R0,#?V3
        RET
          CFI EndBlock cfiCond2
          CFI EndBlock cfiCond3
          CFI EndBlock cfiPicker4

        RSEG BANKED_CODE:CODE:NOROOT(0)
?Subroutine24:
          CFI Block cfiCond5 Using cfiCommon0
          CFI Function MT_ZdoCommandProcessing
          CFI Conditional ??CrossCallReturnLabel_51
          CFI R6 load(1, XDATA, add(CFA_XSP16, literal(-24)))
          CFI VB load(1, XDATA, add(CFA_XSP16, literal(-23)))
          CFI V0 load(1, XDATA, add(CFA_XSP16, literal(-22)))
          CFI V1 load(1, XDATA, add(CFA_XSP16, literal(-21)))
          CFI V2 load(1, XDATA, add(CFA_XSP16, literal(-20)))
          CFI V3 load(1, XDATA, add(CFA_XSP16, literal(-19)))
          CFI V4 load(1, XDATA, add(CFA_XSP16, literal(-18)))
          CFI V5 load(1, XDATA, add(CFA_XSP16, literal(-17)))
          CFI V6 load(1, XDATA, add(CFA_XSP16, literal(-16)))
          CFI V7 load(1, XDATA, add(CFA_XSP16, literal(-15)))
          CFI V8 load(1, XDATA, add(CFA_XSP16, literal(-14)))
          CFI V9 load(1, XDATA, add(CFA_XSP16, literal(-13)))
          CFI V10 load(1, XDATA, add(CFA_XSP16, literal(-12)))
          CFI V11 load(1, XDATA, add(CFA_XSP16, literal(-11)))
          CFI V12 load(1, XDATA, add(CFA_XSP16, literal(-10)))
          CFI V13 load(1, XDATA, add(CFA_XSP16, literal(-9)))
          CFI V14 load(1, XDATA, add(CFA_XSP16, literal(-8)))
          CFI V15 load(1, XDATA, add(CFA_XSP16, literal(-7)))
          CFI R7 load(1, XDATA, add(CFA_XSP16, literal(-6)))
          CFI ?RET_LOW load(1, XDATA, add(CFA_XSP16, literal(-5)))
          CFI ?RET_HIGH load(1, XDATA, add(CFA_XSP16, literal(-4)))
          CFI ?BRET_EXT load(1, XDATA, add(CFA_XSP16, literal(-3)))
          CFI DPL0 load(1, XDATA, add(CFA_XSP16, literal(-2)))
          CFI DPH0 load(1, XDATA, add(CFA_XSP16, literal(-1)))
          CFI CFA_SP SP+-2
          CFI CFA_XSP16 add(XSP16, 52)
          CFI Block cfiCond6 Using cfiCommon0
          CFI (cfiCond6) Function MT_ZdoCommandProcessing
          CFI (cfiCond6) Conditional ??CrossCallReturnLabel_52
          CFI (cfiCond6) R6 load(1, XDATA, add(CFA_XSP16, literal(-24)))
          CFI (cfiCond6) VB load(1, XDATA, add(CFA_XSP16, literal(-23)))
          CFI (cfiCond6) V0 load(1, XDATA, add(CFA_XSP16, literal(-22)))
          CFI (cfiCond6) V1 load(1, XDATA, add(CFA_XSP16, literal(-21)))
          CFI (cfiCond6) V2 load(1, XDATA, add(CFA_XSP16, literal(-20)))
          CFI (cfiCond6) V3 load(1, XDATA, add(CFA_XSP16, literal(-19)))
          CFI (cfiCond6) V4 load(1, XDATA, add(CFA_XSP16, literal(-18)))
          CFI (cfiCond6) V5 load(1, XDATA, add(CFA_XSP16, literal(-17)))
          CFI (cfiCond6) V6 load(1, XDATA, add(CFA_XSP16, literal(-16)))
          CFI (cfiCond6) V7 load(1, XDATA, add(CFA_XSP16, literal(-15)))
          CFI (cfiCond6) V8 load(1, XDATA, add(CFA_XSP16, literal(-14)))
          CFI (cfiCond6) V9 load(1, XDATA, add(CFA_XSP16, literal(-13)))
          CFI (cfiCond6) V10 load(1, XDATA, add(CFA_XSP16, literal(-12)))
          CFI (cfiCond6) V11 load(1, XDATA, add(CFA_XSP16, literal(-11)))
          CFI (cfiCond6) V12 load(1, XDATA, add(CFA_XSP16, literal(-10)))
          CFI (cfiCond6) V13 load(1, XDATA, add(CFA_XSP16, literal(-9)))
          CFI (cfiCond6) V14 load(1, XDATA, add(CFA_XSP16, literal(-8)))
          CFI (cfiCond6) V15 load(1, XDATA, add(CFA_XSP16, literal(-7)))
          CFI (cfiCond6) R7 load(1, XDATA, add(CFA_XSP16, literal(-6)))
          CFI (cfiCond6) ?RET_LOW load(1, XDATA, add(CFA_XSP16, literal(-5)))
          CFI (cfiCond6) ?RET_HIGH load(1, XDATA, add(CFA_XSP16, literal(-4)))
          CFI (cfiCond6) ?BRET_EXT load(1, XDATA, add(CFA_XSP16, literal(-3)))
          CFI (cfiCond6) DPL0 load(1, XDATA, add(CFA_XSP16, literal(-2)))
          CFI (cfiCond6) DPH0 load(1, XDATA, add(CFA_XSP16, literal(-1)))
          CFI (cfiCond6) CFA_SP SP+-2
          CFI (cfiCond6) CFA_XSP16 add(XSP16, 52)
          CFI Block cfiCond7 Using cfiCommon0
          CFI (cfiCond7) Function MT_ZdoCommandProcessing
          CFI (cfiCond7) Conditional ??CrossCallReturnLabel_53
          CFI (cfiCond7) R6 load(1, XDATA, add(CFA_XSP16, literal(-24)))
          CFI (cfiCond7) VB load(1, XDATA, add(CFA_XSP16, literal(-23)))
          CFI (cfiCond7) V0 load(1, XDATA, add(CFA_XSP16, literal(-22)))
          CFI (cfiCond7) V1 load(1, XDATA, add(CFA_XSP16, literal(-21)))
          CFI (cfiCond7) V2 load(1, XDATA, add(CFA_XSP16, literal(-20)))
          CFI (cfiCond7) V3 load(1, XDATA, add(CFA_XSP16, literal(-19)))
          CFI (cfiCond7) V4 load(1, XDATA, add(CFA_XSP16, literal(-18)))
          CFI (cfiCond7) V5 load(1, XDATA, add(CFA_XSP16, literal(-17)))
          CFI (cfiCond7) V6 load(1, XDATA, add(CFA_XSP16, literal(-16)))
          CFI (cfiCond7) V7 load(1, XDATA, add(CFA_XSP16, literal(-15)))
          CFI (cfiCond7) V8 load(1, XDATA, add(CFA_XSP16, literal(-14)))
          CFI (cfiCond7) V9 load(1, XDATA, add(CFA_XSP16, literal(-13)))
          CFI (cfiCond7) V10 load(1, XDATA, add(CFA_XSP16, literal(-12)))
          CFI (cfiCond7) V11 load(1, XDATA, add(CFA_XSP16, literal(-11)))
          CFI (cfiCond7) V12 load(1, XDATA, add(CFA_XSP16, literal(-10)))
          CFI (cfiCond7) V13 load(1, XDATA, add(CFA_XSP16, literal(-9)))
          CFI (cfiCond7) V14 load(1, XDATA, add(CFA_XSP16, literal(-8)))
          CFI (cfiCond7) V15 load(1, XDATA, add(CFA_XSP16, literal(-7)))
          CFI (cfiCond7) R7 load(1, XDATA, add(CFA_XSP16, literal(-6)))
          CFI (cfiCond7) ?RET_LOW load(1, XDATA, add(CFA_XSP16, literal(-5)))
          CFI (cfiCond7) ?RET_HIGH load(1, XDATA, add(CFA_XSP16, literal(-4)))
          CFI (cfiCond7) ?BRET_EXT load(1, XDATA, add(CFA_XSP16, literal(-3)))
          CFI (cfiCond7) DPL0 load(1, XDATA, add(CFA_XSP16, literal(-2)))
          CFI (cfiCond7) DPH0 load(1, XDATA, add(CFA_XSP16, literal(-1)))
          CFI (cfiCond7) CFA_SP SP+-2
          CFI (cfiCond7) CFA_XSP16 add(XSP16, 52)
          CFI Block cfiPicker8 Using cfiCommon1
          CFI (cfiPicker8) NoFunction
          CFI (cfiPicker8) Picker
        MOV     A,R1
        MOV     DPL,?XSP + 0
        MOV     DPH,?XSP + 1
        MOVX    @DPTR,A
        MOV     A,#-0x20
        ANL     A,R6
        XRL     A,#0x20
        RET
          CFI EndBlock cfiCond5
          CFI EndBlock cfiCond6
          CFI EndBlock cfiCond7
          CFI EndBlock cfiPicker8

        RSEG BANKED_CODE:CODE:NOROOT(0)
?Subroutine20:
          CFI Block cfiCond9 Using cfiCommon0
          CFI Function MT_ZdoCommandProcessing
          CFI Conditional ??CrossCallReturnLabel_41
          CFI R6 load(1, XDATA, add(CFA_XSP16, literal(-24)))
          CFI VB load(1, XDATA, add(CFA_XSP16, literal(-23)))
          CFI V0 load(1, XDATA, add(CFA_XSP16, literal(-22)))
          CFI V1 load(1, XDATA, add(CFA_XSP16, literal(-21)))
          CFI V2 load(1, XDATA, add(CFA_XSP16, literal(-20)))
          CFI V3 load(1, XDATA, add(CFA_XSP16, literal(-19)))
          CFI V4 load(1, XDATA, add(CFA_XSP16, literal(-18)))
          CFI V5 load(1, XDATA, add(CFA_XSP16, literal(-17)))
          CFI V6 load(1, XDATA, add(CFA_XSP16, literal(-16)))
          CFI V7 load(1, XDATA, add(CFA_XSP16, literal(-15)))
          CFI V8 load(1, XDATA, add(CFA_XSP16, literal(-14)))
          CFI V9 load(1, XDATA, add(CFA_XSP16, literal(-13)))
          CFI V10 load(1, XDATA, add(CFA_XSP16, literal(-12)))
          CFI V11 load(1, XDATA, add(CFA_XSP16, literal(-11)))
          CFI V12 load(1, XDATA, add(CFA_XSP16, literal(-10)))
          CFI V13 load(1, XDATA, add(CFA_XSP16, literal(-9)))
          CFI V14 load(1, XDATA, add(CFA_XSP16, literal(-8)))
          CFI V15 load(1, XDATA, add(CFA_XSP16, literal(-7)))
          CFI R7 load(1, XDATA, add(CFA_XSP16, literal(-6)))
          CFI ?RET_LOW load(1, XDATA, add(CFA_XSP16, literal(-5)))
          CFI ?RET_HIGH load(1, XDATA, add(CFA_XSP16, literal(-4)))
          CFI ?BRET_EXT load(1, XDATA, add(CFA_XSP16, literal(-3)))
          CFI DPL0 load(1, XDATA, add(CFA_XSP16, literal(-2)))
          CFI DPH0 load(1, XDATA, add(CFA_XSP16, literal(-1)))
          CFI CFA_SP SP+-2
          CFI CFA_XSP16 add(XSP16, 52)
          CFI Block cfiCond10 Using cfiCommon0
          CFI (cfiCond10) Function MT_ZdoCommandProcessing
          CFI (cfiCond10) Conditional ??CrossCallReturnLabel_42
          CFI (cfiCond10) R6 load(1, XDATA, add(CFA_XSP16, literal(-24)))
          CFI (cfiCond10) VB load(1, XDATA, add(CFA_XSP16, literal(-23)))
          CFI (cfiCond10) V0 load(1, XDATA, add(CFA_XSP16, literal(-22)))
          CFI (cfiCond10) V1 load(1, XDATA, add(CFA_XSP16, literal(-21)))
          CFI (cfiCond10) V2 load(1, XDATA, add(CFA_XSP16, literal(-20)))
          CFI (cfiCond10) V3 load(1, XDATA, add(CFA_XSP16, literal(-19)))
          CFI (cfiCond10) V4 load(1, XDATA, add(CFA_XSP16, literal(-18)))
          CFI (cfiCond10) V5 load(1, XDATA, add(CFA_XSP16, literal(-17)))
          CFI (cfiCond10) V6 load(1, XDATA, add(CFA_XSP16, literal(-16)))
          CFI (cfiCond10) V7 load(1, XDATA, add(CFA_XSP16, literal(-15)))
          CFI (cfiCond10) V8 load(1, XDATA, add(CFA_XSP16, literal(-14)))
          CFI (cfiCond10) V9 load(1, XDATA, add(CFA_XSP16, literal(-13)))
          CFI (cfiCond10) V10 load(1, XDATA, add(CFA_XSP16, literal(-12)))
          CFI (cfiCond10) V11 load(1, XDATA, add(CFA_XSP16, literal(-11)))
          CFI (cfiCond10) V12 load(1, XDATA, add(CFA_XSP16, literal(-10)))
          CFI (cfiCond10) V13 load(1, XDATA, add(CFA_XSP16, literal(-9)))
          CFI (cfiCond10) V14 load(1, XDATA, add(CFA_XSP16, literal(-8)))
          CFI (cfiCond10) V15 load(1, XDATA, add(CFA_XSP16, literal(-7)))
          CFI (cfiCond10) R7 load(1, XDATA, add(CFA_XSP16, literal(-6)))
          CFI (cfiCond10) ?RET_LOW load(1, XDATA, add(CFA_XSP16, literal(-5)))
          CFI (cfiCond10) ?RET_HIGH load(1, XDATA, add(CFA_XSP16, literal(-4)))
          CFI (cfiCond10) ?BRET_EXT load(1, XDATA, add(CFA_XSP16, literal(-3)))
          CFI (cfiCond10) DPL0 load(1, XDATA, add(CFA_XSP16, literal(-2)))
          CFI (cfiCond10) DPH0 load(1, XDATA, add(CFA_XSP16, literal(-1)))
          CFI (cfiCond10) CFA_SP SP+-2
          CFI (cfiCond10) CFA_XSP16 add(XSP16, 52)
          CFI Block cfiCond11 Using cfiCommon0
          CFI (cfiCond11) Function MT_ZdoCommandProcessing
          CFI (cfiCond11) Conditional ??CrossCallReturnLabel_43
          CFI (cfiCond11) R6 load(1, XDATA, add(CFA_XSP16, literal(-24)))
          CFI (cfiCond11) VB load(1, XDATA, add(CFA_XSP16, literal(-23)))
          CFI (cfiCond11) V0 load(1, XDATA, add(CFA_XSP16, literal(-22)))
          CFI (cfiCond11) V1 load(1, XDATA, add(CFA_XSP16, literal(-21)))
          CFI (cfiCond11) V2 load(1, XDATA, add(CFA_XSP16, literal(-20)))
          CFI (cfiCond11) V3 load(1, XDATA, add(CFA_XSP16, literal(-19)))
          CFI (cfiCond11) V4 load(1, XDATA, add(CFA_XSP16, literal(-18)))
          CFI (cfiCond11) V5 load(1, XDATA, add(CFA_XSP16, literal(-17)))
          CFI (cfiCond11) V6 load(1, XDATA, add(CFA_XSP16, literal(-16)))
          CFI (cfiCond11) V7 load(1, XDATA, add(CFA_XSP16, literal(-15)))
          CFI (cfiCond11) V8 load(1, XDATA, add(CFA_XSP16, literal(-14)))
          CFI (cfiCond11) V9 load(1, XDATA, add(CFA_XSP16, literal(-13)))
          CFI (cfiCond11) V10 load(1, XDATA, add(CFA_XSP16, literal(-12)))
          CFI (cfiCond11) V11 load(1, XDATA, add(CFA_XSP16, literal(-11)))
          CFI (cfiCond11) V12 load(1, XDATA, add(CFA_XSP16, literal(-10)))
          CFI (cfiCond11) V13 load(1, XDATA, add(CFA_XSP16, literal(-9)))
          CFI (cfiCond11) V14 load(1, XDATA, add(CFA_XSP16, literal(-8)))
          CFI (cfiCond11) V15 load(1, XDATA, add(CFA_XSP16, literal(-7)))
          CFI (cfiCond11) R7 load(1, XDATA, add(CFA_XSP16, literal(-6)))
          CFI (cfiCond11) ?RET_LOW load(1, XDATA, add(CFA_XSP16, literal(-5)))
          CFI (cfiCond11) ?RET_HIGH load(1, XDATA, add(CFA_XSP16, literal(-4)))
          CFI (cfiCond11) ?BRET_EXT load(1, XDATA, add(CFA_XSP16, literal(-3)))
          CFI (cfiCond11) DPL0 load(1, XDATA, add(CFA_XSP16, literal(-2)))
          CFI (cfiCond11) DPH0 load(1, XDATA, add(CFA_XSP16, literal(-1)))
          CFI (cfiCond11) CFA_SP SP+-2
          CFI (cfiCond11) CFA_XSP16 add(XSP16, 52)
          CFI Block cfiCond12 Using cfiCommon0
          CFI (cfiCond12) Function MT_ZdoCommandProcessing
          CFI (cfiCond12) Conditional ??CrossCallReturnLabel_44
          CFI (cfiCond12) R6 load(1, XDATA, add(CFA_XSP16, literal(-24)))
          CFI (cfiCond12) VB load(1, XDATA, add(CFA_XSP16, literal(-23)))
          CFI (cfiCond12) V0 load(1, XDATA, add(CFA_XSP16, literal(-22)))
          CFI (cfiCond12) V1 load(1, XDATA, add(CFA_XSP16, literal(-21)))
          CFI (cfiCond12) V2 load(1, XDATA, add(CFA_XSP16, literal(-20)))
          CFI (cfiCond12) V3 load(1, XDATA, add(CFA_XSP16, literal(-19)))
          CFI (cfiCond12) V4 load(1, XDATA, add(CFA_XSP16, literal(-18)))
          CFI (cfiCond12) V5 load(1, XDATA, add(CFA_XSP16, literal(-17)))
          CFI (cfiCond12) V6 load(1, XDATA, add(CFA_XSP16, literal(-16)))
          CFI (cfiCond12) V7 load(1, XDATA, add(CFA_XSP16, literal(-15)))
          CFI (cfiCond12) V8 load(1, XDATA, add(CFA_XSP16, literal(-14)))
          CFI (cfiCond12) V9 load(1, XDATA, add(CFA_XSP16, literal(-13)))
          CFI (cfiCond12) V10 load(1, XDATA, add(CFA_XSP16, literal(-12)))
          CFI (cfiCond12) V11 load(1, XDATA, add(CFA_XSP16, literal(-11)))
          CFI (cfiCond12) V12 load(1, XDATA, add(CFA_XSP16, literal(-10)))
          CFI (cfiCond12) V13 load(1, XDATA, add(CFA_XSP16, literal(-9)))
          CFI (cfiCond12) V14 load(1, XDATA, add(CFA_XSP16, literal(-8)))
          CFI (cfiCond12) V15 load(1, XDATA, add(CFA_XSP16, literal(-7)))
          CFI (cfiCond12) R7 load(1, XDATA, add(CFA_XSP16, literal(-6)))
          CFI (cfiCond12) ?RET_LOW load(1, XDATA, add(CFA_XSP16, literal(-5)))
          CFI (cfiCond12) ?RET_HIGH load(1, XDATA, add(CFA_XSP16, literal(-4)))
          CFI (cfiCond12) ?BRET_EXT load(1, XDATA, add(CFA_XSP16, literal(-3)))
          CFI (cfiCond12) DPL0 load(1, XDATA, add(CFA_XSP16, literal(-2)))
          CFI (cfiCond12) DPH0 load(1, XDATA, add(CFA_XSP16, literal(-1)))
          CFI (cfiCond12) CFA_SP SP+-2
          CFI (cfiCond12) CFA_XSP16 add(XSP16, 52)
          CFI Block cfiCond13 Using cfiCommon0
          CFI (cfiCond13) Function MT_ZdoCommandProcessing
          CFI (cfiCond13) Conditional ??CrossCallReturnLabel_45
          CFI (cfiCond13) R6 load(1, XDATA, add(CFA_XSP16, literal(-24)))
          CFI (cfiCond13) VB load(1, XDATA, add(CFA_XSP16, literal(-23)))
          CFI (cfiCond13) V0 load(1, XDATA, add(CFA_XSP16, literal(-22)))
          CFI (cfiCond13) V1 load(1, XDATA, add(CFA_XSP16, literal(-21)))
          CFI (cfiCond13) V2 load(1, XDATA, add(CFA_XSP16, literal(-20)))
          CFI (cfiCond13) V3 load(1, XDATA, add(CFA_XSP16, literal(-19)))
          CFI (cfiCond13) V4 load(1, XDATA, add(CFA_XSP16, literal(-18)))
          CFI (cfiCond13) V5 load(1, XDATA, add(CFA_XSP16, literal(-17)))
          CFI (cfiCond13) V6 load(1, XDATA, add(CFA_XSP16, literal(-16)))
          CFI (cfiCond13) V7 load(1, XDATA, add(CFA_XSP16, literal(-15)))
          CFI (cfiCond13) V8 load(1, XDATA, add(CFA_XSP16, literal(-14)))
          CFI (cfiCond13) V9 load(1, XDATA, add(CFA_XSP16, literal(-13)))
          CFI (cfiCond13) V10 load(1, XDATA, add(CFA_XSP16, literal(-12)))
          CFI (cfiCond13) V11 load(1, XDATA, add(CFA_XSP16, literal(-11)))
          CFI (cfiCond13) V12 load(1, XDATA, add(CFA_XSP16, literal(-10)))
          CFI (cfiCond13) V13 load(1, XDATA, add(CFA_XSP16, literal(-9)))
          CFI (cfiCond13) V14 load(1, XDATA, add(CFA_XSP16, literal(-8)))
          CFI (cfiCond13) V15 load(1, XDATA, add(CFA_XSP16, literal(-7)))
          CFI (cfiCond13) R7 load(1, XDATA, add(CFA_XSP16, literal(-6)))
          CFI (cfiCond13) ?RET_LOW load(1, XDATA, add(CFA_XSP16, literal(-5)))
          CFI (cfiCond13) ?RET_HIGH load(1, XDATA, add(CFA_XSP16, literal(-4)))
          CFI (cfiCond13) ?BRET_EXT load(1, XDATA, add(CFA_XSP16, literal(-3)))
          CFI (cfiCond13) DPL0 load(1, XDATA, add(CFA_XSP16, literal(-2)))
          CFI (cfiCond13) DPH0 load(1, XDATA, add(CFA_XSP16, literal(-1)))
          CFI (cfiCond13) CFA_SP SP+-2
          CFI (cfiCond13) CFA_XSP16 add(XSP16, 52)
          CFI Block cfiCond14 Using cfiCommon0
          CFI (cfiCond14) Function MT_ZdoCommandProcessing
          CFI (cfiCond14) Conditional ??CrossCallReturnLabel_46
          CFI (cfiCond14) R6 load(1, XDATA, add(CFA_XSP16, literal(-24)))
          CFI (cfiCond14) VB load(1, XDATA, add(CFA_XSP16, literal(-23)))
          CFI (cfiCond14) V0 load(1, XDATA, add(CFA_XSP16, literal(-22)))
          CFI (cfiCond14) V1 load(1, XDATA, add(CFA_XSP16, literal(-21)))
          CFI (cfiCond14) V2 load(1, XDATA, add(CFA_XSP16, literal(-20)))
          CFI (cfiCond14) V3 load(1, XDATA, add(CFA_XSP16, literal(-19)))
          CFI (cfiCond14) V4 load(1, XDATA, add(CFA_XSP16, literal(-18)))
          CFI (cfiCond14) V5 load(1, XDATA, add(CFA_XSP16, literal(-17)))
          CFI (cfiCond14) V6 load(1, XDATA, add(CFA_XSP16, literal(-16)))
          CFI (cfiCond14) V7 load(1, XDATA, add(CFA_XSP16, literal(-15)))
          CFI (cfiCond14) V8 load(1, XDATA, add(CFA_XSP16, literal(-14)))
          CFI (cfiCond14) V9 load(1, XDATA, add(CFA_XSP16, literal(-13)))
          CFI (cfiCond14) V10 load(1, XDATA, add(CFA_XSP16, literal(-12)))
          CFI (cfiCond14) V11 load(1, XDATA, add(CFA_XSP16, literal(-11)))
          CFI (cfiCond14) V12 load(1, XDATA, add(CFA_XSP16, literal(-10)))
          CFI (cfiCond14) V13 load(1, XDATA, add(CFA_XSP16, literal(-9)))
          CFI (cfiCond14) V14 load(1, XDATA, add(CFA_XSP16, literal(-8)))
          CFI (cfiCond14) V15 load(1, XDATA, add(CFA_XSP16, literal(-7)))
          CFI (cfiCond14) R7 load(1, XDATA, add(CFA_XSP16, literal(-6)))
          CFI (cfiCond14) ?RET_LOW load(1, XDATA, add(CFA_XSP16, literal(-5)))
          CFI (cfiCond14) ?RET_HIGH load(1, XDATA, add(CFA_XSP16, literal(-4)))
          CFI (cfiCond14) ?BRET_EXT load(1, XDATA, add(CFA_XSP16, literal(-3)))
          CFI (cfiCond14) DPL0 load(1, XDATA, add(CFA_XSP16, literal(-2)))
          CFI (cfiCond14) DPH0 load(1, XDATA, add(CFA_XSP16, literal(-1)))
          CFI (cfiCond14) CFA_SP SP+-2
          CFI (cfiCond14) CFA_XSP16 add(XSP16, 52)
          CFI Block cfiPicker15 Using cfiCommon1
          CFI (cfiPicker15) NoFunction
          CFI (cfiPicker15) Picker
        MOV     A,R7
        MOVX    @DPTR,A
        MOV     A,R0
        MOV     R6,A
        MOV     A,R1
        MOV     R7,A
        MOV     A,#0xa
        RET
          CFI EndBlock cfiCond9
          CFI EndBlock cfiCond10
          CFI EndBlock cfiCond11
          CFI EndBlock cfiCond12
          CFI EndBlock cfiCond13
          CFI EndBlock cfiCond14
          CFI EndBlock cfiPicker15

        RSEG BANKED_CODE:CODE:NOROOT(0)
?Subroutine5:
          CFI Block cfiCond16 Using cfiCommon0
          CFI Function MT_ZdoCommandProcessing
          CFI Conditional ??CrossCallReturnLabel_4
          CFI R6 load(1, XDATA, add(CFA_XSP16, literal(-24)))
          CFI VB load(1, XDATA, add(CFA_XSP16, literal(-23)))
          CFI V0 load(1, XDATA, add(CFA_XSP16, literal(-22)))
          CFI V1 load(1, XDATA, add(CFA_XSP16, literal(-21)))
          CFI V2 load(1, XDATA, add(CFA_XSP16, literal(-20)))
          CFI V3 load(1, XDATA, add(CFA_XSP16, literal(-19)))
          CFI V4 load(1, XDATA, add(CFA_XSP16, literal(-18)))
          CFI V5 load(1, XDATA, add(CFA_XSP16, literal(-17)))
          CFI V6 load(1, XDATA, add(CFA_XSP16, literal(-16)))
          CFI V7 load(1, XDATA, add(CFA_XSP16, literal(-15)))
          CFI V8 load(1, XDATA, add(CFA_XSP16, literal(-14)))
          CFI V9 load(1, XDATA, add(CFA_XSP16, literal(-13)))
          CFI V10 load(1, XDATA, add(CFA_XSP16, literal(-12)))
          CFI V11 load(1, XDATA, add(CFA_XSP16, literal(-11)))
          CFI V12 load(1, XDATA, add(CFA_XSP16, literal(-10)))
          CFI V13 load(1, XDATA, add(CFA_XSP16, literal(-9)))
          CFI V14 load(1, XDATA, add(CFA_XSP16, literal(-8)))
          CFI V15 load(1, XDATA, add(CFA_XSP16, literal(-7)))
          CFI R7 load(1, XDATA, add(CFA_XSP16, literal(-6)))
          CFI ?RET_LOW load(1, XDATA, add(CFA_XSP16, literal(-5)))
          CFI ?RET_HIGH load(1, XDATA, add(CFA_XSP16, literal(-4)))
          CFI ?BRET_EXT load(1, XDATA, add(CFA_XSP16, literal(-3)))
          CFI DPL0 load(1, XDATA, add(CFA_XSP16, literal(-2)))
          CFI DPH0 load(1, XDATA, add(CFA_XSP16, literal(-1)))
          CFI CFA_SP SP+-2
          CFI CFA_XSP16 add(XSP16, 52)
          CFI Block cfiCond17 Using cfiCommon0
          CFI (cfiCond17) Function MT_ZdoCommandProcessing
          CFI (cfiCond17) Conditional ??CrossCallReturnLabel_5
          CFI (cfiCond17) R6 load(1, XDATA, add(CFA_XSP16, literal(-24)))
          CFI (cfiCond17) VB load(1, XDATA, add(CFA_XSP16, literal(-23)))
          CFI (cfiCond17) V0 load(1, XDATA, add(CFA_XSP16, literal(-22)))
          CFI (cfiCond17) V1 load(1, XDATA, add(CFA_XSP16, literal(-21)))
          CFI (cfiCond17) V2 load(1, XDATA, add(CFA_XSP16, literal(-20)))
          CFI (cfiCond17) V3 load(1, XDATA, add(CFA_XSP16, literal(-19)))
          CFI (cfiCond17) V4 load(1, XDATA, add(CFA_XSP16, literal(-18)))
          CFI (cfiCond17) V5 load(1, XDATA, add(CFA_XSP16, literal(-17)))
          CFI (cfiCond17) V6 load(1, XDATA, add(CFA_XSP16, literal(-16)))
          CFI (cfiCond17) V7 load(1, XDATA, add(CFA_XSP16, literal(-15)))
          CFI (cfiCond17) V8 load(1, XDATA, add(CFA_XSP16, literal(-14)))
          CFI (cfiCond17) V9 load(1, XDATA, add(CFA_XSP16, literal(-13)))
          CFI (cfiCond17) V10 load(1, XDATA, add(CFA_XSP16, literal(-12)))
          CFI (cfiCond17) V11 load(1, XDATA, add(CFA_XSP16, literal(-11)))
          CFI (cfiCond17) V12 load(1, XDATA, add(CFA_XSP16, literal(-10)))
          CFI (cfiCond17) V13 load(1, XDATA, add(CFA_XSP16, literal(-9)))
          CFI (cfiCond17) V14 load(1, XDATA, add(CFA_XSP16, literal(-8)))
          CFI (cfiCond17) V15 load(1, XDATA, add(CFA_XSP16, literal(-7)))
          CFI (cfiCond17) R7 load(1, XDATA, add(CFA_XSP16, literal(-6)))
          CFI (cfiCond17) ?RET_LOW load(1, XDATA, add(CFA_XSP16, literal(-5)))
          CFI (cfiCond17) ?RET_HIGH load(1, XDATA, add(CFA_XSP16, literal(-4)))
          CFI (cfiCond17) ?BRET_EXT load(1, XDATA, add(CFA_XSP16, literal(-3)))
          CFI (cfiCond17) DPL0 load(1, XDATA, add(CFA_XSP16, literal(-2)))
          CFI (cfiCond17) DPH0 load(1, XDATA, add(CFA_XSP16, literal(-1)))
          CFI (cfiCond17) CFA_SP SP+-2
          CFI (cfiCond17) CFA_XSP16 add(XSP16, 52)
          CFI Block cfiCond18 Using cfiCommon0
          CFI (cfiCond18) Function MT_ZdoCommandProcessing
          CFI (cfiCond18) Conditional ??CrossCallReturnLabel_6
          CFI (cfiCond18) R6 load(1, XDATA, add(CFA_XSP16, literal(-24)))
          CFI (cfiCond18) VB load(1, XDATA, add(CFA_XSP16, literal(-23)))
          CFI (cfiCond18) V0 load(1, XDATA, add(CFA_XSP16, literal(-22)))
          CFI (cfiCond18) V1 load(1, XDATA, add(CFA_XSP16, literal(-21)))
          CFI (cfiCond18) V2 load(1, XDATA, add(CFA_XSP16, literal(-20)))
          CFI (cfiCond18) V3 load(1, XDATA, add(CFA_XSP16, literal(-19)))
          CFI (cfiCond18) V4 load(1, XDATA, add(CFA_XSP16, literal(-18)))
          CFI (cfiCond18) V5 load(1, XDATA, add(CFA_XSP16, literal(-17)))
          CFI (cfiCond18) V6 load(1, XDATA, add(CFA_XSP16, literal(-16)))
          CFI (cfiCond18) V7 load(1, XDATA, add(CFA_XSP16, literal(-15)))
          CFI (cfiCond18) V8 load(1, XDATA, add(CFA_XSP16, literal(-14)))
          CFI (cfiCond18) V9 load(1, XDATA, add(CFA_XSP16, literal(-13)))
          CFI (cfiCond18) V10 load(1, XDATA, add(CFA_XSP16, literal(-12)))
          CFI (cfiCond18) V11 load(1, XDATA, add(CFA_XSP16, literal(-11)))
          CFI (cfiCond18) V12 load(1, XDATA, add(CFA_XSP16, literal(-10)))
          CFI (cfiCond18) V13 load(1, XDATA, add(CFA_XSP16, literal(-9)))
          CFI (cfiCond18) V14 load(1, XDATA, add(CFA_XSP16, literal(-8)))
          CFI (cfiCond18) V15 load(1, XDATA, add(CFA_XSP16, literal(-7)))
          CFI (cfiCond18) R7 load(1, XDATA, add(CFA_XSP16, literal(-6)))
          CFI (cfiCond18) ?RET_LOW load(1, XDATA, add(CFA_XSP16, literal(-5)))
          CFI (cfiCond18) ?RET_HIGH load(1, XDATA, add(CFA_XSP16, literal(-4)))
          CFI (cfiCond18) ?BRET_EXT load(1, XDATA, add(CFA_XSP16, literal(-3)))
          CFI (cfiCond18) DPL0 load(1, XDATA, add(CFA_XSP16, literal(-2)))
          CFI (cfiCond18) DPH0 load(1, XDATA, add(CFA_XSP16, literal(-1)))
          CFI (cfiCond18) CFA_SP SP+-2
          CFI (cfiCond18) CFA_XSP16 add(XSP16, 52)
          CFI Block cfiCond19 Using cfiCommon0
          CFI (cfiCond19) Function MT_ZdoCommandProcessing
          CFI (cfiCond19) Conditional ??CrossCallReturnLabel_7
          CFI (cfiCond19) R6 load(1, XDATA, add(CFA_XSP16, literal(-24)))
          CFI (cfiCond19) VB load(1, XDATA, add(CFA_XSP16, literal(-23)))
          CFI (cfiCond19) V0 load(1, XDATA, add(CFA_XSP16, literal(-22)))
          CFI (cfiCond19) V1 load(1, XDATA, add(CFA_XSP16, literal(-21)))
          CFI (cfiCond19) V2 load(1, XDATA, add(CFA_XSP16, literal(-20)))
          CFI (cfiCond19) V3 load(1, XDATA, add(CFA_XSP16, literal(-19)))
          CFI (cfiCond19) V4 load(1, XDATA, add(CFA_XSP16, literal(-18)))
          CFI (cfiCond19) V5 load(1, XDATA, add(CFA_XSP16, literal(-17)))
          CFI (cfiCond19) V6 load(1, XDATA, add(CFA_XSP16, literal(-16)))
          CFI (cfiCond19) V7 load(1, XDATA, add(CFA_XSP16, literal(-15)))
          CFI (cfiCond19) V8 load(1, XDATA, add(CFA_XSP16, literal(-14)))
          CFI (cfiCond19) V9 load(1, XDATA, add(CFA_XSP16, literal(-13)))
          CFI (cfiCond19) V10 load(1, XDATA, add(CFA_XSP16, literal(-12)))
          CFI (cfiCond19) V11 load(1, XDATA, add(CFA_XSP16, literal(-11)))
          CFI (cfiCond19) V12 load(1, XDATA, add(CFA_XSP16, literal(-10)))
          CFI (cfiCond19) V13 load(1, XDATA, add(CFA_XSP16, literal(-9)))
          CFI (cfiCond19) V14 load(1, XDATA, add(CFA_XSP16, literal(-8)))
          CFI (cfiCond19) V15 load(1, XDATA, add(CFA_XSP16, literal(-7)))
          CFI (cfiCond19) R7 load(1, XDATA, add(CFA_XSP16, literal(-6)))
          CFI (cfiCond19) ?RET_LOW load(1, XDATA, add(CFA_XSP16, literal(-5)))
          CFI (cfiCond19) ?RET_HIGH load(1, XDATA, add(CFA_XSP16, literal(-4)))
          CFI (cfiCond19) ?BRET_EXT load(1, XDATA, add(CFA_XSP16, literal(-3)))
          CFI (cfiCond19) DPL0 load(1, XDATA, add(CFA_XSP16, literal(-2)))
          CFI (cfiCond19) DPH0 load(1, XDATA, add(CFA_XSP16, literal(-1)))
          CFI (cfiCond19) CFA_SP SP+-2
          CFI (cfiCond19) CFA_XSP16 add(XSP16, 52)
          CFI Block cfiCond20 Using cfiCommon0
          CFI (cfiCond20) Function MT_ZdoCommandProcessing
          CFI (cfiCond20) Conditional ??CrossCallReturnLabel_8
          CFI (cfiCond20) R6 load(1, XDATA, add(CFA_XSP16, literal(-24)))
          CFI (cfiCond20) VB load(1, XDATA, add(CFA_XSP16, literal(-23)))
          CFI (cfiCond20) V0 load(1, XDATA, add(CFA_XSP16, literal(-22)))
          CFI (cfiCond20) V1 load(1, XDATA, add(CFA_XSP16, literal(-21)))
          CFI (cfiCond20) V2 load(1, XDATA, add(CFA_XSP16, literal(-20)))
          CFI (cfiCond20) V3 load(1, XDATA, add(CFA_XSP16, literal(-19)))
          CFI (cfiCond20) V4 load(1, XDATA, add(CFA_XSP16, literal(-18)))
          CFI (cfiCond20) V5 load(1, XDATA, add(CFA_XSP16, literal(-17)))
          CFI (cfiCond20) V6 load(1, XDATA, add(CFA_XSP16, literal(-16)))
          CFI (cfiCond20) V7 load(1, XDATA, add(CFA_XSP16, literal(-15)))
          CFI (cfiCond20) V8 load(1, XDATA, add(CFA_XSP16, literal(-14)))
          CFI (cfiCond20) V9 load(1, XDATA, add(CFA_XSP16, literal(-13)))
          CFI (cfiCond20) V10 load(1, XDATA, add(CFA_XSP16, literal(-12)))
          CFI (cfiCond20) V11 load(1, XDATA, add(CFA_XSP16, literal(-11)))
          CFI (cfiCond20) V12 load(1, XDATA, add(CFA_XSP16, literal(-10)))
          CFI (cfiCond20) V13 load(1, XDATA, add(CFA_XSP16, literal(-9)))
          CFI (cfiCond20) V14 load(1, XDATA, add(CFA_XSP16, literal(-8)))
          CFI (cfiCond20) V15 load(1, XDATA, add(CFA_XSP16, literal(-7)))
          CFI (cfiCond20) R7 load(1, XDATA, add(CFA_XSP16, literal(-6)))
          CFI (cfiCond20) ?RET_LOW load(1, XDATA, add(CFA_XSP16, literal(-5)))
          CFI (cfiCond20) ?RET_HIGH load(1, XDATA, add(CFA_XSP16, literal(-4)))
          CFI (cfiCond20) ?BRET_EXT load(1, XDATA, add(CFA_XSP16, literal(-3)))
          CFI (cfiCond20) DPL0 load(1, XDATA, add(CFA_XSP16, literal(-2)))
          CFI (cfiCond20) DPH0 load(1, XDATA, add(CFA_XSP16, literal(-1)))
          CFI (cfiCond20) CFA_SP SP+-2
          CFI (cfiCond20) CFA_XSP16 add(XSP16, 52)
          CFI Block cfiPicker21 Using cfiCommon1
          CFI (cfiPicker21) NoFunction
          CFI (cfiPicker21) Picker
        LCALL   ?Subroutine36 & 0xFFFF
??CrossCallReturnLabel_88:
        MOV     R2,A
        CLR     A
        ADDC    A,R7
        MOV     R3,A
        RET
          CFI EndBlock cfiCond16
          CFI EndBlock cfiCond17
          CFI EndBlock cfiCond18
          CFI EndBlock cfiCond19
          CFI EndBlock cfiCond20
          CFI EndBlock cfiPicker21
//  506 
//  507 /***************************************************************************************************
//  508  * @fn      MT_ZdoNwkAddrReq
//  509  *
//  510  * @brief   Handle a nwk address request.
//  511  *
//  512  * @param   pData  - MT message data
//  513  *
//  514  * @return  void
//  515  ***************************************************************************************************/
//  516 static void MT_ZdoNWKAddressRequest(uint8 *pBuf)
//  517 {
//  518   uint8 cmdId;
//  519   uint8 retValue;
//  520   uint8 reqType;
//  521   uint8 startIndex;
//  522   uint8 *pExtAddr;
//  523 
//  524   /* parse header */
//  525   cmdId = pBuf[MT_RPC_POS_CMD1];
//  526   pBuf += MT_RPC_FRAME_HDR_SZ;
//  527 
//  528   /* parse parameters */
//  529   pExtAddr = pBuf;
//  530   pBuf += Z_EXTADDR_LEN;
//  531 
//  532   /* Request type */
//  533   reqType = *pBuf++;
//  534 
//  535   /* Start index */
//  536   startIndex = *pBuf;
//  537 
//  538   retValue = (uint8)ZDP_NwkAddrReq(pExtAddr, reqType, startIndex, 0);
//  539 
//  540   /* Build and send back the response */
//  541   MT_BuildAndSendZToolResponse(((uint8)MT_RPC_CMD_SRSP | (uint8)MT_RPC_SYS_ZDO), cmdId, 1, &retValue);
//  542 
//  543 #if defined ( MT_ZDO_EXTENSIONS )
//  544   {
//  545     // Force a response message if the ext address matches a child of this device
//  546     associated_devices_t *pAssoc;
//  547     uint8 buf[21];
//  548     uint8 *pBuf = buf;
//  549 
//  550     if ( (ZSTACK_ROUTER_BUILD)
//  551       && (((pAssoc = AssocGetWithExt( pExtAddr )) != NULL)
//  552              && (pAssoc->nodeRelation == CHILD_RFD)) )
//  553     {
//  554       uint16 nwkAddr = NLME_GetShortAddr();
//  555 
//  556       *pBuf++ = LO_UINT16(nwkAddr);
//  557       *pBuf++ = HI_UINT16(nwkAddr);
//  558       *pBuf++ = 0;
//  559       *pBuf++ = LO_UINT16(NWK_addr_rsp);
//  560       *pBuf++ = HI_UINT16(NWK_addr_rsp);
//  561       *pBuf++ = 0;
//  562       *pBuf++ = 0;
//  563       *pBuf++ = LO_UINT16(nwkAddr);
//  564       *pBuf++ = HI_UINT16(nwkAddr);
//  565 
//  566       *pBuf++ = ZSuccess;
//  567 
//  568       pBuf = osal_cpyExtAddr( pBuf, pExtAddr );
//  569 
//  570       *pBuf++ = LO_UINT16( pAssoc->shortAddr );
//  571       *pBuf++ = HI_UINT16( pAssoc->shortAddr );
//  572       *pBuf = 0;
//  573 
//  574       MT_BuildAndSendZToolResponse( ((uint8)MT_RPC_CMD_AREQ | (uint8)MT_RPC_SYS_ZDO),
//  575                                   MT_ZDO_MSG_CB_INCOMING, 21, buf );
//  576     }
//  577   }
//  578 #endif
//  579 }
//  580 
//  581 /***************************************************************************************************
//  582  * @fn      MT_ZdoIEEEAddrRequest
//  583  *
//  584  * @brief   Handle a IEEE address request.
//  585  *
//  586  * @param   pData  - MT message data
//  587  *
//  588  * @return  void
//  589  ***************************************************************************************************/
//  590 static void MT_ZdoIEEEAddrRequest (uint8 *pBuf)
//  591 {
//  592   uint8 cmdId;
//  593   uint8 retValue;
//  594   uint16 shortAddr;
//  595   uint8 reqType;
//  596   uint8 startIndex;
//  597 
//  598   /* parse header */
//  599   cmdId = pBuf[MT_RPC_POS_CMD1];
//  600   pBuf += MT_RPC_FRAME_HDR_SZ;
//  601 
//  602   /* Dev address */
//  603   shortAddr = osal_build_uint16( pBuf );
//  604   pBuf += 2;
//  605 
//  606   /* request type */
//  607   reqType = *pBuf++;
//  608 
//  609   /* start index */
//  610   startIndex = *pBuf;
//  611 
//  612   retValue = (uint8)ZDP_IEEEAddrReq(shortAddr, reqType, startIndex, 0);
//  613 
//  614   MT_BuildAndSendZToolResponse(((uint8)MT_RPC_CMD_SRSP | (uint8)MT_RPC_SYS_ZDO), cmdId, 1, &retValue);
//  615 }
//  616 
//  617 /***************************************************************************************************
//  618  * @fn      MT_ZdoNodeDescRequest
//  619  *
//  620  * @brief   Handle a Node Descriptor request.
//  621  *
//  622  * @param   pData  - MT message data
//  623  *
//  624  * @return  void
//  625  ***************************************************************************************************/
//  626 static void MT_ZdoNodeDescRequest (uint8 *pBuf)
//  627 {
//  628   uint8 cmdId;
//  629   uint8 retValue;
//  630   zAddrType_t destAddr;
//  631   uint16 shortAddr;
//  632 
//  633   /* parse header */
//  634   cmdId = pBuf[MT_RPC_POS_CMD1];
//  635   pBuf += MT_RPC_FRAME_HDR_SZ;
//  636 
//  637   /* Destination address */
//  638   destAddr.addrMode = Addr16Bit;
//  639   destAddr.addr.shortAddr = osal_build_uint16( pBuf );
//  640   pBuf += 2;
//  641 
//  642   /* Network address of interest */
//  643   shortAddr = osal_build_uint16( pBuf );
//  644 
//  645   retValue = (uint8)ZDP_NodeDescReq( &destAddr, shortAddr, 0);
//  646 
//  647   MT_BuildAndSendZToolResponse(((uint8)MT_RPC_CMD_SRSP | (uint8)MT_RPC_SYS_ZDO), cmdId, 1, &retValue);
//  648 }
//  649 
//  650 /***************************************************************************************************
//  651  * @fn      MT_ZdoPowerDescRequest
//  652  *
//  653  * @brief   Handle a Power Descriptor request.
//  654  *
//  655  * @param   pData  - MT message data
//  656  *
//  657  * @return  void
//  658  ***************************************************************************************************/
//  659 static void MT_ZdoPowerDescRequest(uint8 *pBuf)
//  660 {
//  661   uint8 cmdId;
//  662   uint8 retValue;
//  663   zAddrType_t destAddr;
//  664   uint16 shortAddr;
//  665 
//  666   /* parse header */
//  667   cmdId = pBuf[MT_RPC_POS_CMD1];
//  668   pBuf += MT_RPC_FRAME_HDR_SZ;
//  669 
//  670   /* Dev address */
//  671   destAddr.addrMode = Addr16Bit;
//  672   destAddr.addr.shortAddr = osal_build_uint16( pBuf );
//  673   pBuf += 2;
//  674 
//  675   /* Network address of interest */
//  676   shortAddr = osal_build_uint16( pBuf );
//  677 
//  678   retValue = (uint8)ZDP_PowerDescReq( &destAddr, shortAddr, 0);
//  679 
//  680   MT_BuildAndSendZToolResponse(((uint8)MT_RPC_CMD_SRSP | (uint8)MT_RPC_SYS_ZDO), cmdId, 1, &retValue);
//  681 }
//  682 
//  683 /***************************************************************************************************
//  684  * @fn      MT_ZdoSimpleDescRequest
//  685  *
//  686  * @brief   Handle a Simple Descriptor request.
//  687  *
//  688  * @param   pBuf  - MT message data
//  689  *
//  690  * @return  void
//  691  ***************************************************************************************************/
//  692 static void MT_ZdoSimpleDescRequest(uint8 *pBuf)
//  693 {
//  694   uint8 cmdId;
//  695   uint8 retValue;
//  696   uint8 epInt;
//  697   zAddrType_t destAddr;
//  698   uint16 shortAddr;
//  699 
//  700   /* parse header */
//  701   cmdId = pBuf[MT_RPC_POS_CMD1];
//  702   pBuf += MT_RPC_FRAME_HDR_SZ;
//  703 
//  704   /* Dev address */
//  705   destAddr.addrMode = Addr16Bit;
//  706   destAddr.addr.shortAddr = osal_build_uint16( pBuf );
//  707   pBuf += 2;
//  708 
//  709   /* Network address of interest */
//  710   shortAddr = osal_build_uint16( pBuf );
//  711   pBuf += 2;
//  712 
//  713   /* endpoint/interface */
//  714   epInt = *pBuf;
//  715 
//  716   retValue = (uint8)ZDP_SimpleDescReq( &destAddr, shortAddr, epInt, 0);
//  717 
//  718   MT_BuildAndSendZToolResponse(((uint8)MT_RPC_CMD_SRSP | (uint8)MT_RPC_SYS_ZDO), cmdId, 1, &retValue);
//  719 }
//  720 
//  721 /***************************************************************************************************
//  722  * @fn      MT_ZdoActiveEpRequest
//  723  *
//  724  * @brief   Handle a Active EP request.
//  725  *
//  726  * @param   pBuf  - MT message data
//  727  *
//  728  * @return  void
//  729  ***************************************************************************************************/
//  730 static void MT_ZdoActiveEpRequest(uint8 *pBuf)
//  731 {
//  732   uint8 cmdId;
//  733   uint8 retValue;
//  734   zAddrType_t destAddr;
//  735   uint16 shortAddr;
//  736 
//  737   /* parse header */
//  738   cmdId = pBuf[MT_RPC_POS_CMD1];
//  739   pBuf += MT_RPC_FRAME_HDR_SZ;
//  740 
//  741   /* Dev address */
//  742   destAddr.addrMode = Addr16Bit;
//  743   destAddr.addr.shortAddr = osal_build_uint16( pBuf );
//  744   pBuf += 2;
//  745 
//  746   /* Network address of interest */
//  747   shortAddr = osal_build_uint16( pBuf );
//  748 
//  749   retValue = (uint8)ZDP_ActiveEPReq( &destAddr, shortAddr, 0);
//  750 
//  751   MT_BuildAndSendZToolResponse(((uint8)MT_RPC_CMD_SRSP | (uint8)MT_RPC_SYS_ZDO), cmdId, 1, &retValue);
//  752 }
//  753 
//  754 /***************************************************************************************************
//  755  * @fn      MT_ZdoMatchDescRequest
//  756  *
//  757  * @brief   Handle a Match Descriptor request.
//  758  *
//  759  * @param   pBuf  - MT message data
//  760  *
//  761  * @return  void
//  762  ***************************************************************************************************/

        RSEG BANKED_CODE:CODE:NOROOT(0)
//  763 static void MT_ZdoMatchDescRequest(uint8 *pBuf)
MT_ZdoMatchDescRequest:
          CFI Block cfiBlock22 Using cfiCommon0
          CFI Function MT_ZdoMatchDescRequest
        CODE
//  764 {
        FUNCALL MT_ZdoMatchDescRequest, osal_build_uint16
        LOCFRAME ISTACK, 0, STACK
        LOCFRAME PSTACK, 0, STACK
        LOCFRAME XSTACK, 92, STACK
        LOCFRAME IOVERLAY, 0, STATIC
        LOCFRAME DOVERLAY, 0, STATIC
        ARGFRAME ISTACK, 0, STACK
        ARGFRAME PSTACK, 0, STACK
        ARGFRAME XSTACK, 92, STACK
        ARGFRAME IOVERLAY, 0, STATIC
        ARGFRAME DOVERLAY, 0, STATIC
        FUNCALL MT_ZdoMatchDescRequest, osal_build_uint16
        LOCFRAME ISTACK, 0, STACK
        LOCFRAME PSTACK, 0, STACK
        LOCFRAME XSTACK, 92, STACK
        LOCFRAME IOVERLAY, 0, STATIC
        LOCFRAME DOVERLAY, 0, STATIC
        ARGFRAME ISTACK, 0, STACK
        ARGFRAME PSTACK, 0, STACK
        ARGFRAME XSTACK, 92, STACK
        ARGFRAME IOVERLAY, 0, STATIC
        ARGFRAME DOVERLAY, 0, STATIC
        FUNCALL MT_ZdoMatchDescRequest, osal_build_uint16
        LOCFRAME ISTACK, 0, STACK
        LOCFRAME PSTACK, 0, STACK
        LOCFRAME XSTACK, 92, STACK
        LOCFRAME IOVERLAY, 0, STATIC
        LOCFRAME DOVERLAY, 0, STATIC
        ARGFRAME ISTACK, 0, STACK
        ARGFRAME PSTACK, 0, STACK
        ARGFRAME XSTACK, 92, STACK
        ARGFRAME IOVERLAY, 0, STATIC
        ARGFRAME DOVERLAY, 0, STATIC
        FUNCALL MT_ZdoMatchDescRequest, osal_build_uint16
        LOCFRAME ISTACK, 0, STACK
        LOCFRAME PSTACK, 0, STACK
        LOCFRAME XSTACK, 92, STACK
        LOCFRAME IOVERLAY, 0, STATIC
        LOCFRAME DOVERLAY, 0, STATIC
        ARGFRAME ISTACK, 0, STACK
        ARGFRAME PSTACK, 0, STACK
        ARGFRAME XSTACK, 92, STACK
        ARGFRAME IOVERLAY, 0, STATIC
        ARGFRAME DOVERLAY, 0, STATIC
        FUNCALL MT_ZdoMatchDescRequest, osal_build_uint16
        LOCFRAME ISTACK, 0, STACK
        LOCFRAME PSTACK, 0, STACK
        LOCFRAME XSTACK, 92, STACK
        LOCFRAME IOVERLAY, 0, STATIC
        LOCFRAME DOVERLAY, 0, STATIC
        ARGFRAME ISTACK, 0, STACK
        ARGFRAME PSTACK, 0, STACK
        ARGFRAME XSTACK, 92, STACK
        ARGFRAME IOVERLAY, 0, STATIC
        ARGFRAME DOVERLAY, 0, STATIC
        FUNCALL MT_ZdoMatchDescRequest, ZDP_MatchDescReq
        LOCFRAME ISTACK, 0, STACK
        LOCFRAME PSTACK, 0, STACK
        LOCFRAME XSTACK, 100, STACK
        LOCFRAME IOVERLAY, 0, STATIC
        LOCFRAME DOVERLAY, 0, STATIC
        ARGFRAME ISTACK, 0, STACK
        ARGFRAME PSTACK, 0, STACK
        ARGFRAME XSTACK, 100, STACK
        ARGFRAME IOVERLAY, 0, STATIC
        ARGFRAME DOVERLAY, 0, STATIC
        FUNCALL MT_ZdoMatchDescRequest, MT_BuildAndSendZToolResponse
        LOCFRAME ISTACK, 0, STACK
        LOCFRAME PSTACK, 0, STACK
        LOCFRAME XSTACK, 92, STACK
        LOCFRAME IOVERLAY, 0, STATIC
        LOCFRAME DOVERLAY, 0, STATIC
        ARGFRAME ISTACK, 0, STACK
        ARGFRAME PSTACK, 0, STACK
        ARGFRAME XSTACK, 92, STACK
        ARGFRAME IOVERLAY, 0, STATIC
        ARGFRAME DOVERLAY, 0, STATIC
        REQUIRE ?V0
        REQUIRE ?V1
        REQUIRE ?V2
        REQUIRE ?V3
        REQUIRE ?V4
        REQUIRE ?V5
        REQUIRE ?V6
        REQUIRE ?V7
        REQUIRE ?V8
        REQUIRE ?V9
        MOV     A,#-0x12
        LCALL   ?BANKED_ENTER_XDATA
          CFI DPH0 load(1, XDATA, add(CFA_XSP16, literal(-1)))
          CFI DPL0 load(1, XDATA, add(CFA_XSP16, literal(-2)))
          CFI ?BRET_EXT load(1, XDATA, add(CFA_XSP16, literal(-3)))
          CFI ?RET_HIGH load(1, XDATA, add(CFA_XSP16, literal(-4)))
          CFI ?RET_LOW load(1, XDATA, add(CFA_XSP16, literal(-5)))
          CFI R7 load(1, XDATA, add(CFA_XSP16, literal(-6)))
          CFI V9 load(1, XDATA, add(CFA_XSP16, literal(-7)))
          CFI V8 load(1, XDATA, add(CFA_XSP16, literal(-8)))
          CFI V7 load(1, XDATA, add(CFA_XSP16, literal(-9)))
          CFI V6 load(1, XDATA, add(CFA_XSP16, literal(-10)))
          CFI V5 load(1, XDATA, add(CFA_XSP16, literal(-11)))
          CFI V4 load(1, XDATA, add(CFA_XSP16, literal(-12)))
          CFI V3 load(1, XDATA, add(CFA_XSP16, literal(-13)))
          CFI V2 load(1, XDATA, add(CFA_XSP16, literal(-14)))
          CFI V1 load(1, XDATA, add(CFA_XSP16, literal(-15)))
          CFI V0 load(1, XDATA, add(CFA_XSP16, literal(-16)))
          CFI VB load(1, XDATA, add(CFA_XSP16, literal(-17)))
          CFI R6 load(1, XDATA, add(CFA_XSP16, literal(-18)))
          CFI CFA_SP SP+0
          CFI CFA_XSP16 add(XSP16, 18)
        ; Saved register size: 18
        ; Auto size: 74
        MOV     A,#-0x4a
        LCALL   ?ALLOC_XSTACK8
          CFI CFA_XSP16 add(XSP16, 92)
        LCALL   ?Subroutine27 & 0xFFFF
//  765   uint8 cmdId;
//  766   uint8 retValue = 0;
//  767   uint8 i, numInClusters, numOutClusters;
//  768   uint16 profileId;
//  769   zAddrType_t destAddr;
//  770   uint16 shortAddr;
//  771   uint16 inClusters[MTZDO_MAX_MATCH_CLUSTERS], outClusters[MTZDO_MAX_MATCH_CLUSTERS];
//  772 
//  773   /* parse header */
//  774   cmdId = pBuf[MT_RPC_POS_CMD1];
??CrossCallReturnLabel_59:
        MOV     ?V3,A
//  775   pBuf += MT_RPC_FRAME_HDR_SZ;
        MOV     A,R6
        ADD     A,#0x3
        MOV     R6,A
        JNC     ??MT_ZdoMatchDescRequest_0
        INC     R7
//  776 
//  777   /* Dev address */
//  778   destAddr.addrMode = Addr16Bit;
??MT_ZdoMatchDescRequest_0:
        MOV     A,#0x9
        LCALL   ?XSTACK_DISP0_8
        LCALL   ?Subroutine19 & 0xFFFF
//  779   destAddr.addr.shortAddr = osal_build_uint16( pBuf );
??CrossCallReturnLabel_36:
        LCALL   `??osal_build_uint16::?relay`; Banked call to: osal_build_uint16
        MOV     A,#0x1
        LCALL   ?XSTACK_DISP0_8
        LCALL   ??Subroutine40_0 & 0xFFFF
//  780   pBuf += 2;
??CrossCallReturnLabel_85:
        JNC     ??MT_ZdoMatchDescRequest_1
        INC     R7
//  781 
//  782   /* Network address of interest */
//  783   shortAddr = osal_build_uint16( pBuf );
??MT_ZdoMatchDescRequest_1:
        ; Setup parameters for call to function osal_build_uint16
        MOV     R2,A
        MOV     A,R7
        MOV     R3,A
        LCALL   `??osal_build_uint16::?relay`; Banked call to: osal_build_uint16
        MOV     ?V0,R2
        MOV     ?V1,R3
//  784   pBuf += 2;
        MOV     A,R6
        ADD     A,#0x2
        MOV     R6,A
        JNC     ??MT_ZdoMatchDescRequest_2
        INC     R7
//  785 
//  786   /* Profile ID */
//  787   profileId = osal_build_uint16( pBuf );
??MT_ZdoMatchDescRequest_2:
        ; Setup parameters for call to function osal_build_uint16
        MOV     R2,A
        MOV     A,R7
        MOV     R3,A
        LCALL   `??osal_build_uint16::?relay`; Banked call to: osal_build_uint16
        MOV     ?V4,R2
        MOV     ?V5,R3
//  788   pBuf += 2;
//  789 
//  790   /* NumInClusters */
//  791   numInClusters = *pBuf++;
        MOV     DPL,R6
        MOV     DPH,R7
        INC     DPTR
        INC     DPTR
        MOVX    A,@DPTR
        MOV     ?V6,A
        MOV     A,R6
        ADD     A,#0x3
        MOV     R6,A
        JNC     ??MT_ZdoMatchDescRequest_3
        INC     R7
//  792   if ( numInClusters <= MTZDO_MAX_MATCH_CLUSTERS )
??MT_ZdoMatchDescRequest_3:
        MOV     A,?V6
        CLR     C
        SUBB    A,#0x11
        JNC     ??MT_ZdoMatchDescRequest_4
//  793   {
//  794     /* IN clusters */
//  795     for ( i = 0; i < numInClusters; i++ )
        MOV     ?V2,#0x0
??MT_ZdoMatchDescRequest_5:
        MOV     A,?V2
        CLR     C
        SUBB    A,?V6
        JNC     ??MT_ZdoMatchDescRequest_6
//  796     {
//  797       inClusters[i] = osal_build_uint16( pBuf );
        ; Setup parameters for call to function osal_build_uint16
        MOV     A,R6
        MOV     R2,A
        MOV     A,R7
        MOV     R3,A
        LCALL   `??osal_build_uint16::?relay`; Banked call to: osal_build_uint16
        LCALL   ?Subroutine29 & 0xFFFF
//  798       pBuf += 2;
//  799     }
??CrossCallReturnLabel_78:
        MOV     A,#0x2a
        LCALL   ?XSTACK_DISP0_8
        LCALL   ?Subroutine18 & 0xFFFF
??CrossCallReturnLabel_80:
        JNC     ??MT_ZdoMatchDescRequest_7
        INC     R7
??MT_ZdoMatchDescRequest_7:
        INC     ?V2
        SJMP    ??MT_ZdoMatchDescRequest_5
//  800   }
//  801   else
//  802   {
//  803     retValue = ZDP_INVALID_REQTYPE;
??MT_ZdoMatchDescRequest_4:
        MOV     DPL,?XSP + 0
        MOV     DPH,?XSP + 1
        MOV     A,#-0x80
        MOVX    @DPTR,A
//  804   }
//  805 
//  806   /* NumOutClusters */
//  807   numOutClusters = *pBuf++;
??MT_ZdoMatchDescRequest_6:
        MOV     DPL,R6
        MOV     DPH,R7
        MOVX    A,@DPTR
        MOV     ?V7,A
        INC     DPTR
        MOV     R6,DPL
        MOV     R7,DPH
//  808   if ( numOutClusters <= MTZDO_MAX_MATCH_CLUSTERS )
        CLR     C
        SUBB    A,#0x11
        JNC     ??MT_ZdoMatchDescRequest_8
//  809   {
//  810     /* OUT Clusters */
//  811     for ( i = 0; i < numOutClusters; i++ )
        MOV     ?V2,#0x0
??MT_ZdoMatchDescRequest_9:
        MOV     A,?V2
        CLR     C
        SUBB    A,?V7
        JNC     ??MT_ZdoMatchDescRequest_10
//  812     {
//  813       outClusters[i] = osal_build_uint16( pBuf );
        ; Setup parameters for call to function osal_build_uint16
        MOV     A,R6
        MOV     R2,A
        MOV     A,R7
        MOV     R3,A
        LCALL   `??osal_build_uint16::?relay`; Banked call to: osal_build_uint16
        LCALL   ?Subroutine29 & 0xFFFF
//  814       pBuf += 2;
//  815     }
??CrossCallReturnLabel_79:
        MOV     A,#0xa
        LCALL   ?XSTACK_DISP0_8
        LCALL   ?Subroutine18 & 0xFFFF
??CrossCallReturnLabel_81:
        JNC     ??MT_ZdoMatchDescRequest_11
        INC     R7
??MT_ZdoMatchDescRequest_11:
        INC     ?V2
        SJMP    ??MT_ZdoMatchDescRequest_9
//  816   }
//  817   else
//  818   {
//  819     retValue = ZDP_INVALID_REQTYPE;
??MT_ZdoMatchDescRequest_8:
        MOV     DPL,?XSP + 0
        MOV     DPH,?XSP + 1
        MOV     A,#-0x80
        SJMP    ??MT_ZdoMatchDescRequest_12
//  820   }
//  821 
//  822   if ( retValue == 0 )
??MT_ZdoMatchDescRequest_10:
        MOV     DPL,?XSP + 0
        MOV     DPH,?XSP + 1
        MOVX    A,@DPTR
        JNZ     ??MT_ZdoMatchDescRequest_13
//  823   {
//  824     retValue = (uint8)ZDP_MatchDescReq( &destAddr, shortAddr, profileId, numInClusters,
//  825                                        inClusters, numOutClusters, outClusters, 0);
        ; Setup parameters for call to function ZDP_MatchDescReq
        MOV     ?V2,#0x0
        MOV     R0,#?V2
        LCALL   ?PUSH_XSTACK_I_ONE
          CFI CFA_XSP16 add(XSP16, 93)
        MOV     A,#0xb
        LCALL   ?XSTACK_DISP100_8
        MOV     ?V8,R0
        MOV     ?V9,R1
        MOV     R0,#?V8
        LCALL   ?PUSH_XSTACK_I_TWO
          CFI CFA_XSP16 add(XSP16, 95)
        MOV     A,?V7
        MOV     ?V2,A
        MOV     R0,#?V2
        LCALL   ?PUSH_XSTACK_I_ONE
          CFI CFA_XSP16 add(XSP16, 96)
        MOV     A,#0x2e
        LCALL   ?XSTACK_DISP100_8
        MOV     ?V8,R0
        MOV     ?V9,R1
        MOV     R0,#?V8
        LCALL   ?PUSH_XSTACK_I_TWO
          CFI CFA_XSP16 add(XSP16, 98)
        MOV     R0,#?V4
        LCALL   ?PUSH_XSTACK_I_TWO
          CFI CFA_XSP16 add(XSP16, 100)
        MOV     R1,?V6
        MOV     R4,?V0
        MOV     R5,?V1
        MOV     A,#0x9
        LCALL   ?XSTACK_DISP101_8
        LCALL   `??ZDP_MatchDescReq::?relay`; Banked call to: ZDP_MatchDescReq
        MOV     A,#0x8
        LCALL   ?DEALLOC_XSTACK8
          CFI CFA_XSP16 add(XSP16, 92)
        MOV     A,R1
        MOV     DPL,?XSP + 0
        MOV     DPH,?XSP + 1
??MT_ZdoMatchDescRequest_12:
        MOVX    @DPTR,A
//  826   }
//  827 
//  828   MT_BuildAndSendZToolResponse(((uint8)MT_RPC_CMD_SRSP | (uint8)MT_RPC_SYS_ZDO), cmdId, 1, &retValue);
??MT_ZdoMatchDescRequest_13:
        ; Setup parameters for call to function MT_BuildAndSendZToolResponse
        MOV     R4,?XSP + 0
        MOV     R5,?XSP + 1
        MOV     R3,#0x1
        MOV     R2,?V3
        MOV     R1,#0x65
        LCALL   `??MT_BuildAndSendZToolResponse::?relay`; Banked call to: MT_BuildAndSendZToolResponse
//  829 }
        MOV     A,#0x4a
        LCALL   ?DEALLOC_XSTACK8
          CFI CFA_XSP16 add(XSP16, 18)
        MOV     R7,#0xa
        LJMP    ?BANKED_LEAVE_XDATA
          CFI EndBlock cfiBlock22

        RSEG BANKED_CODE:CODE:NOROOT(0)
?Subroutine29:
          CFI Block cfiCond23 Using cfiCommon0
          CFI Function MT_ZdoMatchDescRequest
          CFI Conditional ??CrossCallReturnLabel_78
          CFI R6 load(1, XDATA, add(CFA_XSP16, literal(-18)))
          CFI VB load(1, XDATA, add(CFA_XSP16, literal(-17)))
          CFI V0 load(1, XDATA, add(CFA_XSP16, literal(-16)))
          CFI V1 load(1, XDATA, add(CFA_XSP16, literal(-15)))
          CFI V2 load(1, XDATA, add(CFA_XSP16, literal(-14)))
          CFI V3 load(1, XDATA, add(CFA_XSP16, literal(-13)))
          CFI V4 load(1, XDATA, add(CFA_XSP16, literal(-12)))
          CFI V5 load(1, XDATA, add(CFA_XSP16, literal(-11)))
          CFI V6 load(1, XDATA, add(CFA_XSP16, literal(-10)))
          CFI V7 load(1, XDATA, add(CFA_XSP16, literal(-9)))
          CFI V8 load(1, XDATA, add(CFA_XSP16, literal(-8)))
          CFI V9 load(1, XDATA, add(CFA_XSP16, literal(-7)))
          CFI R7 load(1, XDATA, add(CFA_XSP16, literal(-6)))
          CFI ?RET_LOW load(1, XDATA, add(CFA_XSP16, literal(-5)))
          CFI ?RET_HIGH load(1, XDATA, add(CFA_XSP16, literal(-4)))
          CFI ?BRET_EXT load(1, XDATA, add(CFA_XSP16, literal(-3)))
          CFI DPL0 load(1, XDATA, add(CFA_XSP16, literal(-2)))
          CFI DPH0 load(1, XDATA, add(CFA_XSP16, literal(-1)))
          CFI CFA_SP SP+-2
          CFI CFA_XSP16 add(XSP16, 92)
          CFI Block cfiCond24 Using cfiCommon0
          CFI (cfiCond24) Function MT_ZdoMatchDescRequest
          CFI (cfiCond24) Conditional ??CrossCallReturnLabel_79
          CFI (cfiCond24) R6 load(1, XDATA, add(CFA_XSP16, literal(-18)))
          CFI (cfiCond24) VB load(1, XDATA, add(CFA_XSP16, literal(-17)))
          CFI (cfiCond24) V0 load(1, XDATA, add(CFA_XSP16, literal(-16)))
          CFI (cfiCond24) V1 load(1, XDATA, add(CFA_XSP16, literal(-15)))
          CFI (cfiCond24) V2 load(1, XDATA, add(CFA_XSP16, literal(-14)))
          CFI (cfiCond24) V3 load(1, XDATA, add(CFA_XSP16, literal(-13)))
          CFI (cfiCond24) V4 load(1, XDATA, add(CFA_XSP16, literal(-12)))
          CFI (cfiCond24) V5 load(1, XDATA, add(CFA_XSP16, literal(-11)))
          CFI (cfiCond24) V6 load(1, XDATA, add(CFA_XSP16, literal(-10)))
          CFI (cfiCond24) V7 load(1, XDATA, add(CFA_XSP16, literal(-9)))
          CFI (cfiCond24) V8 load(1, XDATA, add(CFA_XSP16, literal(-8)))
          CFI (cfiCond24) V9 load(1, XDATA, add(CFA_XSP16, literal(-7)))
          CFI (cfiCond24) R7 load(1, XDATA, add(CFA_XSP16, literal(-6)))
          CFI (cfiCond24) ?RET_LOW load(1, XDATA, add(CFA_XSP16, literal(-5)))
          CFI (cfiCond24) ?RET_HIGH load(1, XDATA, add(CFA_XSP16, literal(-4)))
          CFI (cfiCond24) ?BRET_EXT load(1, XDATA, add(CFA_XSP16, literal(-3)))
          CFI (cfiCond24) DPL0 load(1, XDATA, add(CFA_XSP16, literal(-2)))
          CFI (cfiCond24) DPH0 load(1, XDATA, add(CFA_XSP16, literal(-1)))
          CFI (cfiCond24) CFA_SP SP+-2
          CFI (cfiCond24) CFA_XSP16 add(XSP16, 92)
          CFI Block cfiPicker25 Using cfiCommon1
          CFI (cfiPicker25) NoFunction
          CFI (cfiPicker25) Picker
        MOV     R0,?V2
          CFI EndBlock cfiCond23
          CFI EndBlock cfiCond24
          CFI EndBlock cfiPicker25
        REQUIRE ??Subroutine39_0
        ; // Fall through to label ??Subroutine39_0

        RSEG BANKED_CODE:CODE:NOROOT(0)
??Subroutine39_0:
          CFI Block cfiCond26 Using cfiCommon0
          CFI Function MT_ZdoEndDevBindRequest
          CFI Conditional ??CrossCallReturnLabel_76
          CFI R6 load(1, XDATA, add(CFA_XSP16, literal(-20)))
          CFI VB load(1, XDATA, add(CFA_XSP16, literal(-19)))
          CFI V0 load(1, XDATA, add(CFA_XSP16, literal(-18)))
          CFI V1 load(1, XDATA, add(CFA_XSP16, literal(-17)))
          CFI V2 load(1, XDATA, add(CFA_XSP16, literal(-16)))
          CFI V3 load(1, XDATA, add(CFA_XSP16, literal(-15)))
          CFI V4 load(1, XDATA, add(CFA_XSP16, literal(-14)))
          CFI V5 load(1, XDATA, add(CFA_XSP16, literal(-13)))
          CFI V6 load(1, XDATA, add(CFA_XSP16, literal(-12)))
          CFI V7 load(1, XDATA, add(CFA_XSP16, literal(-11)))
          CFI V8 load(1, XDATA, add(CFA_XSP16, literal(-10)))
          CFI V9 load(1, XDATA, add(CFA_XSP16, literal(-9)))
          CFI V10 load(1, XDATA, add(CFA_XSP16, literal(-8)))
          CFI V11 load(1, XDATA, add(CFA_XSP16, literal(-7)))
          CFI R7 load(1, XDATA, add(CFA_XSP16, literal(-6)))
          CFI ?RET_LOW load(1, XDATA, add(CFA_XSP16, literal(-5)))
          CFI ?RET_HIGH load(1, XDATA, add(CFA_XSP16, literal(-4)))
          CFI ?BRET_EXT load(1, XDATA, add(CFA_XSP16, literal(-3)))
          CFI DPL0 load(1, XDATA, add(CFA_XSP16, literal(-2)))
          CFI DPH0 load(1, XDATA, add(CFA_XSP16, literal(-1)))
          CFI CFA_SP SP+-2
          CFI CFA_XSP16 add(XSP16, 90)
          CFI Block cfiCond27 Using cfiCommon0
          CFI (cfiCond27) Function MT_ZdoEndDevBindRequest
          CFI (cfiCond27) Conditional ??CrossCallReturnLabel_77
          CFI (cfiCond27) R6 load(1, XDATA, add(CFA_XSP16, literal(-20)))
          CFI (cfiCond27) VB load(1, XDATA, add(CFA_XSP16, literal(-19)))
          CFI (cfiCond27) V0 load(1, XDATA, add(CFA_XSP16, literal(-18)))
          CFI (cfiCond27) V1 load(1, XDATA, add(CFA_XSP16, literal(-17)))
          CFI (cfiCond27) V2 load(1, XDATA, add(CFA_XSP16, literal(-16)))
          CFI (cfiCond27) V3 load(1, XDATA, add(CFA_XSP16, literal(-15)))
          CFI (cfiCond27) V4 load(1, XDATA, add(CFA_XSP16, literal(-14)))
          CFI (cfiCond27) V5 load(1, XDATA, add(CFA_XSP16, literal(-13)))
          CFI (cfiCond27) V6 load(1, XDATA, add(CFA_XSP16, literal(-12)))
          CFI (cfiCond27) V7 load(1, XDATA, add(CFA_XSP16, literal(-11)))
          CFI (cfiCond27) V8 load(1, XDATA, add(CFA_XSP16, literal(-10)))
          CFI (cfiCond27) V9 load(1, XDATA, add(CFA_XSP16, literal(-9)))
          CFI (cfiCond27) V10 load(1, XDATA, add(CFA_XSP16, literal(-8)))
          CFI (cfiCond27) V11 load(1, XDATA, add(CFA_XSP16, literal(-7)))
          CFI (cfiCond27) R7 load(1, XDATA, add(CFA_XSP16, literal(-6)))
          CFI (cfiCond27) ?RET_LOW load(1, XDATA, add(CFA_XSP16, literal(-5)))
          CFI (cfiCond27) ?RET_HIGH load(1, XDATA, add(CFA_XSP16, literal(-4)))
          CFI (cfiCond27) ?BRET_EXT load(1, XDATA, add(CFA_XSP16, literal(-3)))
          CFI (cfiCond27) DPL0 load(1, XDATA, add(CFA_XSP16, literal(-2)))
          CFI (cfiCond27) DPH0 load(1, XDATA, add(CFA_XSP16, literal(-1)))
          CFI (cfiCond27) CFA_SP SP+-2
          CFI (cfiCond27) CFA_XSP16 add(XSP16, 90)
          CFI Block cfiCond28 Using cfiCommon0
          CFI (cfiCond28) Function MT_ZdoMatchDescRequest
          CFI (cfiCond28) Conditional ??CrossCallReturnLabel_78
          CFI (cfiCond28) R6 load(1, XDATA, add(CFA_XSP16, literal(-18)))
          CFI (cfiCond28) VB load(1, XDATA, add(CFA_XSP16, literal(-17)))
          CFI (cfiCond28) V0 load(1, XDATA, add(CFA_XSP16, literal(-16)))
          CFI (cfiCond28) V1 load(1, XDATA, add(CFA_XSP16, literal(-15)))
          CFI (cfiCond28) V2 load(1, XDATA, add(CFA_XSP16, literal(-14)))
          CFI (cfiCond28) V3 load(1, XDATA, add(CFA_XSP16, literal(-13)))
          CFI (cfiCond28) V4 load(1, XDATA, add(CFA_XSP16, literal(-12)))
          CFI (cfiCond28) V5 load(1, XDATA, add(CFA_XSP16, literal(-11)))
          CFI (cfiCond28) V6 load(1, XDATA, add(CFA_XSP16, literal(-10)))
          CFI (cfiCond28) V7 load(1, XDATA, add(CFA_XSP16, literal(-9)))
          CFI (cfiCond28) V8 load(1, XDATA, add(CFA_XSP16, literal(-8)))
          CFI (cfiCond28) V9 load(1, XDATA, add(CFA_XSP16, literal(-7)))
          CFI (cfiCond28) R7 load(1, XDATA, add(CFA_XSP16, literal(-6)))
          CFI (cfiCond28) ?RET_LOW load(1, XDATA, add(CFA_XSP16, literal(-5)))
          CFI (cfiCond28) ?RET_HIGH load(1, XDATA, add(CFA_XSP16, literal(-4)))
          CFI (cfiCond28) ?BRET_EXT load(1, XDATA, add(CFA_XSP16, literal(-3)))
          CFI (cfiCond28) DPL0 load(1, XDATA, add(CFA_XSP16, literal(-2)))
          CFI (cfiCond28) DPH0 load(1, XDATA, add(CFA_XSP16, literal(-1)))
          CFI (cfiCond28) CFA_SP SP+-2
          CFI (cfiCond28) CFA_XSP16 add(XSP16, 92)
          CFI Block cfiCond29 Using cfiCommon0
          CFI (cfiCond29) Function MT_ZdoMatchDescRequest
          CFI (cfiCond29) Conditional ??CrossCallReturnLabel_79
          CFI (cfiCond29) R6 load(1, XDATA, add(CFA_XSP16, literal(-18)))
          CFI (cfiCond29) VB load(1, XDATA, add(CFA_XSP16, literal(-17)))
          CFI (cfiCond29) V0 load(1, XDATA, add(CFA_XSP16, literal(-16)))
          CFI (cfiCond29) V1 load(1, XDATA, add(CFA_XSP16, literal(-15)))
          CFI (cfiCond29) V2 load(1, XDATA, add(CFA_XSP16, literal(-14)))
          CFI (cfiCond29) V3 load(1, XDATA, add(CFA_XSP16, literal(-13)))
          CFI (cfiCond29) V4 load(1, XDATA, add(CFA_XSP16, literal(-12)))
          CFI (cfiCond29) V5 load(1, XDATA, add(CFA_XSP16, literal(-11)))
          CFI (cfiCond29) V6 load(1, XDATA, add(CFA_XSP16, literal(-10)))
          CFI (cfiCond29) V7 load(1, XDATA, add(CFA_XSP16, literal(-9)))
          CFI (cfiCond29) V8 load(1, XDATA, add(CFA_XSP16, literal(-8)))
          CFI (cfiCond29) V9 load(1, XDATA, add(CFA_XSP16, literal(-7)))
          CFI (cfiCond29) R7 load(1, XDATA, add(CFA_XSP16, literal(-6)))
          CFI (cfiCond29) ?RET_LOW load(1, XDATA, add(CFA_XSP16, literal(-5)))
          CFI (cfiCond29) ?RET_HIGH load(1, XDATA, add(CFA_XSP16, literal(-4)))
          CFI (cfiCond29) ?BRET_EXT load(1, XDATA, add(CFA_XSP16, literal(-3)))
          CFI (cfiCond29) DPL0 load(1, XDATA, add(CFA_XSP16, literal(-2)))
          CFI (cfiCond29) DPH0 load(1, XDATA, add(CFA_XSP16, literal(-1)))
          CFI (cfiCond29) CFA_SP SP+-2
          CFI (cfiCond29) CFA_XSP16 add(XSP16, 92)
          CFI Block cfiPicker30 Using cfiCommon1
          CFI (cfiPicker30) NoFunction
          CFI (cfiPicker30) Picker
        MOV     A,R0
        ADD     A,R0
        MOV     R0,A
        CLR     A
        RLC     A
        MOV     R1,A
        RET
          CFI EndBlock cfiCond26
          CFI EndBlock cfiCond27
          CFI EndBlock cfiCond28
          CFI EndBlock cfiCond29
          CFI EndBlock cfiPicker30
//  830 
//  831 /***************************************************************************************************
//  832  * @fn      MT_ZdoComplexDescRequest
//  833  *
//  834  * @brief   Handle a Complex Descriptor request.
//  835  *
//  836  * @param   pBuf  - MT message data
//  837  *
//  838  * @return  void
//  839  ***************************************************************************************************/
//  840 static void MT_ZdoComplexDescRequest(uint8 *pBuf)
//  841 {
//  842   uint8 cmdId;
//  843   uint8 retValue;
//  844   zAddrType_t destAddr;
//  845   uint16 shortAddr;
//  846 
//  847   /* parse header */
//  848   cmdId = pBuf[MT_RPC_POS_CMD1];
//  849   pBuf += MT_RPC_FRAME_HDR_SZ;
//  850 
//  851   /* Dev address */
//  852   destAddr.addrMode = Addr16Bit;
//  853   destAddr.addr.shortAddr = osal_build_uint16( pBuf );
//  854   pBuf += 2;
//  855 
//  856   /* Network address of interest */
//  857   shortAddr = osal_build_uint16( pBuf );
//  858 
//  859   retValue = (uint8)ZDP_ComplexDescReq( &destAddr, shortAddr, 0);
//  860 
//  861   MT_BuildAndSendZToolResponse(((uint8)MT_RPC_CMD_SRSP | (uint8)MT_RPC_SYS_ZDO), cmdId, 1, &retValue);
//  862 }
//  863 
//  864 /***************************************************************************************************
//  865  * @fn      MT_ZdoUserDescRequest
//  866  *
//  867  * @brief   Handle a User Descriptor request.
//  868  *
//  869  * @param   pBuf  - MT message data
//  870  *
//  871  * @return  void
//  872  ***************************************************************************************************/
//  873 static void MT_ZdoUserDescRequest(uint8 *pBuf)
//  874 {
//  875   uint8 cmdId;
//  876   uint8 retValue;
//  877   zAddrType_t destAddr;
//  878   uint16 shortAddr;
//  879 
//  880   /* parse header */
//  881   cmdId = pBuf[MT_RPC_POS_CMD1];
//  882   pBuf += MT_RPC_FRAME_HDR_SZ;
//  883 
//  884   /* Dev address */
//  885   destAddr.addrMode = Addr16Bit;
//  886   destAddr.addr.shortAddr = osal_build_uint16( pBuf );
//  887   pBuf += 2;
//  888 
//  889   /* Network address of interest */
//  890   shortAddr = osal_build_uint16( pBuf );
//  891 
//  892   retValue = (uint8)ZDP_UserDescReq( &destAddr, shortAddr, 0);
//  893 
//  894   MT_BuildAndSendZToolResponse(((uint8)MT_RPC_CMD_SRSP | (uint8)MT_RPC_SYS_ZDO), cmdId, 1, &retValue);
//  895 }
//  896 
//  897 /***************************************************************************************************
//  898  * @fn      MT_ZdoEndDevAnnce
//  899  *
//  900  * @brief   Handle a End Device Announce Descriptor request.
//  901  *
//  902  * @param   pBuf  - MT message data
//  903  *
//  904  * @return  void
//  905  ***************************************************************************************************/
//  906 static void MT_ZdoEndDevAnnce(uint8 *pBuf)
//  907 {
//  908   uint8 cmdId;
//  909   uint8 retValue;
//  910   uint16 shortAddr;
//  911   uint8 *pIEEEAddr;
//  912 
//  913   /* parse header */
//  914   cmdId = pBuf[MT_RPC_POS_CMD1];
//  915   pBuf += MT_RPC_FRAME_HDR_SZ;
//  916 
//  917   /* network address */
//  918   shortAddr = osal_build_uint16( pBuf );
//  919   pBuf += 2;
//  920 
//  921   /* extended address */
//  922   pIEEEAddr = pBuf;
//  923   pBuf += Z_EXTADDR_LEN;
//  924 
//  925   retValue = (uint8)ZDP_DeviceAnnce( shortAddr, pIEEEAddr, *pBuf, 0);
//  926 
//  927   MT_BuildAndSendZToolResponse(((uint8)MT_RPC_CMD_SRSP | (uint8)MT_RPC_SYS_ZDO), cmdId, 1, &retValue);
//  928 }
//  929 
//  930 /***************************************************************************************************
//  931  * @fn      MT_ZdoUserDescSet
//  932  *
//  933  * @brief   Handle a User Descriptor Set.
//  934  *
//  935  * @param   pBuf  - MT message data
//  936  *
//  937  * @return  void
//  938  ***************************************************************************************************/
//  939 static void MT_ZdoUserDescSet(uint8 *pBuf)
//  940 {
//  941   uint8 cmdId;
//  942   uint8 retValue;
//  943   zAddrType_t destAddr;
//  944   uint16 shortAddr;
//  945   UserDescriptorFormat_t userDesc;
//  946 
//  947   /* parse header */
//  948   cmdId = pBuf[MT_RPC_POS_CMD1];
//  949   pBuf += MT_RPC_FRAME_HDR_SZ;
//  950 
//  951   /* Dev address */
//  952   destAddr.addrMode = Addr16Bit;
//  953   destAddr.addr.shortAddr = osal_build_uint16( pBuf );
//  954   pBuf += 2;
//  955 
//  956   /* Network address of interest */
//  957   shortAddr = osal_build_uint16( pBuf );
//  958   pBuf += 2;
//  959 
//  960   /* User descriptor */
//  961   userDesc.len = *pBuf++;
//  962   osal_memcpy( userDesc.desc, pBuf, userDesc.len );
//  963 
//  964   retValue = (uint8)ZDP_UserDescSet( &destAddr, shortAddr, &userDesc, 0);
//  965 
//  966   MT_BuildAndSendZToolResponse(((uint8)MT_RPC_CMD_SRSP | (uint8)MT_RPC_SYS_ZDO), cmdId, 1, &retValue);
//  967 }
//  968 
//  969 /***************************************************************************************************
//  970  * @fn      MT_ZdoServiceDiscRequest
//  971  *
//  972  * @brief   Handle a Server Discovery request.
//  973  *
//  974  * @param   pBuf  - MT message data
//  975  *
//  976  * @return  void
//  977  ***************************************************************************************************/
//  978 static void MT_ZdoServiceDiscRequest(uint8 *pBuf)
//  979 {
//  980   uint8 cmdId;
//  981   uint8 retValue;
//  982   uint16 serviceMask;
//  983 
//  984   /* parse header */
//  985   cmdId = pBuf[MT_RPC_POS_CMD1];
//  986   pBuf += MT_RPC_FRAME_HDR_SZ;
//  987 
//  988   /* Service Mask */
//  989   serviceMask = osal_build_uint16( pBuf );
//  990 
//  991   retValue = (uint8)ZDP_ServerDiscReq( serviceMask, 0);
//  992 
//  993   MT_BuildAndSendZToolResponse(((uint8)MT_RPC_CMD_SRSP | (uint8)MT_RPC_SYS_ZDO), cmdId, 1, &retValue);
//  994 }
//  995 
//  996 /***************************************************************************************************
//  997  * @fn      MT_ZdoEndDevBindRequest
//  998  *
//  999  * @brief   Handle a End Device Bind request.
// 1000  *
// 1001  * @param   pBuf  - MT message data
// 1002  *
// 1003  * @return  void
// 1004  ***************************************************************************************************/

        RSEG BANKED_CODE:CODE:NOROOT(0)
// 1005 static void MT_ZdoEndDevBindRequest(uint8 *pBuf)
MT_ZdoEndDevBindRequest:
          CFI Block cfiBlock31 Using cfiCommon0
          CFI Function MT_ZdoEndDevBindRequest
        CODE
// 1006 {
        FUNCALL MT_ZdoEndDevBindRequest, osal_build_uint16
        LOCFRAME ISTACK, 0, STACK
        LOCFRAME PSTACK, 0, STACK
        LOCFRAME XSTACK, 90, STACK
        LOCFRAME IOVERLAY, 0, STATIC
        LOCFRAME DOVERLAY, 0, STATIC
        ARGFRAME ISTACK, 0, STACK
        ARGFRAME PSTACK, 0, STACK
        ARGFRAME XSTACK, 90, STACK
        ARGFRAME IOVERLAY, 0, STATIC
        ARGFRAME DOVERLAY, 0, STATIC
        FUNCALL MT_ZdoEndDevBindRequest, osal_build_uint16
        LOCFRAME ISTACK, 0, STACK
        LOCFRAME PSTACK, 0, STACK
        LOCFRAME XSTACK, 90, STACK
        LOCFRAME IOVERLAY, 0, STATIC
        LOCFRAME DOVERLAY, 0, STATIC
        ARGFRAME ISTACK, 0, STACK
        ARGFRAME PSTACK, 0, STACK
        ARGFRAME XSTACK, 90, STACK
        ARGFRAME IOVERLAY, 0, STATIC
        ARGFRAME DOVERLAY, 0, STATIC
        FUNCALL MT_ZdoEndDevBindRequest, osal_build_uint16
        LOCFRAME ISTACK, 0, STACK
        LOCFRAME PSTACK, 0, STACK
        LOCFRAME XSTACK, 90, STACK
        LOCFRAME IOVERLAY, 0, STATIC
        LOCFRAME DOVERLAY, 0, STATIC
        ARGFRAME ISTACK, 0, STACK
        ARGFRAME PSTACK, 0, STACK
        ARGFRAME XSTACK, 90, STACK
        ARGFRAME IOVERLAY, 0, STATIC
        ARGFRAME DOVERLAY, 0, STATIC
        FUNCALL MT_ZdoEndDevBindRequest, osal_build_uint16
        LOCFRAME ISTACK, 0, STACK
        LOCFRAME PSTACK, 0, STACK
        LOCFRAME XSTACK, 90, STACK
        LOCFRAME IOVERLAY, 0, STATIC
        LOCFRAME DOVERLAY, 0, STATIC
        ARGFRAME ISTACK, 0, STACK
        ARGFRAME PSTACK, 0, STACK
        ARGFRAME XSTACK, 90, STACK
        ARGFRAME IOVERLAY, 0, STATIC
        ARGFRAME DOVERLAY, 0, STATIC
        FUNCALL MT_ZdoEndDevBindRequest, osal_build_uint16
        LOCFRAME ISTACK, 0, STACK
        LOCFRAME PSTACK, 0, STACK
        LOCFRAME XSTACK, 90, STACK
        LOCFRAME IOVERLAY, 0, STATIC
        LOCFRAME DOVERLAY, 0, STATIC
        ARGFRAME ISTACK, 0, STACK
        ARGFRAME PSTACK, 0, STACK
        ARGFRAME XSTACK, 90, STACK
        ARGFRAME IOVERLAY, 0, STATIC
        ARGFRAME DOVERLAY, 0, STATIC
        FUNCALL MT_ZdoEndDevBindRequest, ZDP_EndDeviceBindReq
        LOCFRAME ISTACK, 0, STACK
        LOCFRAME PSTACK, 0, STACK
        LOCFRAME XSTACK, 99, STACK
        LOCFRAME IOVERLAY, 0, STATIC
        LOCFRAME DOVERLAY, 0, STATIC
        ARGFRAME ISTACK, 0, STACK
        ARGFRAME PSTACK, 0, STACK
        ARGFRAME XSTACK, 99, STACK
        ARGFRAME IOVERLAY, 0, STATIC
        ARGFRAME DOVERLAY, 0, STATIC
        FUNCALL MT_ZdoEndDevBindRequest, MT_BuildAndSendZToolResponse
        LOCFRAME ISTACK, 0, STACK
        LOCFRAME PSTACK, 0, STACK
        LOCFRAME XSTACK, 90, STACK
        LOCFRAME IOVERLAY, 0, STATIC
        LOCFRAME DOVERLAY, 0, STATIC
        ARGFRAME ISTACK, 0, STACK
        ARGFRAME PSTACK, 0, STACK
        ARGFRAME XSTACK, 90, STACK
        ARGFRAME IOVERLAY, 0, STATIC
        ARGFRAME DOVERLAY, 0, STATIC
        REQUIRE ?V0
        REQUIRE ?V1
        REQUIRE ?V2
        REQUIRE ?V3
        REQUIRE ?V4
        REQUIRE ?V5
        REQUIRE ?V6
        REQUIRE ?V7
        REQUIRE ?V8
        REQUIRE ?V9
        REQUIRE ?V10
        REQUIRE ?V11
        MOV     A,#-0x14
        LCALL   ?BANKED_ENTER_XDATA
          CFI DPH0 load(1, XDATA, add(CFA_XSP16, literal(-1)))
          CFI DPL0 load(1, XDATA, add(CFA_XSP16, literal(-2)))
          CFI ?BRET_EXT load(1, XDATA, add(CFA_XSP16, literal(-3)))
          CFI ?RET_HIGH load(1, XDATA, add(CFA_XSP16, literal(-4)))
          CFI ?RET_LOW load(1, XDATA, add(CFA_XSP16, literal(-5)))
          CFI R7 load(1, XDATA, add(CFA_XSP16, literal(-6)))
          CFI V11 load(1, XDATA, add(CFA_XSP16, literal(-7)))
          CFI V10 load(1, XDATA, add(CFA_XSP16, literal(-8)))
          CFI V9 load(1, XDATA, add(CFA_XSP16, literal(-9)))
          CFI V8 load(1, XDATA, add(CFA_XSP16, literal(-10)))
          CFI V7 load(1, XDATA, add(CFA_XSP16, literal(-11)))
          CFI V6 load(1, XDATA, add(CFA_XSP16, literal(-12)))
          CFI V5 load(1, XDATA, add(CFA_XSP16, literal(-13)))
          CFI V4 load(1, XDATA, add(CFA_XSP16, literal(-14)))
          CFI V3 load(1, XDATA, add(CFA_XSP16, literal(-15)))
          CFI V2 load(1, XDATA, add(CFA_XSP16, literal(-16)))
          CFI V1 load(1, XDATA, add(CFA_XSP16, literal(-17)))
          CFI V0 load(1, XDATA, add(CFA_XSP16, literal(-18)))
          CFI VB load(1, XDATA, add(CFA_XSP16, literal(-19)))
          CFI R6 load(1, XDATA, add(CFA_XSP16, literal(-20)))
          CFI CFA_SP SP+0
          CFI CFA_XSP16 add(XSP16, 20)
        ; Saved register size: 20
        ; Auto size: 70
        MOV     A,#-0x46
        LCALL   ?ALLOC_XSTACK8
          CFI CFA_XSP16 add(XSP16, 90)
        LCALL   ?Subroutine27 & 0xFFFF
// 1007   uint8 cmdId;
// 1008   uint8 retValue = 0;
// 1009   uint8 i, epInt, numInClusters, numOutClusters;
// 1010   zAddrType_t destAddr;
// 1011   uint16 shortAddr;
// 1012   uint16 profileID, inClusters[MTZDO_MAX_ED_BIND_CLUSTERS], outClusters[MTZDO_MAX_ED_BIND_CLUSTERS];
// 1013 
// 1014   /* parse header */
// 1015   cmdId = pBuf[MT_RPC_POS_CMD1];
??CrossCallReturnLabel_60:
        MOV     ?V2,A
// 1016   pBuf += MT_RPC_FRAME_HDR_SZ;
        MOV     A,R6
        ADD     A,#0x3
        MOV     R6,A
        JNC     ??MT_ZdoEndDevBindRequest_0
        INC     R7
// 1017 
// 1018   /* Dev address */
// 1019   destAddr.addrMode = Addr16Bit;
??MT_ZdoEndDevBindRequest_0:
        MOV     A,#0x9
        LCALL   ?XSTACK_DISP0_8
        LCALL   ?Subroutine19 & 0xFFFF
// 1020   destAddr.addr.shortAddr = osal_build_uint16( pBuf );
??CrossCallReturnLabel_37:
        LCALL   `??osal_build_uint16::?relay`; Banked call to: osal_build_uint16
        MOV     A,#0x1
        LCALL   ?XSTACK_DISP0_8
        LCALL   ??Subroutine40_0 & 0xFFFF
// 1021   pBuf += 2;
??CrossCallReturnLabel_86:
        JNC     ??MT_ZdoEndDevBindRequest_1
        INC     R7
// 1022 
// 1023   /* Local coordinator of the binding */
// 1024   shortAddr = osal_build_uint16( pBuf );
??MT_ZdoEndDevBindRequest_1:
        ; Setup parameters for call to function osal_build_uint16
        MOV     R2,A
        MOV     A,R7
        MOV     R3,A
        LCALL   `??osal_build_uint16::?relay`; Banked call to: osal_build_uint16
        MOV     ?V0,R2
        MOV     ?V1,R3
// 1025   pBuf += 2;
// 1026 
// 1027   /* For now, skip past the extended address */
// 1028   pBuf += Z_EXTADDR_LEN;
// 1029 
// 1030   /* Endpoint */
// 1031   epInt = *pBuf++;
        MOV     DPL,R6
        MOV     DPH,R7
        INC     DPTR
        INC     DPTR
        INC     DPTR
        INC     DPTR
        INC     DPTR
        INC     DPTR
        INC     DPTR
        INC     DPTR
        INC     DPTR
        INC     DPTR
        MOVX    A,@DPTR
        MOV     ?V3,A
        MOV     A,R6
        ADD     A,#0xb
        MOV     R6,A
        JNC     ??MT_ZdoEndDevBindRequest_2
        INC     R7
// 1032 
// 1033   /* Profile ID */
// 1034   profileID = osal_build_uint16( pBuf );
??MT_ZdoEndDevBindRequest_2:
        ; Setup parameters for call to function osal_build_uint16
        MOV     R2,A
        MOV     A,R7
        MOV     R3,A
        LCALL   `??osal_build_uint16::?relay`; Banked call to: osal_build_uint16
        MOV     ?V6,R2
        MOV     ?V7,R3
// 1035   pBuf += 2;
// 1036 
// 1037   /* NumInClusters */
// 1038   numInClusters = *pBuf++;
        MOV     DPL,R6
        MOV     DPH,R7
        INC     DPTR
        INC     DPTR
        MOVX    A,@DPTR
        MOV     ?V4,A
        MOV     A,R6
        ADD     A,#0x3
        MOV     R6,A
        JNC     ??MT_ZdoEndDevBindRequest_3
        INC     R7
// 1039   if ( numInClusters <= MTZDO_MAX_ED_BIND_CLUSTERS )
??MT_ZdoEndDevBindRequest_3:
        MOV     A,?V4
        CLR     C
        SUBB    A,#0x10
        JNC     ??MT_ZdoEndDevBindRequest_4
// 1040   {
// 1041     for ( i = 0; i < numInClusters; i++ )
        MOV     ?V5,#0x0
??MT_ZdoEndDevBindRequest_5:
        MOV     A,?V5
        CLR     C
        SUBB    A,?V4
        JNC     ??MT_ZdoEndDevBindRequest_6
// 1042     {
// 1043       inClusters[i] = osal_build_uint16( pBuf );
        ; Setup parameters for call to function osal_build_uint16
        MOV     A,R6
        MOV     R2,A
        MOV     A,R7
        MOV     R3,A
        LCALL   `??osal_build_uint16::?relay`; Banked call to: osal_build_uint16
        MOV     R0,?V5
        LCALL   ??Subroutine39_0 & 0xFFFF
// 1044       pBuf += 2;
// 1045     }
??CrossCallReturnLabel_76:
        MOV     A,#0x28
        LCALL   ?XSTACK_DISP0_8
        LCALL   ?Subroutine18 & 0xFFFF
??CrossCallReturnLabel_82:
        JNC     ??MT_ZdoEndDevBindRequest_7
        INC     R7
??MT_ZdoEndDevBindRequest_7:
        INC     ?V5
        SJMP    ??MT_ZdoEndDevBindRequest_5
// 1046   }
// 1047   else
// 1048   {
// 1049     retValue = ZDP_INVALID_REQTYPE;
??MT_ZdoEndDevBindRequest_4:
        MOV     DPL,?XSP + 0
        MOV     DPH,?XSP + 1
        MOV     A,#-0x80
        MOVX    @DPTR,A
// 1050   }
// 1051 
// 1052   /* NumOutClusters */
// 1053   numOutClusters = *pBuf++;
??MT_ZdoEndDevBindRequest_6:
        MOV     DPL,R6
        MOV     DPH,R7
        MOVX    A,@DPTR
        MOV     ?V8,A
        INC     DPTR
        MOV     R6,DPL
        MOV     R7,DPH
// 1054   if ( numOutClusters <= MTZDO_MAX_ED_BIND_CLUSTERS )
        CLR     C
        SUBB    A,#0x10
        JNC     ??MT_ZdoEndDevBindRequest_8
// 1055   {
// 1056     for ( i = 0; i < numOutClusters; i++ )
        MOV     ?V5,#0x0
??MT_ZdoEndDevBindRequest_9:
        MOV     A,?V5
        CLR     C
        SUBB    A,?V8
        JNC     ??MT_ZdoEndDevBindRequest_10
// 1057     {
// 1058       outClusters[i] = osal_build_uint16( pBuf );
        ; Setup parameters for call to function osal_build_uint16
        MOV     A,R6
        MOV     R2,A
        MOV     A,R7
        MOV     R3,A
        LCALL   `??osal_build_uint16::?relay`; Banked call to: osal_build_uint16
        MOV     R0,?V5
        LCALL   ??Subroutine39_0 & 0xFFFF
// 1059       pBuf += 2;
// 1060     }
??CrossCallReturnLabel_77:
        MOV     A,#0xa
        LCALL   ?XSTACK_DISP0_8
        LCALL   ?Subroutine18 & 0xFFFF
??CrossCallReturnLabel_83:
        JNC     ??MT_ZdoEndDevBindRequest_11
        INC     R7
??MT_ZdoEndDevBindRequest_11:
        INC     ?V5
        SJMP    ??MT_ZdoEndDevBindRequest_9
// 1061   }
// 1062   else
// 1063   {
// 1064     retValue = ZDP_INVALID_REQTYPE;
??MT_ZdoEndDevBindRequest_8:
        MOV     DPL,?XSP + 0
        MOV     DPH,?XSP + 1
        MOV     A,#-0x80
        SJMP    ??MT_ZdoEndDevBindRequest_12
// 1065   }
// 1066 
// 1067   if ( retValue == 0 )
??MT_ZdoEndDevBindRequest_10:
        MOV     DPL,?XSP + 0
        MOV     DPH,?XSP + 1
        MOVX    A,@DPTR
        JNZ     ??MT_ZdoEndDevBindRequest_13
// 1068   {
// 1069     retValue = (uint8)ZDP_EndDeviceBindReq( &destAddr, shortAddr, epInt, profileID,
// 1070                                           numInClusters, inClusters, numOutClusters, outClusters, 0);
        ; Setup parameters for call to function ZDP_EndDeviceBindReq
        MOV     ?V5,#0x0
        MOV     R0,#?V5
        LCALL   ?PUSH_XSTACK_I_ONE
          CFI CFA_XSP16 add(XSP16, 91)
        MOV     A,#0xb
        LCALL   ?XSTACK_DISP100_8
        MOV     ?V10,R0
        MOV     ?V11,R1
        MOV     R0,#?V10
        LCALL   ?PUSH_XSTACK_I_TWO
          CFI CFA_XSP16 add(XSP16, 93)
        MOV     A,?V8
        MOV     ?V5,A
        MOV     R0,#?V5
        LCALL   ?PUSH_XSTACK_I_ONE
          CFI CFA_XSP16 add(XSP16, 94)
        MOV     A,#0x2c
        LCALL   ?XSTACK_DISP100_8
        MOV     ?V8,R0
        MOV     ?V9,R1
        MOV     R0,#?V8
        LCALL   ?PUSH_XSTACK_I_TWO
          CFI CFA_XSP16 add(XSP16, 96)
        MOV     R0,#?V4
        LCALL   ?PUSH_XSTACK_I_ONE
          CFI CFA_XSP16 add(XSP16, 97)
        MOV     R0,#?V6
        LCALL   ?PUSH_XSTACK_I_TWO
          CFI CFA_XSP16 add(XSP16, 99)
        MOV     R1,?V3
        MOV     R4,?V0
        MOV     R5,?V1
        MOV     A,#0xa
        LCALL   ?XSTACK_DISP101_8
        LCALL   `??ZDP_EndDeviceBindReq::?relay`; Banked call to: ZDP_EndDeviceBindReq
        MOV     A,#0x9
        LCALL   ?DEALLOC_XSTACK8
          CFI CFA_XSP16 add(XSP16, 90)
        MOV     A,R1
        MOV     DPL,?XSP + 0
        MOV     DPH,?XSP + 1
??MT_ZdoEndDevBindRequest_12:
        MOVX    @DPTR,A
// 1071   }
// 1072 
// 1073   MT_BuildAndSendZToolResponse(((uint8)MT_RPC_CMD_SRSP | (uint8)MT_RPC_SYS_ZDO), cmdId, 1, &retValue);
??MT_ZdoEndDevBindRequest_13:
        ; Setup parameters for call to function MT_BuildAndSendZToolResponse
        MOV     R4,?XSP + 0
        MOV     R5,?XSP + 1
        MOV     R3,#0x1
        MOV     R2,?V2
        MOV     R1,#0x65
        LCALL   `??MT_BuildAndSendZToolResponse::?relay`; Banked call to: MT_BuildAndSendZToolResponse
// 1074 }
        MOV     A,#0x46
        LCALL   ?DEALLOC_XSTACK8
          CFI CFA_XSP16 add(XSP16, 20)
        MOV     R7,#0xc
        LJMP    ?BANKED_LEAVE_XDATA
          CFI EndBlock cfiBlock31

        RSEG BANKED_CODE:CODE:NOROOT(0)
?Subroutine27:
          CFI Block cfiCond32 Using cfiCommon0
          CFI Function MT_ZdoMatchDescRequest
          CFI Conditional ??CrossCallReturnLabel_59
          CFI R6 load(1, XDATA, add(CFA_XSP16, literal(-18)))
          CFI VB load(1, XDATA, add(CFA_XSP16, literal(-17)))
          CFI V0 load(1, XDATA, add(CFA_XSP16, literal(-16)))
          CFI V1 load(1, XDATA, add(CFA_XSP16, literal(-15)))
          CFI V2 load(1, XDATA, add(CFA_XSP16, literal(-14)))
          CFI V3 load(1, XDATA, add(CFA_XSP16, literal(-13)))
          CFI V4 load(1, XDATA, add(CFA_XSP16, literal(-12)))
          CFI V5 load(1, XDATA, add(CFA_XSP16, literal(-11)))
          CFI V6 load(1, XDATA, add(CFA_XSP16, literal(-10)))
          CFI V7 load(1, XDATA, add(CFA_XSP16, literal(-9)))
          CFI V8 load(1, XDATA, add(CFA_XSP16, literal(-8)))
          CFI V9 load(1, XDATA, add(CFA_XSP16, literal(-7)))
          CFI R7 load(1, XDATA, add(CFA_XSP16, literal(-6)))
          CFI ?RET_LOW load(1, XDATA, add(CFA_XSP16, literal(-5)))
          CFI ?RET_HIGH load(1, XDATA, add(CFA_XSP16, literal(-4)))
          CFI ?BRET_EXT load(1, XDATA, add(CFA_XSP16, literal(-3)))
          CFI DPL0 load(1, XDATA, add(CFA_XSP16, literal(-2)))
          CFI DPH0 load(1, XDATA, add(CFA_XSP16, literal(-1)))
          CFI CFA_SP SP+-2
          CFI CFA_XSP16 add(XSP16, 92)
          CFI Block cfiCond33 Using cfiCommon0
          CFI (cfiCond33) Function MT_ZdoEndDevBindRequest
          CFI (cfiCond33) Conditional ??CrossCallReturnLabel_60
          CFI (cfiCond33) R6 load(1, XDATA, add(CFA_XSP16, literal(-20)))
          CFI (cfiCond33) VB load(1, XDATA, add(CFA_XSP16, literal(-19)))
          CFI (cfiCond33) V0 load(1, XDATA, add(CFA_XSP16, literal(-18)))
          CFI (cfiCond33) V1 load(1, XDATA, add(CFA_XSP16, literal(-17)))
          CFI (cfiCond33) V2 load(1, XDATA, add(CFA_XSP16, literal(-16)))
          CFI (cfiCond33) V3 load(1, XDATA, add(CFA_XSP16, literal(-15)))
          CFI (cfiCond33) V4 load(1, XDATA, add(CFA_XSP16, literal(-14)))
          CFI (cfiCond33) V5 load(1, XDATA, add(CFA_XSP16, literal(-13)))
          CFI (cfiCond33) V6 load(1, XDATA, add(CFA_XSP16, literal(-12)))
          CFI (cfiCond33) V7 load(1, XDATA, add(CFA_XSP16, literal(-11)))
          CFI (cfiCond33) V8 load(1, XDATA, add(CFA_XSP16, literal(-10)))
          CFI (cfiCond33) V9 load(1, XDATA, add(CFA_XSP16, literal(-9)))
          CFI (cfiCond33) V10 load(1, XDATA, add(CFA_XSP16, literal(-8)))
          CFI (cfiCond33) V11 load(1, XDATA, add(CFA_XSP16, literal(-7)))
          CFI (cfiCond33) R7 load(1, XDATA, add(CFA_XSP16, literal(-6)))
          CFI (cfiCond33) ?RET_LOW load(1, XDATA, add(CFA_XSP16, literal(-5)))
          CFI (cfiCond33) ?RET_HIGH load(1, XDATA, add(CFA_XSP16, literal(-4)))
          CFI (cfiCond33) ?BRET_EXT load(1, XDATA, add(CFA_XSP16, literal(-3)))
          CFI (cfiCond33) DPL0 load(1, XDATA, add(CFA_XSP16, literal(-2)))
          CFI (cfiCond33) DPH0 load(1, XDATA, add(CFA_XSP16, literal(-1)))
          CFI (cfiCond33) CFA_SP SP+-2
          CFI (cfiCond33) CFA_XSP16 add(XSP16, 90)
          CFI Block cfiPicker34 Using cfiCommon1
          CFI (cfiPicker34) NoFunction
          CFI (cfiPicker34) Picker
        MOV     A,R2
        MOV     R6,A
        MOV     A,R3
        MOV     R7,A
        MOV     DPL,?XSP + 0
        MOV     DPH,?XSP + 1
        CLR     A
        MOVX    @DPTR,A
        MOV     DPL,R6
        MOV     DPH,R7
        INC     DPTR
        INC     DPTR
        MOVX    A,@DPTR
        RET
          CFI EndBlock cfiCond32
          CFI EndBlock cfiCond33
          CFI EndBlock cfiPicker34

        RSEG BANKED_CODE:CODE:NOROOT(0)
?Subroutine18:
          CFI Block cfiCond35 Using cfiCommon0
          CFI Function MT_ZdoMatchDescRequest
          CFI Conditional ??CrossCallReturnLabel_80
          CFI R6 load(1, XDATA, add(CFA_XSP16, literal(-18)))
          CFI VB load(1, XDATA, add(CFA_XSP16, literal(-17)))
          CFI V0 load(1, XDATA, add(CFA_XSP16, literal(-16)))
          CFI V1 load(1, XDATA, add(CFA_XSP16, literal(-15)))
          CFI V2 load(1, XDATA, add(CFA_XSP16, literal(-14)))
          CFI V3 load(1, XDATA, add(CFA_XSP16, literal(-13)))
          CFI V4 load(1, XDATA, add(CFA_XSP16, literal(-12)))
          CFI V5 load(1, XDATA, add(CFA_XSP16, literal(-11)))
          CFI V6 load(1, XDATA, add(CFA_XSP16, literal(-10)))
          CFI V7 load(1, XDATA, add(CFA_XSP16, literal(-9)))
          CFI V8 load(1, XDATA, add(CFA_XSP16, literal(-8)))
          CFI V9 load(1, XDATA, add(CFA_XSP16, literal(-7)))
          CFI R7 load(1, XDATA, add(CFA_XSP16, literal(-6)))
          CFI ?RET_LOW load(1, XDATA, add(CFA_XSP16, literal(-5)))
          CFI ?RET_HIGH load(1, XDATA, add(CFA_XSP16, literal(-4)))
          CFI ?BRET_EXT load(1, XDATA, add(CFA_XSP16, literal(-3)))
          CFI DPL0 load(1, XDATA, add(CFA_XSP16, literal(-2)))
          CFI DPH0 load(1, XDATA, add(CFA_XSP16, literal(-1)))
          CFI CFA_SP SP+-2
          CFI CFA_XSP16 add(XSP16, 92)
          CFI Block cfiCond36 Using cfiCommon0
          CFI (cfiCond36) Function MT_ZdoMatchDescRequest
          CFI (cfiCond36) Conditional ??CrossCallReturnLabel_81
          CFI (cfiCond36) R6 load(1, XDATA, add(CFA_XSP16, literal(-18)))
          CFI (cfiCond36) VB load(1, XDATA, add(CFA_XSP16, literal(-17)))
          CFI (cfiCond36) V0 load(1, XDATA, add(CFA_XSP16, literal(-16)))
          CFI (cfiCond36) V1 load(1, XDATA, add(CFA_XSP16, literal(-15)))
          CFI (cfiCond36) V2 load(1, XDATA, add(CFA_XSP16, literal(-14)))
          CFI (cfiCond36) V3 load(1, XDATA, add(CFA_XSP16, literal(-13)))
          CFI (cfiCond36) V4 load(1, XDATA, add(CFA_XSP16, literal(-12)))
          CFI (cfiCond36) V5 load(1, XDATA, add(CFA_XSP16, literal(-11)))
          CFI (cfiCond36) V6 load(1, XDATA, add(CFA_XSP16, literal(-10)))
          CFI (cfiCond36) V7 load(1, XDATA, add(CFA_XSP16, literal(-9)))
          CFI (cfiCond36) V8 load(1, XDATA, add(CFA_XSP16, literal(-8)))
          CFI (cfiCond36) V9 load(1, XDATA, add(CFA_XSP16, literal(-7)))
          CFI (cfiCond36) R7 load(1, XDATA, add(CFA_XSP16, literal(-6)))
          CFI (cfiCond36) ?RET_LOW load(1, XDATA, add(CFA_XSP16, literal(-5)))
          CFI (cfiCond36) ?RET_HIGH load(1, XDATA, add(CFA_XSP16, literal(-4)))
          CFI (cfiCond36) ?BRET_EXT load(1, XDATA, add(CFA_XSP16, literal(-3)))
          CFI (cfiCond36) DPL0 load(1, XDATA, add(CFA_XSP16, literal(-2)))
          CFI (cfiCond36) DPH0 load(1, XDATA, add(CFA_XSP16, literal(-1)))
          CFI (cfiCond36) CFA_SP SP+-2
          CFI (cfiCond36) CFA_XSP16 add(XSP16, 92)
          CFI Block cfiCond37 Using cfiCommon0
          CFI (cfiCond37) Function MT_ZdoEndDevBindRequest
          CFI (cfiCond37) Conditional ??CrossCallReturnLabel_82
          CFI (cfiCond37) R6 load(1, XDATA, add(CFA_XSP16, literal(-20)))
          CFI (cfiCond37) VB load(1, XDATA, add(CFA_XSP16, literal(-19)))
          CFI (cfiCond37) V0 load(1, XDATA, add(CFA_XSP16, literal(-18)))
          CFI (cfiCond37) V1 load(1, XDATA, add(CFA_XSP16, literal(-17)))
          CFI (cfiCond37) V2 load(1, XDATA, add(CFA_XSP16, literal(-16)))
          CFI (cfiCond37) V3 load(1, XDATA, add(CFA_XSP16, literal(-15)))
          CFI (cfiCond37) V4 load(1, XDATA, add(CFA_XSP16, literal(-14)))
          CFI (cfiCond37) V5 load(1, XDATA, add(CFA_XSP16, literal(-13)))
          CFI (cfiCond37) V6 load(1, XDATA, add(CFA_XSP16, literal(-12)))
          CFI (cfiCond37) V7 load(1, XDATA, add(CFA_XSP16, literal(-11)))
          CFI (cfiCond37) V8 load(1, XDATA, add(CFA_XSP16, literal(-10)))
          CFI (cfiCond37) V9 load(1, XDATA, add(CFA_XSP16, literal(-9)))
          CFI (cfiCond37) V10 load(1, XDATA, add(CFA_XSP16, literal(-8)))
          CFI (cfiCond37) V11 load(1, XDATA, add(CFA_XSP16, literal(-7)))
          CFI (cfiCond37) R7 load(1, XDATA, add(CFA_XSP16, literal(-6)))
          CFI (cfiCond37) ?RET_LOW load(1, XDATA, add(CFA_XSP16, literal(-5)))
          CFI (cfiCond37) ?RET_HIGH load(1, XDATA, add(CFA_XSP16, literal(-4)))
          CFI (cfiCond37) ?BRET_EXT load(1, XDATA, add(CFA_XSP16, literal(-3)))
          CFI (cfiCond37) DPL0 load(1, XDATA, add(CFA_XSP16, literal(-2)))
          CFI (cfiCond37) DPH0 load(1, XDATA, add(CFA_XSP16, literal(-1)))
          CFI (cfiCond37) CFA_SP SP+-2
          CFI (cfiCond37) CFA_XSP16 add(XSP16, 90)
          CFI Block cfiCond38 Using cfiCommon0
          CFI (cfiCond38) Function MT_ZdoEndDevBindRequest
          CFI (cfiCond38) Conditional ??CrossCallReturnLabel_83
          CFI (cfiCond38) R6 load(1, XDATA, add(CFA_XSP16, literal(-20)))
          CFI (cfiCond38) VB load(1, XDATA, add(CFA_XSP16, literal(-19)))
          CFI (cfiCond38) V0 load(1, XDATA, add(CFA_XSP16, literal(-18)))
          CFI (cfiCond38) V1 load(1, XDATA, add(CFA_XSP16, literal(-17)))
          CFI (cfiCond38) V2 load(1, XDATA, add(CFA_XSP16, literal(-16)))
          CFI (cfiCond38) V3 load(1, XDATA, add(CFA_XSP16, literal(-15)))
          CFI (cfiCond38) V4 load(1, XDATA, add(CFA_XSP16, literal(-14)))
          CFI (cfiCond38) V5 load(1, XDATA, add(CFA_XSP16, literal(-13)))
          CFI (cfiCond38) V6 load(1, XDATA, add(CFA_XSP16, literal(-12)))
          CFI (cfiCond38) V7 load(1, XDATA, add(CFA_XSP16, literal(-11)))
          CFI (cfiCond38) V8 load(1, XDATA, add(CFA_XSP16, literal(-10)))
          CFI (cfiCond38) V9 load(1, XDATA, add(CFA_XSP16, literal(-9)))
          CFI (cfiCond38) V10 load(1, XDATA, add(CFA_XSP16, literal(-8)))
          CFI (cfiCond38) V11 load(1, XDATA, add(CFA_XSP16, literal(-7)))
          CFI (cfiCond38) R7 load(1, XDATA, add(CFA_XSP16, literal(-6)))
          CFI (cfiCond38) ?RET_LOW load(1, XDATA, add(CFA_XSP16, literal(-5)))
          CFI (cfiCond38) ?RET_HIGH load(1, XDATA, add(CFA_XSP16, literal(-4)))
          CFI (cfiCond38) ?BRET_EXT load(1, XDATA, add(CFA_XSP16, literal(-3)))
          CFI (cfiCond38) DPL0 load(1, XDATA, add(CFA_XSP16, literal(-2)))
          CFI (cfiCond38) DPH0 load(1, XDATA, add(CFA_XSP16, literal(-1)))
          CFI (cfiCond38) CFA_SP SP+-2
          CFI (cfiCond38) CFA_XSP16 add(XSP16, 90)
          CFI Block cfiPicker39 Using cfiCommon1
          CFI (cfiPicker39) NoFunction
          CFI (cfiPicker39) Picker
        MOV     A,DPL
        ADD     A,R0
        MOV     DPL,A
        MOV     A,DPH
        ADDC    A,R1
        MOV     DPH,A
          CFI EndBlock cfiCond35
          CFI EndBlock cfiCond36
          CFI EndBlock cfiCond37
          CFI EndBlock cfiCond38
          CFI EndBlock cfiPicker39
        REQUIRE ??Subroutine40_0
        ; // Fall through to label ??Subroutine40_0

        RSEG BANKED_CODE:CODE:NOROOT(0)
??Subroutine40_0:
          CFI Block cfiCond40 Using cfiCommon0
          CFI Function MT_ZdoCommandProcessing
          CFI Conditional ??CrossCallReturnLabel_84
          CFI R6 load(1, XDATA, add(CFA_XSP16, literal(-24)))
          CFI VB load(1, XDATA, add(CFA_XSP16, literal(-23)))
          CFI V0 load(1, XDATA, add(CFA_XSP16, literal(-22)))
          CFI V1 load(1, XDATA, add(CFA_XSP16, literal(-21)))
          CFI V2 load(1, XDATA, add(CFA_XSP16, literal(-20)))
          CFI V3 load(1, XDATA, add(CFA_XSP16, literal(-19)))
          CFI V4 load(1, XDATA, add(CFA_XSP16, literal(-18)))
          CFI V5 load(1, XDATA, add(CFA_XSP16, literal(-17)))
          CFI V6 load(1, XDATA, add(CFA_XSP16, literal(-16)))
          CFI V7 load(1, XDATA, add(CFA_XSP16, literal(-15)))
          CFI V8 load(1, XDATA, add(CFA_XSP16, literal(-14)))
          CFI V9 load(1, XDATA, add(CFA_XSP16, literal(-13)))
          CFI V10 load(1, XDATA, add(CFA_XSP16, literal(-12)))
          CFI V11 load(1, XDATA, add(CFA_XSP16, literal(-11)))
          CFI V12 load(1, XDATA, add(CFA_XSP16, literal(-10)))
          CFI V13 load(1, XDATA, add(CFA_XSP16, literal(-9)))
          CFI V14 load(1, XDATA, add(CFA_XSP16, literal(-8)))
          CFI V15 load(1, XDATA, add(CFA_XSP16, literal(-7)))
          CFI R7 load(1, XDATA, add(CFA_XSP16, literal(-6)))
          CFI ?RET_LOW load(1, XDATA, add(CFA_XSP16, literal(-5)))
          CFI ?RET_HIGH load(1, XDATA, add(CFA_XSP16, literal(-4)))
          CFI ?BRET_EXT load(1, XDATA, add(CFA_XSP16, literal(-3)))
          CFI DPL0 load(1, XDATA, add(CFA_XSP16, literal(-2)))
          CFI DPH0 load(1, XDATA, add(CFA_XSP16, literal(-1)))
          CFI CFA_SP SP+-2
          CFI CFA_XSP16 add(XSP16, 52)
          CFI Block cfiCond41 Using cfiCommon0
          CFI (cfiCond41) Function MT_ZdoMatchDescRequest
          CFI (cfiCond41) Conditional ??CrossCallReturnLabel_85
          CFI (cfiCond41) R6 load(1, XDATA, add(CFA_XSP16, literal(-18)))
          CFI (cfiCond41) VB load(1, XDATA, add(CFA_XSP16, literal(-17)))
          CFI (cfiCond41) V0 load(1, XDATA, add(CFA_XSP16, literal(-16)))
          CFI (cfiCond41) V1 load(1, XDATA, add(CFA_XSP16, literal(-15)))
          CFI (cfiCond41) V2 load(1, XDATA, add(CFA_XSP16, literal(-14)))
          CFI (cfiCond41) V3 load(1, XDATA, add(CFA_XSP16, literal(-13)))
          CFI (cfiCond41) V4 load(1, XDATA, add(CFA_XSP16, literal(-12)))
          CFI (cfiCond41) V5 load(1, XDATA, add(CFA_XSP16, literal(-11)))
          CFI (cfiCond41) V6 load(1, XDATA, add(CFA_XSP16, literal(-10)))
          CFI (cfiCond41) V7 load(1, XDATA, add(CFA_XSP16, literal(-9)))
          CFI (cfiCond41) V8 load(1, XDATA, add(CFA_XSP16, literal(-8)))
          CFI (cfiCond41) V9 load(1, XDATA, add(CFA_XSP16, literal(-7)))
          CFI (cfiCond41) R7 load(1, XDATA, add(CFA_XSP16, literal(-6)))
          CFI (cfiCond41) ?RET_LOW load(1, XDATA, add(CFA_XSP16, literal(-5)))
          CFI (cfiCond41) ?RET_HIGH load(1, XDATA, add(CFA_XSP16, literal(-4)))
          CFI (cfiCond41) ?BRET_EXT load(1, XDATA, add(CFA_XSP16, literal(-3)))
          CFI (cfiCond41) DPL0 load(1, XDATA, add(CFA_XSP16, literal(-2)))
          CFI (cfiCond41) DPH0 load(1, XDATA, add(CFA_XSP16, literal(-1)))
          CFI (cfiCond41) CFA_SP SP+-2
          CFI (cfiCond41) CFA_XSP16 add(XSP16, 92)
          CFI Block cfiCond42 Using cfiCommon0
          CFI (cfiCond42) Function MT_ZdoEndDevBindRequest
          CFI (cfiCond42) Conditional ??CrossCallReturnLabel_86
          CFI (cfiCond42) R6 load(1, XDATA, add(CFA_XSP16, literal(-20)))
          CFI (cfiCond42) VB load(1, XDATA, add(CFA_XSP16, literal(-19)))
          CFI (cfiCond42) V0 load(1, XDATA, add(CFA_XSP16, literal(-18)))
          CFI (cfiCond42) V1 load(1, XDATA, add(CFA_XSP16, literal(-17)))
          CFI (cfiCond42) V2 load(1, XDATA, add(CFA_XSP16, literal(-16)))
          CFI (cfiCond42) V3 load(1, XDATA, add(CFA_XSP16, literal(-15)))
          CFI (cfiCond42) V4 load(1, XDATA, add(CFA_XSP16, literal(-14)))
          CFI (cfiCond42) V5 load(1, XDATA, add(CFA_XSP16, literal(-13)))
          CFI (cfiCond42) V6 load(1, XDATA, add(CFA_XSP16, literal(-12)))
          CFI (cfiCond42) V7 load(1, XDATA, add(CFA_XSP16, literal(-11)))
          CFI (cfiCond42) V8 load(1, XDATA, add(CFA_XSP16, literal(-10)))
          CFI (cfiCond42) V9 load(1, XDATA, add(CFA_XSP16, literal(-9)))
          CFI (cfiCond42) V10 load(1, XDATA, add(CFA_XSP16, literal(-8)))
          CFI (cfiCond42) V11 load(1, XDATA, add(CFA_XSP16, literal(-7)))
          CFI (cfiCond42) R7 load(1, XDATA, add(CFA_XSP16, literal(-6)))
          CFI (cfiCond42) ?RET_LOW load(1, XDATA, add(CFA_XSP16, literal(-5)))
          CFI (cfiCond42) ?RET_HIGH load(1, XDATA, add(CFA_XSP16, literal(-4)))
          CFI (cfiCond42) ?BRET_EXT load(1, XDATA, add(CFA_XSP16, literal(-3)))
          CFI (cfiCond42) DPL0 load(1, XDATA, add(CFA_XSP16, literal(-2)))
          CFI (cfiCond42) DPH0 load(1, XDATA, add(CFA_XSP16, literal(-1)))
          CFI (cfiCond42) CFA_SP SP+-2
          CFI (cfiCond42) CFA_XSP16 add(XSP16, 90)
          CFI Block cfiCond43 Using cfiCommon0
          CFI (cfiCond43) Function MT_ZdoNwkAddrOfInterestReq
          CFI (cfiCond43) Conditional ??CrossCallReturnLabel_87
          CFI (cfiCond43) R6 load(1, XDATA, add(CFA_XSP16, literal(-14)))
          CFI (cfiCond43) VB load(1, XDATA, add(CFA_XSP16, literal(-13)))
          CFI (cfiCond43) V0 load(1, XDATA, add(CFA_XSP16, literal(-12)))
          CFI (cfiCond43) V1 load(1, XDATA, add(CFA_XSP16, literal(-11)))
          CFI (cfiCond43) V2 load(1, XDATA, add(CFA_XSP16, literal(-10)))
          CFI (cfiCond43) V3 load(1, XDATA, add(CFA_XSP16, literal(-9)))
          CFI (cfiCond43) V4 load(1, XDATA, add(CFA_XSP16, literal(-8)))
          CFI (cfiCond43) V5 load(1, XDATA, add(CFA_XSP16, literal(-7)))
          CFI (cfiCond43) R7 load(1, XDATA, add(CFA_XSP16, literal(-6)))
          CFI (cfiCond43) ?RET_LOW load(1, XDATA, add(CFA_XSP16, literal(-5)))
          CFI (cfiCond43) ?RET_HIGH load(1, XDATA, add(CFA_XSP16, literal(-4)))
          CFI (cfiCond43) ?BRET_EXT load(1, XDATA, add(CFA_XSP16, literal(-3)))
          CFI (cfiCond43) DPL0 load(1, XDATA, add(CFA_XSP16, literal(-2)))
          CFI (cfiCond43) DPH0 load(1, XDATA, add(CFA_XSP16, literal(-1)))
          CFI (cfiCond43) CFA_SP SP+-2
          CFI (cfiCond43) CFA_XSP16 add(XSP16, 24)
          CFI Block cfiCond44 Using cfiCommon0
          CFI (cfiCond44) Function MT_ZdoMatchDescRequest
          CFI (cfiCond44) Conditional ??CrossCallReturnLabel_80
          CFI (cfiCond44) R6 load(1, XDATA, add(CFA_XSP16, literal(-18)))
          CFI (cfiCond44) VB load(1, XDATA, add(CFA_XSP16, literal(-17)))
          CFI (cfiCond44) V0 load(1, XDATA, add(CFA_XSP16, literal(-16)))
          CFI (cfiCond44) V1 load(1, XDATA, add(CFA_XSP16, literal(-15)))
          CFI (cfiCond44) V2 load(1, XDATA, add(CFA_XSP16, literal(-14)))
          CFI (cfiCond44) V3 load(1, XDATA, add(CFA_XSP16, literal(-13)))
          CFI (cfiCond44) V4 load(1, XDATA, add(CFA_XSP16, literal(-12)))
          CFI (cfiCond44) V5 load(1, XDATA, add(CFA_XSP16, literal(-11)))
          CFI (cfiCond44) V6 load(1, XDATA, add(CFA_XSP16, literal(-10)))
          CFI (cfiCond44) V7 load(1, XDATA, add(CFA_XSP16, literal(-9)))
          CFI (cfiCond44) V8 load(1, XDATA, add(CFA_XSP16, literal(-8)))
          CFI (cfiCond44) V9 load(1, XDATA, add(CFA_XSP16, literal(-7)))
          CFI (cfiCond44) R7 load(1, XDATA, add(CFA_XSP16, literal(-6)))
          CFI (cfiCond44) ?RET_LOW load(1, XDATA, add(CFA_XSP16, literal(-5)))
          CFI (cfiCond44) ?RET_HIGH load(1, XDATA, add(CFA_XSP16, literal(-4)))
          CFI (cfiCond44) ?BRET_EXT load(1, XDATA, add(CFA_XSP16, literal(-3)))
          CFI (cfiCond44) DPL0 load(1, XDATA, add(CFA_XSP16, literal(-2)))
          CFI (cfiCond44) DPH0 load(1, XDATA, add(CFA_XSP16, literal(-1)))
          CFI (cfiCond44) CFA_SP SP+-2
          CFI (cfiCond44) CFA_XSP16 add(XSP16, 92)
          CFI Block cfiCond45 Using cfiCommon0
          CFI (cfiCond45) Function MT_ZdoMatchDescRequest
          CFI (cfiCond45) Conditional ??CrossCallReturnLabel_81
          CFI (cfiCond45) R6 load(1, XDATA, add(CFA_XSP16, literal(-18)))
          CFI (cfiCond45) VB load(1, XDATA, add(CFA_XSP16, literal(-17)))
          CFI (cfiCond45) V0 load(1, XDATA, add(CFA_XSP16, literal(-16)))
          CFI (cfiCond45) V1 load(1, XDATA, add(CFA_XSP16, literal(-15)))
          CFI (cfiCond45) V2 load(1, XDATA, add(CFA_XSP16, literal(-14)))
          CFI (cfiCond45) V3 load(1, XDATA, add(CFA_XSP16, literal(-13)))
          CFI (cfiCond45) V4 load(1, XDATA, add(CFA_XSP16, literal(-12)))
          CFI (cfiCond45) V5 load(1, XDATA, add(CFA_XSP16, literal(-11)))
          CFI (cfiCond45) V6 load(1, XDATA, add(CFA_XSP16, literal(-10)))
          CFI (cfiCond45) V7 load(1, XDATA, add(CFA_XSP16, literal(-9)))
          CFI (cfiCond45) V8 load(1, XDATA, add(CFA_XSP16, literal(-8)))
          CFI (cfiCond45) V9 load(1, XDATA, add(CFA_XSP16, literal(-7)))
          CFI (cfiCond45) R7 load(1, XDATA, add(CFA_XSP16, literal(-6)))
          CFI (cfiCond45) ?RET_LOW load(1, XDATA, add(CFA_XSP16, literal(-5)))
          CFI (cfiCond45) ?RET_HIGH load(1, XDATA, add(CFA_XSP16, literal(-4)))
          CFI (cfiCond45) ?BRET_EXT load(1, XDATA, add(CFA_XSP16, literal(-3)))
          CFI (cfiCond45) DPL0 load(1, XDATA, add(CFA_XSP16, literal(-2)))
          CFI (cfiCond45) DPH0 load(1, XDATA, add(CFA_XSP16, literal(-1)))
          CFI (cfiCond45) CFA_SP SP+-2
          CFI (cfiCond45) CFA_XSP16 add(XSP16, 92)
          CFI Block cfiCond46 Using cfiCommon0
          CFI (cfiCond46) Function MT_ZdoEndDevBindRequest
          CFI (cfiCond46) Conditional ??CrossCallReturnLabel_82
          CFI (cfiCond46) R6 load(1, XDATA, add(CFA_XSP16, literal(-20)))
          CFI (cfiCond46) VB load(1, XDATA, add(CFA_XSP16, literal(-19)))
          CFI (cfiCond46) V0 load(1, XDATA, add(CFA_XSP16, literal(-18)))
          CFI (cfiCond46) V1 load(1, XDATA, add(CFA_XSP16, literal(-17)))
          CFI (cfiCond46) V2 load(1, XDATA, add(CFA_XSP16, literal(-16)))
          CFI (cfiCond46) V3 load(1, XDATA, add(CFA_XSP16, literal(-15)))
          CFI (cfiCond46) V4 load(1, XDATA, add(CFA_XSP16, literal(-14)))
          CFI (cfiCond46) V5 load(1, XDATA, add(CFA_XSP16, literal(-13)))
          CFI (cfiCond46) V6 load(1, XDATA, add(CFA_XSP16, literal(-12)))
          CFI (cfiCond46) V7 load(1, XDATA, add(CFA_XSP16, literal(-11)))
          CFI (cfiCond46) V8 load(1, XDATA, add(CFA_XSP16, literal(-10)))
          CFI (cfiCond46) V9 load(1, XDATA, add(CFA_XSP16, literal(-9)))
          CFI (cfiCond46) V10 load(1, XDATA, add(CFA_XSP16, literal(-8)))
          CFI (cfiCond46) V11 load(1, XDATA, add(CFA_XSP16, literal(-7)))
          CFI (cfiCond46) R7 load(1, XDATA, add(CFA_XSP16, literal(-6)))
          CFI (cfiCond46) ?RET_LOW load(1, XDATA, add(CFA_XSP16, literal(-5)))
          CFI (cfiCond46) ?RET_HIGH load(1, XDATA, add(CFA_XSP16, literal(-4)))
          CFI (cfiCond46) ?BRET_EXT load(1, XDATA, add(CFA_XSP16, literal(-3)))
          CFI (cfiCond46) DPL0 load(1, XDATA, add(CFA_XSP16, literal(-2)))
          CFI (cfiCond46) DPH0 load(1, XDATA, add(CFA_XSP16, literal(-1)))
          CFI (cfiCond46) CFA_SP SP+-2
          CFI (cfiCond46) CFA_XSP16 add(XSP16, 90)
          CFI Block cfiCond47 Using cfiCommon0
          CFI (cfiCond47) Function MT_ZdoEndDevBindRequest
          CFI (cfiCond47) Conditional ??CrossCallReturnLabel_83
          CFI (cfiCond47) R6 load(1, XDATA, add(CFA_XSP16, literal(-20)))
          CFI (cfiCond47) VB load(1, XDATA, add(CFA_XSP16, literal(-19)))
          CFI (cfiCond47) V0 load(1, XDATA, add(CFA_XSP16, literal(-18)))
          CFI (cfiCond47) V1 load(1, XDATA, add(CFA_XSP16, literal(-17)))
          CFI (cfiCond47) V2 load(1, XDATA, add(CFA_XSP16, literal(-16)))
          CFI (cfiCond47) V3 load(1, XDATA, add(CFA_XSP16, literal(-15)))
          CFI (cfiCond47) V4 load(1, XDATA, add(CFA_XSP16, literal(-14)))
          CFI (cfiCond47) V5 load(1, XDATA, add(CFA_XSP16, literal(-13)))
          CFI (cfiCond47) V6 load(1, XDATA, add(CFA_XSP16, literal(-12)))
          CFI (cfiCond47) V7 load(1, XDATA, add(CFA_XSP16, literal(-11)))
          CFI (cfiCond47) V8 load(1, XDATA, add(CFA_XSP16, literal(-10)))
          CFI (cfiCond47) V9 load(1, XDATA, add(CFA_XSP16, literal(-9)))
          CFI (cfiCond47) V10 load(1, XDATA, add(CFA_XSP16, literal(-8)))
          CFI (cfiCond47) V11 load(1, XDATA, add(CFA_XSP16, literal(-7)))
          CFI (cfiCond47) R7 load(1, XDATA, add(CFA_XSP16, literal(-6)))
          CFI (cfiCond47) ?RET_LOW load(1, XDATA, add(CFA_XSP16, literal(-5)))
          CFI (cfiCond47) ?RET_HIGH load(1, XDATA, add(CFA_XSP16, literal(-4)))
          CFI (cfiCond47) ?BRET_EXT load(1, XDATA, add(CFA_XSP16, literal(-3)))
          CFI (cfiCond47) DPL0 load(1, XDATA, add(CFA_XSP16, literal(-2)))
          CFI (cfiCond47) DPH0 load(1, XDATA, add(CFA_XSP16, literal(-1)))
          CFI (cfiCond47) CFA_SP SP+-2
          CFI (cfiCond47) CFA_XSP16 add(XSP16, 90)
          CFI Block cfiPicker48 Using cfiCommon1
          CFI (cfiPicker48) NoFunction
          CFI (cfiPicker48) Picker
        LCALL   ?Subroutine36 & 0xFFFF
??CrossCallReturnLabel_89:
        MOV     R6,A
        RET
          CFI EndBlock cfiCond40
          CFI EndBlock cfiCond41
          CFI EndBlock cfiCond42
          CFI EndBlock cfiCond43
          CFI EndBlock cfiCond44
          CFI EndBlock cfiCond45
          CFI EndBlock cfiCond46
          CFI EndBlock cfiCond47
          CFI EndBlock cfiPicker48

        RSEG BANKED_CODE:CODE:NOROOT(0)
?Subroutine36:
          CFI Block cfiCond49 Using cfiCommon0
          CFI Function MT_ZdoCommandProcessing
          CFI Conditional ??CrossCallReturnLabel_88, ??CrossCallReturnLabel_4
          CFI R6 load(1, XDATA, add(CFA_XSP16, literal(-24)))
          CFI VB load(1, XDATA, add(CFA_XSP16, literal(-23)))
          CFI V0 load(1, XDATA, add(CFA_XSP16, literal(-22)))
          CFI V1 load(1, XDATA, add(CFA_XSP16, literal(-21)))
          CFI V2 load(1, XDATA, add(CFA_XSP16, literal(-20)))
          CFI V3 load(1, XDATA, add(CFA_XSP16, literal(-19)))
          CFI V4 load(1, XDATA, add(CFA_XSP16, literal(-18)))
          CFI V5 load(1, XDATA, add(CFA_XSP16, literal(-17)))
          CFI V6 load(1, XDATA, add(CFA_XSP16, literal(-16)))
          CFI V7 load(1, XDATA, add(CFA_XSP16, literal(-15)))
          CFI V8 load(1, XDATA, add(CFA_XSP16, literal(-14)))
          CFI V9 load(1, XDATA, add(CFA_XSP16, literal(-13)))
          CFI V10 load(1, XDATA, add(CFA_XSP16, literal(-12)))
          CFI V11 load(1, XDATA, add(CFA_XSP16, literal(-11)))
          CFI V12 load(1, XDATA, add(CFA_XSP16, literal(-10)))
          CFI V13 load(1, XDATA, add(CFA_XSP16, literal(-9)))
          CFI V14 load(1, XDATA, add(CFA_XSP16, literal(-8)))
          CFI V15 load(1, XDATA, add(CFA_XSP16, literal(-7)))
          CFI R7 load(1, XDATA, add(CFA_XSP16, literal(-6)))
          CFI ?RET_LOW load(1, XDATA, add(CFA_XSP16, literal(-5)))
          CFI ?RET_HIGH load(1, XDATA, add(CFA_XSP16, literal(-4)))
          CFI ?BRET_EXT load(1, XDATA, add(CFA_XSP16, literal(-3)))
          CFI DPL0 load(1, XDATA, add(CFA_XSP16, literal(-2)))
          CFI DPH0 load(1, XDATA, add(CFA_XSP16, literal(-1)))
          CFI CFA_SP SP+-4
          CFI CFA_XSP16 add(XSP16, 52)
          CFI Block cfiCond50 Using cfiCommon0
          CFI (cfiCond50) Function MT_ZdoCommandProcessing
          CFI (cfiCond50) Conditional ??CrossCallReturnLabel_88, ??CrossCallReturnLabel_5
          CFI (cfiCond50) R6 load(1, XDATA, add(CFA_XSP16, literal(-24)))
          CFI (cfiCond50) VB load(1, XDATA, add(CFA_XSP16, literal(-23)))
          CFI (cfiCond50) V0 load(1, XDATA, add(CFA_XSP16, literal(-22)))
          CFI (cfiCond50) V1 load(1, XDATA, add(CFA_XSP16, literal(-21)))
          CFI (cfiCond50) V2 load(1, XDATA, add(CFA_XSP16, literal(-20)))
          CFI (cfiCond50) V3 load(1, XDATA, add(CFA_XSP16, literal(-19)))
          CFI (cfiCond50) V4 load(1, XDATA, add(CFA_XSP16, literal(-18)))
          CFI (cfiCond50) V5 load(1, XDATA, add(CFA_XSP16, literal(-17)))
          CFI (cfiCond50) V6 load(1, XDATA, add(CFA_XSP16, literal(-16)))
          CFI (cfiCond50) V7 load(1, XDATA, add(CFA_XSP16, literal(-15)))
          CFI (cfiCond50) V8 load(1, XDATA, add(CFA_XSP16, literal(-14)))
          CFI (cfiCond50) V9 load(1, XDATA, add(CFA_XSP16, literal(-13)))
          CFI (cfiCond50) V10 load(1, XDATA, add(CFA_XSP16, literal(-12)))
          CFI (cfiCond50) V11 load(1, XDATA, add(CFA_XSP16, literal(-11)))
          CFI (cfiCond50) V12 load(1, XDATA, add(CFA_XSP16, literal(-10)))
          CFI (cfiCond50) V13 load(1, XDATA, add(CFA_XSP16, literal(-9)))
          CFI (cfiCond50) V14 load(1, XDATA, add(CFA_XSP16, literal(-8)))
          CFI (cfiCond50) V15 load(1, XDATA, add(CFA_XSP16, literal(-7)))
          CFI (cfiCond50) R7 load(1, XDATA, add(CFA_XSP16, literal(-6)))
          CFI (cfiCond50) ?RET_LOW load(1, XDATA, add(CFA_XSP16, literal(-5)))
          CFI (cfiCond50) ?RET_HIGH load(1, XDATA, add(CFA_XSP16, literal(-4)))
          CFI (cfiCond50) ?BRET_EXT load(1, XDATA, add(CFA_XSP16, literal(-3)))
          CFI (cfiCond50) DPL0 load(1, XDATA, add(CFA_XSP16, literal(-2)))
          CFI (cfiCond50) DPH0 load(1, XDATA, add(CFA_XSP16, literal(-1)))
          CFI (cfiCond50) CFA_SP SP+-4
          CFI (cfiCond50) CFA_XSP16 add(XSP16, 52)
          CFI Block cfiCond51 Using cfiCommon0
          CFI (cfiCond51) Function MT_ZdoCommandProcessing
          CFI (cfiCond51) Conditional ??CrossCallReturnLabel_88, ??CrossCallReturnLabel_6
          CFI (cfiCond51) R6 load(1, XDATA, add(CFA_XSP16, literal(-24)))
          CFI (cfiCond51) VB load(1, XDATA, add(CFA_XSP16, literal(-23)))
          CFI (cfiCond51) V0 load(1, XDATA, add(CFA_XSP16, literal(-22)))
          CFI (cfiCond51) V1 load(1, XDATA, add(CFA_XSP16, literal(-21)))
          CFI (cfiCond51) V2 load(1, XDATA, add(CFA_XSP16, literal(-20)))
          CFI (cfiCond51) V3 load(1, XDATA, add(CFA_XSP16, literal(-19)))
          CFI (cfiCond51) V4 load(1, XDATA, add(CFA_XSP16, literal(-18)))
          CFI (cfiCond51) V5 load(1, XDATA, add(CFA_XSP16, literal(-17)))
          CFI (cfiCond51) V6 load(1, XDATA, add(CFA_XSP16, literal(-16)))
          CFI (cfiCond51) V7 load(1, XDATA, add(CFA_XSP16, literal(-15)))
          CFI (cfiCond51) V8 load(1, XDATA, add(CFA_XSP16, literal(-14)))
          CFI (cfiCond51) V9 load(1, XDATA, add(CFA_XSP16, literal(-13)))
          CFI (cfiCond51) V10 load(1, XDATA, add(CFA_XSP16, literal(-12)))
          CFI (cfiCond51) V11 load(1, XDATA, add(CFA_XSP16, literal(-11)))
          CFI (cfiCond51) V12 load(1, XDATA, add(CFA_XSP16, literal(-10)))
          CFI (cfiCond51) V13 load(1, XDATA, add(CFA_XSP16, literal(-9)))
          CFI (cfiCond51) V14 load(1, XDATA, add(CFA_XSP16, literal(-8)))
          CFI (cfiCond51) V15 load(1, XDATA, add(CFA_XSP16, literal(-7)))
          CFI (cfiCond51) R7 load(1, XDATA, add(CFA_XSP16, literal(-6)))
          CFI (cfiCond51) ?RET_LOW load(1, XDATA, add(CFA_XSP16, literal(-5)))
          CFI (cfiCond51) ?RET_HIGH load(1, XDATA, add(CFA_XSP16, literal(-4)))
          CFI (cfiCond51) ?BRET_EXT load(1, XDATA, add(CFA_XSP16, literal(-3)))
          CFI (cfiCond51) DPL0 load(1, XDATA, add(CFA_XSP16, literal(-2)))
          CFI (cfiCond51) DPH0 load(1, XDATA, add(CFA_XSP16, literal(-1)))
          CFI (cfiCond51) CFA_SP SP+-4
          CFI (cfiCond51) CFA_XSP16 add(XSP16, 52)
          CFI Block cfiCond52 Using cfiCommon0
          CFI (cfiCond52) Function MT_ZdoCommandProcessing
          CFI (cfiCond52) Conditional ??CrossCallReturnLabel_88, ??CrossCallReturnLabel_7
          CFI (cfiCond52) R6 load(1, XDATA, add(CFA_XSP16, literal(-24)))
          CFI (cfiCond52) VB load(1, XDATA, add(CFA_XSP16, literal(-23)))
          CFI (cfiCond52) V0 load(1, XDATA, add(CFA_XSP16, literal(-22)))
          CFI (cfiCond52) V1 load(1, XDATA, add(CFA_XSP16, literal(-21)))
          CFI (cfiCond52) V2 load(1, XDATA, add(CFA_XSP16, literal(-20)))
          CFI (cfiCond52) V3 load(1, XDATA, add(CFA_XSP16, literal(-19)))
          CFI (cfiCond52) V4 load(1, XDATA, add(CFA_XSP16, literal(-18)))
          CFI (cfiCond52) V5 load(1, XDATA, add(CFA_XSP16, literal(-17)))
          CFI (cfiCond52) V6 load(1, XDATA, add(CFA_XSP16, literal(-16)))
          CFI (cfiCond52) V7 load(1, XDATA, add(CFA_XSP16, literal(-15)))
          CFI (cfiCond52) V8 load(1, XDATA, add(CFA_XSP16, literal(-14)))
          CFI (cfiCond52) V9 load(1, XDATA, add(CFA_XSP16, literal(-13)))
          CFI (cfiCond52) V10 load(1, XDATA, add(CFA_XSP16, literal(-12)))
          CFI (cfiCond52) V11 load(1, XDATA, add(CFA_XSP16, literal(-11)))
          CFI (cfiCond52) V12 load(1, XDATA, add(CFA_XSP16, literal(-10)))
          CFI (cfiCond52) V13 load(1, XDATA, add(CFA_XSP16, literal(-9)))
          CFI (cfiCond52) V14 load(1, XDATA, add(CFA_XSP16, literal(-8)))
          CFI (cfiCond52) V15 load(1, XDATA, add(CFA_XSP16, literal(-7)))
          CFI (cfiCond52) R7 load(1, XDATA, add(CFA_XSP16, literal(-6)))
          CFI (cfiCond52) ?RET_LOW load(1, XDATA, add(CFA_XSP16, literal(-5)))
          CFI (cfiCond52) ?RET_HIGH load(1, XDATA, add(CFA_XSP16, literal(-4)))
          CFI (cfiCond52) ?BRET_EXT load(1, XDATA, add(CFA_XSP16, literal(-3)))
          CFI (cfiCond52) DPL0 load(1, XDATA, add(CFA_XSP16, literal(-2)))
          CFI (cfiCond52) DPH0 load(1, XDATA, add(CFA_XSP16, literal(-1)))
          CFI (cfiCond52) CFA_SP SP+-4
          CFI (cfiCond52) CFA_XSP16 add(XSP16, 52)
          CFI Block cfiCond53 Using cfiCommon0
          CFI (cfiCond53) Function MT_ZdoCommandProcessing
          CFI (cfiCond53) Conditional ??CrossCallReturnLabel_88, ??CrossCallReturnLabel_8
          CFI (cfiCond53) R6 load(1, XDATA, add(CFA_XSP16, literal(-24)))
          CFI (cfiCond53) VB load(1, XDATA, add(CFA_XSP16, literal(-23)))
          CFI (cfiCond53) V0 load(1, XDATA, add(CFA_XSP16, literal(-22)))
          CFI (cfiCond53) V1 load(1, XDATA, add(CFA_XSP16, literal(-21)))
          CFI (cfiCond53) V2 load(1, XDATA, add(CFA_XSP16, literal(-20)))
          CFI (cfiCond53) V3 load(1, XDATA, add(CFA_XSP16, literal(-19)))
          CFI (cfiCond53) V4 load(1, XDATA, add(CFA_XSP16, literal(-18)))
          CFI (cfiCond53) V5 load(1, XDATA, add(CFA_XSP16, literal(-17)))
          CFI (cfiCond53) V6 load(1, XDATA, add(CFA_XSP16, literal(-16)))
          CFI (cfiCond53) V7 load(1, XDATA, add(CFA_XSP16, literal(-15)))
          CFI (cfiCond53) V8 load(1, XDATA, add(CFA_XSP16, literal(-14)))
          CFI (cfiCond53) V9 load(1, XDATA, add(CFA_XSP16, literal(-13)))
          CFI (cfiCond53) V10 load(1, XDATA, add(CFA_XSP16, literal(-12)))
          CFI (cfiCond53) V11 load(1, XDATA, add(CFA_XSP16, literal(-11)))
          CFI (cfiCond53) V12 load(1, XDATA, add(CFA_XSP16, literal(-10)))
          CFI (cfiCond53) V13 load(1, XDATA, add(CFA_XSP16, literal(-9)))
          CFI (cfiCond53) V14 load(1, XDATA, add(CFA_XSP16, literal(-8)))
          CFI (cfiCond53) V15 load(1, XDATA, add(CFA_XSP16, literal(-7)))
          CFI (cfiCond53) R7 load(1, XDATA, add(CFA_XSP16, literal(-6)))
          CFI (cfiCond53) ?RET_LOW load(1, XDATA, add(CFA_XSP16, literal(-5)))
          CFI (cfiCond53) ?RET_HIGH load(1, XDATA, add(CFA_XSP16, literal(-4)))
          CFI (cfiCond53) ?BRET_EXT load(1, XDATA, add(CFA_XSP16, literal(-3)))
          CFI (cfiCond53) DPL0 load(1, XDATA, add(CFA_XSP16, literal(-2)))
          CFI (cfiCond53) DPH0 load(1, XDATA, add(CFA_XSP16, literal(-1)))
          CFI (cfiCond53) CFA_SP SP+-4
          CFI (cfiCond53) CFA_XSP16 add(XSP16, 52)
          CFI Block cfiCond54 Using cfiCommon0
          CFI (cfiCond54) Function MT_ZdoMatchDescRequest
          CFI (cfiCond54) Conditional ??CrossCallReturnLabel_89, ??CrossCallReturnLabel_80
          CFI (cfiCond54) R6 load(1, XDATA, add(CFA_XSP16, literal(-18)))
          CFI (cfiCond54) VB load(1, XDATA, add(CFA_XSP16, literal(-17)))
          CFI (cfiCond54) V0 load(1, XDATA, add(CFA_XSP16, literal(-16)))
          CFI (cfiCond54) V1 load(1, XDATA, add(CFA_XSP16, literal(-15)))
          CFI (cfiCond54) V2 load(1, XDATA, add(CFA_XSP16, literal(-14)))
          CFI (cfiCond54) V3 load(1, XDATA, add(CFA_XSP16, literal(-13)))
          CFI (cfiCond54) V4 load(1, XDATA, add(CFA_XSP16, literal(-12)))
          CFI (cfiCond54) V5 load(1, XDATA, add(CFA_XSP16, literal(-11)))
          CFI (cfiCond54) V6 load(1, XDATA, add(CFA_XSP16, literal(-10)))
          CFI (cfiCond54) V7 load(1, XDATA, add(CFA_XSP16, literal(-9)))
          CFI (cfiCond54) V8 load(1, XDATA, add(CFA_XSP16, literal(-8)))
          CFI (cfiCond54) V9 load(1, XDATA, add(CFA_XSP16, literal(-7)))
          CFI (cfiCond54) R7 load(1, XDATA, add(CFA_XSP16, literal(-6)))
          CFI (cfiCond54) ?RET_LOW load(1, XDATA, add(CFA_XSP16, literal(-5)))
          CFI (cfiCond54) ?RET_HIGH load(1, XDATA, add(CFA_XSP16, literal(-4)))
          CFI (cfiCond54) ?BRET_EXT load(1, XDATA, add(CFA_XSP16, literal(-3)))
          CFI (cfiCond54) DPL0 load(1, XDATA, add(CFA_XSP16, literal(-2)))
          CFI (cfiCond54) DPH0 load(1, XDATA, add(CFA_XSP16, literal(-1)))
          CFI (cfiCond54) CFA_SP SP+-4
          CFI (cfiCond54) CFA_XSP16 add(XSP16, 92)
          CFI Block cfiCond55 Using cfiCommon0
          CFI (cfiCond55) Function MT_ZdoMatchDescRequest
          CFI (cfiCond55) Conditional ??CrossCallReturnLabel_89, ??CrossCallReturnLabel_81
          CFI (cfiCond55) R6 load(1, XDATA, add(CFA_XSP16, literal(-18)))
          CFI (cfiCond55) VB load(1, XDATA, add(CFA_XSP16, literal(-17)))
          CFI (cfiCond55) V0 load(1, XDATA, add(CFA_XSP16, literal(-16)))
          CFI (cfiCond55) V1 load(1, XDATA, add(CFA_XSP16, literal(-15)))
          CFI (cfiCond55) V2 load(1, XDATA, add(CFA_XSP16, literal(-14)))
          CFI (cfiCond55) V3 load(1, XDATA, add(CFA_XSP16, literal(-13)))
          CFI (cfiCond55) V4 load(1, XDATA, add(CFA_XSP16, literal(-12)))
          CFI (cfiCond55) V5 load(1, XDATA, add(CFA_XSP16, literal(-11)))
          CFI (cfiCond55) V6 load(1, XDATA, add(CFA_XSP16, literal(-10)))
          CFI (cfiCond55) V7 load(1, XDATA, add(CFA_XSP16, literal(-9)))
          CFI (cfiCond55) V8 load(1, XDATA, add(CFA_XSP16, literal(-8)))
          CFI (cfiCond55) V9 load(1, XDATA, add(CFA_XSP16, literal(-7)))
          CFI (cfiCond55) R7 load(1, XDATA, add(CFA_XSP16, literal(-6)))
          CFI (cfiCond55) ?RET_LOW load(1, XDATA, add(CFA_XSP16, literal(-5)))
          CFI (cfiCond55) ?RET_HIGH load(1, XDATA, add(CFA_XSP16, literal(-4)))
          CFI (cfiCond55) ?BRET_EXT load(1, XDATA, add(CFA_XSP16, literal(-3)))
          CFI (cfiCond55) DPL0 load(1, XDATA, add(CFA_XSP16, literal(-2)))
          CFI (cfiCond55) DPH0 load(1, XDATA, add(CFA_XSP16, literal(-1)))
          CFI (cfiCond55) CFA_SP SP+-4
          CFI (cfiCond55) CFA_XSP16 add(XSP16, 92)
          CFI Block cfiCond56 Using cfiCommon0
          CFI (cfiCond56) Function MT_ZdoEndDevBindRequest
          CFI (cfiCond56) Conditional ??CrossCallReturnLabel_89, ??CrossCallReturnLabel_82
          CFI (cfiCond56) R6 load(1, XDATA, add(CFA_XSP16, literal(-20)))
          CFI (cfiCond56) VB load(1, XDATA, add(CFA_XSP16, literal(-19)))
          CFI (cfiCond56) V0 load(1, XDATA, add(CFA_XSP16, literal(-18)))
          CFI (cfiCond56) V1 load(1, XDATA, add(CFA_XSP16, literal(-17)))
          CFI (cfiCond56) V2 load(1, XDATA, add(CFA_XSP16, literal(-16)))
          CFI (cfiCond56) V3 load(1, XDATA, add(CFA_XSP16, literal(-15)))
          CFI (cfiCond56) V4 load(1, XDATA, add(CFA_XSP16, literal(-14)))
          CFI (cfiCond56) V5 load(1, XDATA, add(CFA_XSP16, literal(-13)))
          CFI (cfiCond56) V6 load(1, XDATA, add(CFA_XSP16, literal(-12)))
          CFI (cfiCond56) V7 load(1, XDATA, add(CFA_XSP16, literal(-11)))
          CFI (cfiCond56) V8 load(1, XDATA, add(CFA_XSP16, literal(-10)))
          CFI (cfiCond56) V9 load(1, XDATA, add(CFA_XSP16, literal(-9)))
          CFI (cfiCond56) V10 load(1, XDATA, add(CFA_XSP16, literal(-8)))
          CFI (cfiCond56) V11 load(1, XDATA, add(CFA_XSP16, literal(-7)))
          CFI (cfiCond56) R7 load(1, XDATA, add(CFA_XSP16, literal(-6)))
          CFI (cfiCond56) ?RET_LOW load(1, XDATA, add(CFA_XSP16, literal(-5)))
          CFI (cfiCond56) ?RET_HIGH load(1, XDATA, add(CFA_XSP16, literal(-4)))
          CFI (cfiCond56) ?BRET_EXT load(1, XDATA, add(CFA_XSP16, literal(-3)))
          CFI (cfiCond56) DPL0 load(1, XDATA, add(CFA_XSP16, literal(-2)))
          CFI (cfiCond56) DPH0 load(1, XDATA, add(CFA_XSP16, literal(-1)))
          CFI (cfiCond56) CFA_SP SP+-4
          CFI (cfiCond56) CFA_XSP16 add(XSP16, 90)
          CFI Block cfiCond57 Using cfiCommon0
          CFI (cfiCond57) Function MT_ZdoEndDevBindRequest
          CFI (cfiCond57) Conditional ??CrossCallReturnLabel_89, ??CrossCallReturnLabel_83
          CFI (cfiCond57) R6 load(1, XDATA, add(CFA_XSP16, literal(-20)))
          CFI (cfiCond57) VB load(1, XDATA, add(CFA_XSP16, literal(-19)))
          CFI (cfiCond57) V0 load(1, XDATA, add(CFA_XSP16, literal(-18)))
          CFI (cfiCond57) V1 load(1, XDATA, add(CFA_XSP16, literal(-17)))
          CFI (cfiCond57) V2 load(1, XDATA, add(CFA_XSP16, literal(-16)))
          CFI (cfiCond57) V3 load(1, XDATA, add(CFA_XSP16, literal(-15)))
          CFI (cfiCond57) V4 load(1, XDATA, add(CFA_XSP16, literal(-14)))
          CFI (cfiCond57) V5 load(1, XDATA, add(CFA_XSP16, literal(-13)))
          CFI (cfiCond57) V6 load(1, XDATA, add(CFA_XSP16, literal(-12)))
          CFI (cfiCond57) V7 load(1, XDATA, add(CFA_XSP16, literal(-11)))
          CFI (cfiCond57) V8 load(1, XDATA, add(CFA_XSP16, literal(-10)))
          CFI (cfiCond57) V9 load(1, XDATA, add(CFA_XSP16, literal(-9)))
          CFI (cfiCond57) V10 load(1, XDATA, add(CFA_XSP16, literal(-8)))
          CFI (cfiCond57) V11 load(1, XDATA, add(CFA_XSP16, literal(-7)))
          CFI (cfiCond57) R7 load(1, XDATA, add(CFA_XSP16, literal(-6)))
          CFI (cfiCond57) ?RET_LOW load(1, XDATA, add(CFA_XSP16, literal(-5)))
          CFI (cfiCond57) ?RET_HIGH load(1, XDATA, add(CFA_XSP16, literal(-4)))
          CFI (cfiCond57) ?BRET_EXT load(1, XDATA, add(CFA_XSP16, literal(-3)))
          CFI (cfiCond57) DPL0 load(1, XDATA, add(CFA_XSP16, literal(-2)))
          CFI (cfiCond57) DPH0 load(1, XDATA, add(CFA_XSP16, literal(-1)))
          CFI (cfiCond57) CFA_SP SP+-4
          CFI (cfiCond57) CFA_XSP16 add(XSP16, 90)
          CFI Block cfiCond58 Using cfiCommon0
          CFI (cfiCond58) Function MT_ZdoCommandProcessing
          CFI (cfiCond58) Conditional ??CrossCallReturnLabel_89, ??CrossCallReturnLabel_84
          CFI (cfiCond58) R6 load(1, XDATA, add(CFA_XSP16, literal(-24)))
          CFI (cfiCond58) VB load(1, XDATA, add(CFA_XSP16, literal(-23)))
          CFI (cfiCond58) V0 load(1, XDATA, add(CFA_XSP16, literal(-22)))
          CFI (cfiCond58) V1 load(1, XDATA, add(CFA_XSP16, literal(-21)))
          CFI (cfiCond58) V2 load(1, XDATA, add(CFA_XSP16, literal(-20)))
          CFI (cfiCond58) V3 load(1, XDATA, add(CFA_XSP16, literal(-19)))
          CFI (cfiCond58) V4 load(1, XDATA, add(CFA_XSP16, literal(-18)))
          CFI (cfiCond58) V5 load(1, XDATA, add(CFA_XSP16, literal(-17)))
          CFI (cfiCond58) V6 load(1, XDATA, add(CFA_XSP16, literal(-16)))
          CFI (cfiCond58) V7 load(1, XDATA, add(CFA_XSP16, literal(-15)))
          CFI (cfiCond58) V8 load(1, XDATA, add(CFA_XSP16, literal(-14)))
          CFI (cfiCond58) V9 load(1, XDATA, add(CFA_XSP16, literal(-13)))
          CFI (cfiCond58) V10 load(1, XDATA, add(CFA_XSP16, literal(-12)))
          CFI (cfiCond58) V11 load(1, XDATA, add(CFA_XSP16, literal(-11)))
          CFI (cfiCond58) V12 load(1, XDATA, add(CFA_XSP16, literal(-10)))
          CFI (cfiCond58) V13 load(1, XDATA, add(CFA_XSP16, literal(-9)))
          CFI (cfiCond58) V14 load(1, XDATA, add(CFA_XSP16, literal(-8)))
          CFI (cfiCond58) V15 load(1, XDATA, add(CFA_XSP16, literal(-7)))
          CFI (cfiCond58) R7 load(1, XDATA, add(CFA_XSP16, literal(-6)))
          CFI (cfiCond58) ?RET_LOW load(1, XDATA, add(CFA_XSP16, literal(-5)))
          CFI (cfiCond58) ?RET_HIGH load(1, XDATA, add(CFA_XSP16, literal(-4)))
          CFI (cfiCond58) ?BRET_EXT load(1, XDATA, add(CFA_XSP16, literal(-3)))
          CFI (cfiCond58) DPL0 load(1, XDATA, add(CFA_XSP16, literal(-2)))
          CFI (cfiCond58) DPH0 load(1, XDATA, add(CFA_XSP16, literal(-1)))
          CFI (cfiCond58) CFA_SP SP+-4
          CFI (cfiCond58) CFA_XSP16 add(XSP16, 52)
          CFI Block cfiCond59 Using cfiCommon0
          CFI (cfiCond59) Function MT_ZdoMatchDescRequest
          CFI (cfiCond59) Conditional ??CrossCallReturnLabel_89, ??CrossCallReturnLabel_85
          CFI (cfiCond59) R6 load(1, XDATA, add(CFA_XSP16, literal(-18)))
          CFI (cfiCond59) VB load(1, XDATA, add(CFA_XSP16, literal(-17)))
          CFI (cfiCond59) V0 load(1, XDATA, add(CFA_XSP16, literal(-16)))
          CFI (cfiCond59) V1 load(1, XDATA, add(CFA_XSP16, literal(-15)))
          CFI (cfiCond59) V2 load(1, XDATA, add(CFA_XSP16, literal(-14)))
          CFI (cfiCond59) V3 load(1, XDATA, add(CFA_XSP16, literal(-13)))
          CFI (cfiCond59) V4 load(1, XDATA, add(CFA_XSP16, literal(-12)))
          CFI (cfiCond59) V5 load(1, XDATA, add(CFA_XSP16, literal(-11)))
          CFI (cfiCond59) V6 load(1, XDATA, add(CFA_XSP16, literal(-10)))
          CFI (cfiCond59) V7 load(1, XDATA, add(CFA_XSP16, literal(-9)))
          CFI (cfiCond59) V8 load(1, XDATA, add(CFA_XSP16, literal(-8)))
          CFI (cfiCond59) V9 load(1, XDATA, add(CFA_XSP16, literal(-7)))
          CFI (cfiCond59) R7 load(1, XDATA, add(CFA_XSP16, literal(-6)))
          CFI (cfiCond59) ?RET_LOW load(1, XDATA, add(CFA_XSP16, literal(-5)))
          CFI (cfiCond59) ?RET_HIGH load(1, XDATA, add(CFA_XSP16, literal(-4)))
          CFI (cfiCond59) ?BRET_EXT load(1, XDATA, add(CFA_XSP16, literal(-3)))
          CFI (cfiCond59) DPL0 load(1, XDATA, add(CFA_XSP16, literal(-2)))
          CFI (cfiCond59) DPH0 load(1, XDATA, add(CFA_XSP16, literal(-1)))
          CFI (cfiCond59) CFA_SP SP+-4
          CFI (cfiCond59) CFA_XSP16 add(XSP16, 92)
          CFI Block cfiCond60 Using cfiCommon0
          CFI (cfiCond60) Function MT_ZdoEndDevBindRequest
          CFI (cfiCond60) Conditional ??CrossCallReturnLabel_89, ??CrossCallReturnLabel_86
          CFI (cfiCond60) R6 load(1, XDATA, add(CFA_XSP16, literal(-20)))
          CFI (cfiCond60) VB load(1, XDATA, add(CFA_XSP16, literal(-19)))
          CFI (cfiCond60) V0 load(1, XDATA, add(CFA_XSP16, literal(-18)))
          CFI (cfiCond60) V1 load(1, XDATA, add(CFA_XSP16, literal(-17)))
          CFI (cfiCond60) V2 load(1, XDATA, add(CFA_XSP16, literal(-16)))
          CFI (cfiCond60) V3 load(1, XDATA, add(CFA_XSP16, literal(-15)))
          CFI (cfiCond60) V4 load(1, XDATA, add(CFA_XSP16, literal(-14)))
          CFI (cfiCond60) V5 load(1, XDATA, add(CFA_XSP16, literal(-13)))
          CFI (cfiCond60) V6 load(1, XDATA, add(CFA_XSP16, literal(-12)))
          CFI (cfiCond60) V7 load(1, XDATA, add(CFA_XSP16, literal(-11)))
          CFI (cfiCond60) V8 load(1, XDATA, add(CFA_XSP16, literal(-10)))
          CFI (cfiCond60) V9 load(1, XDATA, add(CFA_XSP16, literal(-9)))
          CFI (cfiCond60) V10 load(1, XDATA, add(CFA_XSP16, literal(-8)))
          CFI (cfiCond60) V11 load(1, XDATA, add(CFA_XSP16, literal(-7)))
          CFI (cfiCond60) R7 load(1, XDATA, add(CFA_XSP16, literal(-6)))
          CFI (cfiCond60) ?RET_LOW load(1, XDATA, add(CFA_XSP16, literal(-5)))
          CFI (cfiCond60) ?RET_HIGH load(1, XDATA, add(CFA_XSP16, literal(-4)))
          CFI (cfiCond60) ?BRET_EXT load(1, XDATA, add(CFA_XSP16, literal(-3)))
          CFI (cfiCond60) DPL0 load(1, XDATA, add(CFA_XSP16, literal(-2)))
          CFI (cfiCond60) DPH0 load(1, XDATA, add(CFA_XSP16, literal(-1)))
          CFI (cfiCond60) CFA_SP SP+-4
          CFI (cfiCond60) CFA_XSP16 add(XSP16, 90)
          CFI Block cfiCond61 Using cfiCommon0
          CFI (cfiCond61) Function MT_ZdoNwkAddrOfInterestReq
          CFI (cfiCond61) Conditional ??CrossCallReturnLabel_89, ??CrossCallReturnLabel_87
          CFI (cfiCond61) R6 load(1, XDATA, add(CFA_XSP16, literal(-14)))
          CFI (cfiCond61) VB load(1, XDATA, add(CFA_XSP16, literal(-13)))
          CFI (cfiCond61) V0 load(1, XDATA, add(CFA_XSP16, literal(-12)))
          CFI (cfiCond61) V1 load(1, XDATA, add(CFA_XSP16, literal(-11)))
          CFI (cfiCond61) V2 load(1, XDATA, add(CFA_XSP16, literal(-10)))
          CFI (cfiCond61) V3 load(1, XDATA, add(CFA_XSP16, literal(-9)))
          CFI (cfiCond61) V4 load(1, XDATA, add(CFA_XSP16, literal(-8)))
          CFI (cfiCond61) V5 load(1, XDATA, add(CFA_XSP16, literal(-7)))
          CFI (cfiCond61) R7 load(1, XDATA, add(CFA_XSP16, literal(-6)))
          CFI (cfiCond61) ?RET_LOW load(1, XDATA, add(CFA_XSP16, literal(-5)))
          CFI (cfiCond61) ?RET_HIGH load(1, XDATA, add(CFA_XSP16, literal(-4)))
          CFI (cfiCond61) ?BRET_EXT load(1, XDATA, add(CFA_XSP16, literal(-3)))
          CFI (cfiCond61) DPL0 load(1, XDATA, add(CFA_XSP16, literal(-2)))
          CFI (cfiCond61) DPH0 load(1, XDATA, add(CFA_XSP16, literal(-1)))
          CFI (cfiCond61) CFA_SP SP+-4
          CFI (cfiCond61) CFA_XSP16 add(XSP16, 24)
          CFI Block cfiCond62 Using cfiCommon0
          CFI (cfiCond62) Function MT_ZdoBindRequest
          CFI (cfiCond62) Conditional ??CrossCallReturnLabel_90, ??CrossCallReturnLabel_0
          CFI (cfiCond62) R6 load(1, XDATA, add(CFA_XSP16, literal(-16)))
          CFI (cfiCond62) VB load(1, XDATA, add(CFA_XSP16, literal(-15)))
          CFI (cfiCond62) V0 load(1, XDATA, add(CFA_XSP16, literal(-14)))
          CFI (cfiCond62) V1 load(1, XDATA, add(CFA_XSP16, literal(-13)))
          CFI (cfiCond62) V2 load(1, XDATA, add(CFA_XSP16, literal(-12)))
          CFI (cfiCond62) V3 load(1, XDATA, add(CFA_XSP16, literal(-11)))
          CFI (cfiCond62) V4 load(1, XDATA, add(CFA_XSP16, literal(-10)))
          CFI (cfiCond62) V5 load(1, XDATA, add(CFA_XSP16, literal(-9)))
          CFI (cfiCond62) V6 load(1, XDATA, add(CFA_XSP16, literal(-8)))
          CFI (cfiCond62) V7 load(1, XDATA, add(CFA_XSP16, literal(-7)))
          CFI (cfiCond62) R7 load(1, XDATA, add(CFA_XSP16, literal(-6)))
          CFI (cfiCond62) ?RET_LOW load(1, XDATA, add(CFA_XSP16, literal(-5)))
          CFI (cfiCond62) ?RET_HIGH load(1, XDATA, add(CFA_XSP16, literal(-4)))
          CFI (cfiCond62) ?BRET_EXT load(1, XDATA, add(CFA_XSP16, literal(-3)))
          CFI (cfiCond62) DPL0 load(1, XDATA, add(CFA_XSP16, literal(-2)))
          CFI (cfiCond62) DPH0 load(1, XDATA, add(CFA_XSP16, literal(-1)))
          CFI (cfiCond62) CFA_SP SP+-4
          CFI (cfiCond62) CFA_XSP16 add(XSP16, 35)
          CFI Block cfiCond63 Using cfiCommon0
          CFI (cfiCond63) Function MT_ZdoUnbindRequest
          CFI (cfiCond63) Conditional ??CrossCallReturnLabel_90, ??CrossCallReturnLabel_1
          CFI (cfiCond63) R6 load(1, XDATA, add(CFA_XSP16, literal(-16)))
          CFI (cfiCond63) VB load(1, XDATA, add(CFA_XSP16, literal(-15)))
          CFI (cfiCond63) V0 load(1, XDATA, add(CFA_XSP16, literal(-14)))
          CFI (cfiCond63) V1 load(1, XDATA, add(CFA_XSP16, literal(-13)))
          CFI (cfiCond63) V2 load(1, XDATA, add(CFA_XSP16, literal(-12)))
          CFI (cfiCond63) V3 load(1, XDATA, add(CFA_XSP16, literal(-11)))
          CFI (cfiCond63) V4 load(1, XDATA, add(CFA_XSP16, literal(-10)))
          CFI (cfiCond63) V5 load(1, XDATA, add(CFA_XSP16, literal(-9)))
          CFI (cfiCond63) V6 load(1, XDATA, add(CFA_XSP16, literal(-8)))
          CFI (cfiCond63) V7 load(1, XDATA, add(CFA_XSP16, literal(-7)))
          CFI (cfiCond63) R7 load(1, XDATA, add(CFA_XSP16, literal(-6)))
          CFI (cfiCond63) ?RET_LOW load(1, XDATA, add(CFA_XSP16, literal(-5)))
          CFI (cfiCond63) ?RET_HIGH load(1, XDATA, add(CFA_XSP16, literal(-4)))
          CFI (cfiCond63) ?BRET_EXT load(1, XDATA, add(CFA_XSP16, literal(-3)))
          CFI (cfiCond63) DPL0 load(1, XDATA, add(CFA_XSP16, literal(-2)))
          CFI (cfiCond63) DPH0 load(1, XDATA, add(CFA_XSP16, literal(-1)))
          CFI (cfiCond63) CFA_SP SP+-4
          CFI (cfiCond63) CFA_XSP16 add(XSP16, 35)
          CFI Block cfiPicker64 Using cfiCommon1
          CFI (cfiPicker64) NoFunction
          CFI (cfiPicker64) Picker
        MOV     A,R2
        MOVX    @DPTR,A
        INC     DPTR
        MOV     A,R3
        MOVX    @DPTR,A
        ; Setup parameters for call to function osal_build_uint16
        ; Setup parameters for call to function osal_build_uint16
        ; Setup parameters for call to function osal_build_uint16
        ; Setup parameters for call to function osal_build_uint16
        ; Setup parameters for call to function osal_build_uint16
        MOV     A,R6
        ADD     A,#0x2
        RET
          CFI EndBlock cfiCond49
          CFI EndBlock cfiCond50
          CFI EndBlock cfiCond51
          CFI EndBlock cfiCond52
          CFI EndBlock cfiCond53
          CFI EndBlock cfiCond54
          CFI EndBlock cfiCond55
          CFI EndBlock cfiCond56
          CFI EndBlock cfiCond57
          CFI EndBlock cfiCond58
          CFI EndBlock cfiCond59
          CFI EndBlock cfiCond60
          CFI EndBlock cfiCond61
          CFI EndBlock cfiCond62
          CFI EndBlock cfiCond63
          CFI EndBlock cfiPicker64
// 1075 
// 1076 /***************************************************************************************************
// 1077  * @fn      MT_ZdoBindRequest
// 1078  *
// 1079  * @brief   Handle a Bind request.
// 1080  *
// 1081  * @param   pBuf  - MT message data
// 1082  *
// 1083  * @return  void
// 1084  ***************************************************************************************************/

        RSEG BANKED_CODE:CODE:NOROOT(0)
// 1085 static void MT_ZdoBindRequest(uint8 *pBuf)
MT_ZdoBindRequest:
          CFI Block cfiBlock65 Using cfiCommon0
          CFI Function MT_ZdoBindRequest
        CODE
// 1086 {
        FUNCALL MT_ZdoBindRequest, osal_build_uint16
        LOCFRAME ISTACK, 0, STACK
        LOCFRAME PSTACK, 0, STACK
        LOCFRAME XSTACK, 35, STACK
        LOCFRAME IOVERLAY, 0, STATIC
        LOCFRAME DOVERLAY, 0, STATIC
        ARGFRAME ISTACK, 0, STACK
        ARGFRAME PSTACK, 0, STACK
        ARGFRAME XSTACK, 35, STACK
        ARGFRAME IOVERLAY, 0, STATIC
        ARGFRAME DOVERLAY, 0, STATIC
        FUNCALL MT_ZdoBindRequest, osal_build_uint16
        LOCFRAME ISTACK, 0, STACK
        LOCFRAME PSTACK, 0, STACK
        LOCFRAME XSTACK, 35, STACK
        LOCFRAME IOVERLAY, 0, STATIC
        LOCFRAME DOVERLAY, 0, STATIC
        ARGFRAME ISTACK, 0, STACK
        ARGFRAME PSTACK, 0, STACK
        ARGFRAME XSTACK, 35, STACK
        ARGFRAME IOVERLAY, 0, STATIC
        ARGFRAME DOVERLAY, 0, STATIC
        FUNCALL MT_ZdoBindRequest, sAddrExtCpy
        LOCFRAME ISTACK, 0, STACK
        LOCFRAME PSTACK, 0, STACK
        LOCFRAME XSTACK, 35, STACK
        LOCFRAME IOVERLAY, 0, STATIC
        LOCFRAME DOVERLAY, 0, STATIC
        ARGFRAME ISTACK, 0, STACK
        ARGFRAME PSTACK, 0, STACK
        ARGFRAME XSTACK, 35, STACK
        ARGFRAME IOVERLAY, 0, STATIC
        ARGFRAME DOVERLAY, 0, STATIC
        FUNCALL MT_ZdoBindRequest, osal_build_uint16
        LOCFRAME ISTACK, 0, STACK
        LOCFRAME PSTACK, 0, STACK
        LOCFRAME XSTACK, 35, STACK
        LOCFRAME IOVERLAY, 0, STATIC
        LOCFRAME DOVERLAY, 0, STATIC
        ARGFRAME ISTACK, 0, STACK
        ARGFRAME PSTACK, 0, STACK
        ARGFRAME XSTACK, 35, STACK
        ARGFRAME IOVERLAY, 0, STATIC
        ARGFRAME DOVERLAY, 0, STATIC
        FUNCALL MT_ZdoBindRequest, ZDP_BindUnbindReq
        LOCFRAME ISTACK, 0, STACK
        LOCFRAME PSTACK, 0, STACK
        LOCFRAME XSTACK, 43, STACK
        LOCFRAME IOVERLAY, 0, STATIC
        LOCFRAME DOVERLAY, 0, STATIC
        ARGFRAME ISTACK, 0, STACK
        ARGFRAME PSTACK, 0, STACK
        ARGFRAME XSTACK, 43, STACK
        ARGFRAME IOVERLAY, 0, STATIC
        ARGFRAME DOVERLAY, 0, STATIC
        FUNCALL MT_ZdoBindRequest, MT_BuildAndSendZToolResponse
        LOCFRAME ISTACK, 0, STACK
        LOCFRAME PSTACK, 0, STACK
        LOCFRAME XSTACK, 35, STACK
        LOCFRAME IOVERLAY, 0, STATIC
        LOCFRAME DOVERLAY, 0, STATIC
        ARGFRAME ISTACK, 0, STACK
        ARGFRAME PSTACK, 0, STACK
        ARGFRAME XSTACK, 35, STACK
        ARGFRAME IOVERLAY, 0, STATIC
        ARGFRAME DOVERLAY, 0, STATIC
        REQUIRE ?V0
        REQUIRE ?V1
        REQUIRE ?V2
        REQUIRE ?V3
        REQUIRE ?V4
        REQUIRE ?V5
        REQUIRE ?V6
        REQUIRE ?V7
        MOV     A,#-0x10
        LCALL   ?BANKED_ENTER_XDATA
          CFI DPH0 load(1, XDATA, add(CFA_XSP16, literal(-1)))
          CFI DPL0 load(1, XDATA, add(CFA_XSP16, literal(-2)))
          CFI ?BRET_EXT load(1, XDATA, add(CFA_XSP16, literal(-3)))
          CFI ?RET_HIGH load(1, XDATA, add(CFA_XSP16, literal(-4)))
          CFI ?RET_LOW load(1, XDATA, add(CFA_XSP16, literal(-5)))
          CFI R7 load(1, XDATA, add(CFA_XSP16, literal(-6)))
          CFI V7 load(1, XDATA, add(CFA_XSP16, literal(-7)))
          CFI V6 load(1, XDATA, add(CFA_XSP16, literal(-8)))
          CFI V5 load(1, XDATA, add(CFA_XSP16, literal(-9)))
          CFI V4 load(1, XDATA, add(CFA_XSP16, literal(-10)))
          CFI V3 load(1, XDATA, add(CFA_XSP16, literal(-11)))
          CFI V2 load(1, XDATA, add(CFA_XSP16, literal(-12)))
          CFI V1 load(1, XDATA, add(CFA_XSP16, literal(-13)))
          CFI V0 load(1, XDATA, add(CFA_XSP16, literal(-14)))
          CFI VB load(1, XDATA, add(CFA_XSP16, literal(-15)))
          CFI R6 load(1, XDATA, add(CFA_XSP16, literal(-16)))
          CFI CFA_SP SP+0
          CFI CFA_XSP16 add(XSP16, 16)
        ; Saved register size: 16
        ; Auto size: 19
        MOV     A,#-0x13
        LCALL   ?ALLOC_XSTACK8
          CFI CFA_XSP16 add(XSP16, 35)
        MOV     A,R2
        MOV     R6,A
        MOV     A,R3
        MOV     R7,A
// 1087   uint8 cmdId;
// 1088   uint8 retValue;
// 1089   zAddrType_t destAddr, devAddr;
// 1090   uint8 *pSrcAddr, *ptr;
// 1091   uint8 srcEPInt, dstEPInt;
// 1092   uint16 clusterID;
// 1093 
// 1094   /* parse header */
// 1095   cmdId = pBuf[MT_RPC_POS_CMD1];
        MOV     DPL,R6
        MOV     DPH,R7
        INC     DPTR
        INC     DPTR
        MOVX    A,@DPTR
        MOV     ?V0,A
// 1096   pBuf += MT_RPC_FRAME_HDR_SZ;
        MOV     A,R6
        ADD     A,#0x3
        MOV     R6,A
        JNC     ??MT_ZdoBindRequest_0
        INC     R7
// 1097 
// 1098   /* Dev address */
// 1099   destAddr.addrMode = Addr16Bit;
??MT_ZdoBindRequest_0:
        MOV     A,#0x12
        LCALL   ?XSTACK_DISP0_8
        LCALL   ?Subroutine19 & 0xFFFF
// 1100   destAddr.addr.shortAddr = osal_build_uint16( pBuf );
??CrossCallReturnLabel_38:
        LCALL   `??osal_build_uint16::?relay`; Banked call to: osal_build_uint16
        MOV     A,#0xa
        LCALL   ?XSTACK_DISP0_8
        LCALL   ?Subroutine3 & 0xFFFF
// 1101   pBuf += 2;
// 1102 
// 1103   /* SrcAddress */
// 1104   pSrcAddr = pBuf;
// 1105   pBuf += Z_EXTADDR_LEN;
// 1106 
// 1107   /* SrcEPInt */
// 1108   srcEPInt = *pBuf++;
// 1109 
// 1110   /* ClusterID */
// 1111   clusterID = osal_build_uint16( pBuf );
??CrossCallReturnLabel_0:
        LCALL   `??osal_build_uint16::?relay`; Banked call to: osal_build_uint16
        MOV     ?V4,R2
        MOV     ?V5,R3
// 1112   pBuf += 2;
// 1113 
// 1114   /* Destination Address mode */
// 1115   devAddr.addrMode = *pBuf++;
        MOV     DPL,R6
        MOV     DPH,R7
        INC     DPTR
        INC     DPTR
        MOVX    A,@DPTR
        MOV     R0,A
        MOV     A,#0x9
        LCALL   ?XSTACK_DISP0_8
        MOV     A,R0
        MOVX    @DPTR,A
        MOV     A,R6
        ADD     A,#0x3
        MOV     R6,A
        JNC     ??MT_ZdoBindRequest_1
        INC     R7
// 1116 
// 1117   /* Destination Address */
// 1118   if ( devAddr.addrMode == Addr64Bit )
??MT_ZdoBindRequest_1:
        MOV     A,#0x3
        XRL     A,R0
        JNZ     ??MT_ZdoBindRequest_2
// 1119   {
// 1120     ptr = pBuf;
// 1121     osal_cpyExtAddr( devAddr.addr.extAddr, ptr );
        ; Setup parameters for call to function sAddrExtCpy
        MOV     A,R6
        MOV     R4,A
        MOV     A,R7
        MOV     R5,A
        MOV     A,#0x1
        LCALL   ?XSTACK_DISP101_8
        LCALL   `??sAddrExtCpy::?relay`; Banked call to: sAddrExtCpy
        SJMP    ??MT_ZdoBindRequest_3
// 1122   }
// 1123   else
// 1124   {
// 1125     devAddr.addr.shortAddr = osal_build_uint16( pBuf );
??MT_ZdoBindRequest_2:
        ; Setup parameters for call to function osal_build_uint16
        MOV     A,R6
        MOV     R2,A
        MOV     A,R7
        MOV     R3,A
        LCALL   `??osal_build_uint16::?relay`; Banked call to: osal_build_uint16
        MOV     A,#0x1
        LCALL   ?XSTACK_DISP0_8
        MOV     A,R2
        MOVX    @DPTR,A
        INC     DPTR
        MOV     A,R3
        MOVX    @DPTR,A
// 1126   }
// 1127   /* The short address occupies LSB two bytes */
// 1128   pBuf += Z_EXTADDR_LEN;
// 1129 
// 1130   /* DstEPInt */
// 1131   dstEPInt = *pBuf;
// 1132 
// 1133   retValue = (uint8)ZDP_BindReq( &destAddr, pSrcAddr, srcEPInt, clusterID, &devAddr, dstEPInt, 0);
??MT_ZdoBindRequest_3:
        ; Setup parameters for call to function ZDP_BindUnbindReq
        MOV     ?V6,#0x0
        MOV     R0,#?V6
        LCALL   ?PUSH_XSTACK_I_ONE
          CFI CFA_XSP16 add(XSP16, 36)
        MOV     DPL,R6
        MOV     DPH,R7
        INC     DPTR
        INC     DPTR
        INC     DPTR
        INC     DPTR
        INC     DPTR
        INC     DPTR
        INC     DPTR
        INC     DPTR
        MOVX    A,@DPTR
        MOV     ?V6,A
        MOV     R0,#?V6
        LCALL   ?PUSH_XSTACK_I_ONE
          CFI CFA_XSP16 add(XSP16, 37)
        MOV     A,#0x3
        LCALL   ?XSTACK_DISP100_8
        MOV     ?V6,R0
        MOV     ?V7,R1
        MOV     R0,#?V6
        LCALL   ?PUSH_XSTACK_I_TWO
          CFI CFA_XSP16 add(XSP16, 39)
        MOV     R0,#?V4
        LCALL   ?PUSH_XSTACK_I_TWO
          CFI CFA_XSP16 add(XSP16, 41)
        MOV     R0,#?V2
        LCALL   ?PUSH_XSTACK_I_TWO
          CFI CFA_XSP16 add(XSP16, 43)
        MOV     R1,?V1
        MOV     A,#0x12
        LCALL   ?XSTACK_DISP102_8
        MOV     R2,#0x21
          CFI EndBlock cfiBlock65
        REQUIRE ?Subroutine0
        ; // Fall through to label ?Subroutine0
// 1134 
// 1135   MT_BuildAndSendZToolResponse(((uint8)MT_RPC_CMD_SRSP | (uint8)MT_RPC_SYS_ZDO), cmdId, 1, &retValue);
// 1136 }

        RSEG BANKED_CODE:CODE:NOROOT(0)
?Subroutine0:
          CFI Block cfiBlock66 Using cfiCommon0
          CFI NoFunction
          CFI CFA_SP SP+0
          CFI CFA_XSP16 add(XSP16, 43)
          CFI VB load(1, XDATA, add(CFA_XSP16, literal(-15)))
          CFI DPL0 load(1, XDATA, add(CFA_XSP16, literal(-2)))
          CFI DPH0 load(1, XDATA, add(CFA_XSP16, literal(-1)))
          CFI R6 load(1, XDATA, add(CFA_XSP16, literal(-16)))
          CFI R7 load(1, XDATA, add(CFA_XSP16, literal(-6)))
          CFI V0 load(1, XDATA, add(CFA_XSP16, literal(-14)))
          CFI V1 load(1, XDATA, add(CFA_XSP16, literal(-13)))
          CFI V2 load(1, XDATA, add(CFA_XSP16, literal(-12)))
          CFI V3 load(1, XDATA, add(CFA_XSP16, literal(-11)))
          CFI V4 load(1, XDATA, add(CFA_XSP16, literal(-10)))
          CFI V5 load(1, XDATA, add(CFA_XSP16, literal(-9)))
          CFI V6 load(1, XDATA, add(CFA_XSP16, literal(-8)))
          CFI V7 load(1, XDATA, add(CFA_XSP16, literal(-7)))
          CFI ?BRET_EXT load(1, XDATA, add(CFA_XSP16, literal(-3)))
          CFI ?RET_HIGH load(1, XDATA, add(CFA_XSP16, literal(-4)))
          CFI ?RET_LOW load(1, XDATA, add(CFA_XSP16, literal(-5)))
        MOV     R3,#0x0
        LCALL   `??ZDP_BindUnbindReq::?relay`; Banked call to: ZDP_BindUnbindReq
        MOV     A,#0x8
        LCALL   ?DEALLOC_XSTACK8
          CFI CFA_XSP16 add(XSP16, 35)
        LCALL   ?Subroutine21 & 0xFFFF
??CrossCallReturnLabel_95:
        MOV     R2,?V0
        MOV     R1,#0x65
        LCALL   `??MT_BuildAndSendZToolResponse::?relay`; Banked call to: MT_BuildAndSendZToolResponse
        MOV     A,#0x13
        LCALL   ?DEALLOC_XSTACK8
          CFI CFA_XSP16 add(XSP16, 16)
        MOV     R7,#0x8
        LJMP    ?BANKED_LEAVE_XDATA
          CFI EndBlock cfiBlock66

        RSEG BANKED_CODE:CODE:NOROOT(0)
?Subroutine21:
          CFI Block cfiCond67 Using cfiCommon0
          CFI Function MT_ZdoCommandProcessing
          CFI Conditional ??CrossCallReturnLabel_91
          CFI R6 load(1, XDATA, add(CFA_XSP16, literal(-24)))
          CFI VB load(1, XDATA, add(CFA_XSP16, literal(-23)))
          CFI V0 load(1, XDATA, add(CFA_XSP16, literal(-22)))
          CFI V1 load(1, XDATA, add(CFA_XSP16, literal(-21)))
          CFI V2 load(1, XDATA, add(CFA_XSP16, literal(-20)))
          CFI V3 load(1, XDATA, add(CFA_XSP16, literal(-19)))
          CFI V4 load(1, XDATA, add(CFA_XSP16, literal(-18)))
          CFI V5 load(1, XDATA, add(CFA_XSP16, literal(-17)))
          CFI V6 load(1, XDATA, add(CFA_XSP16, literal(-16)))
          CFI V7 load(1, XDATA, add(CFA_XSP16, literal(-15)))
          CFI V8 load(1, XDATA, add(CFA_XSP16, literal(-14)))
          CFI V9 load(1, XDATA, add(CFA_XSP16, literal(-13)))
          CFI V10 load(1, XDATA, add(CFA_XSP16, literal(-12)))
          CFI V11 load(1, XDATA, add(CFA_XSP16, literal(-11)))
          CFI V12 load(1, XDATA, add(CFA_XSP16, literal(-10)))
          CFI V13 load(1, XDATA, add(CFA_XSP16, literal(-9)))
          CFI V14 load(1, XDATA, add(CFA_XSP16, literal(-8)))
          CFI V15 load(1, XDATA, add(CFA_XSP16, literal(-7)))
          CFI R7 load(1, XDATA, add(CFA_XSP16, literal(-6)))
          CFI ?RET_LOW load(1, XDATA, add(CFA_XSP16, literal(-5)))
          CFI ?RET_HIGH load(1, XDATA, add(CFA_XSP16, literal(-4)))
          CFI ?BRET_EXT load(1, XDATA, add(CFA_XSP16, literal(-3)))
          CFI DPL0 load(1, XDATA, add(CFA_XSP16, literal(-2)))
          CFI DPH0 load(1, XDATA, add(CFA_XSP16, literal(-1)))
          CFI CFA_SP SP+-2
          CFI CFA_XSP16 add(XSP16, 52)
          CFI Block cfiCond68 Using cfiCommon0
          CFI (cfiCond68) Function MT_ZdoCommandProcessing
          CFI (cfiCond68) Conditional ??CrossCallReturnLabel_92
          CFI (cfiCond68) R6 load(1, XDATA, add(CFA_XSP16, literal(-24)))
          CFI (cfiCond68) VB load(1, XDATA, add(CFA_XSP16, literal(-23)))
          CFI (cfiCond68) V0 load(1, XDATA, add(CFA_XSP16, literal(-22)))
          CFI (cfiCond68) V1 load(1, XDATA, add(CFA_XSP16, literal(-21)))
          CFI (cfiCond68) V2 load(1, XDATA, add(CFA_XSP16, literal(-20)))
          CFI (cfiCond68) V3 load(1, XDATA, add(CFA_XSP16, literal(-19)))
          CFI (cfiCond68) V4 load(1, XDATA, add(CFA_XSP16, literal(-18)))
          CFI (cfiCond68) V5 load(1, XDATA, add(CFA_XSP16, literal(-17)))
          CFI (cfiCond68) V6 load(1, XDATA, add(CFA_XSP16, literal(-16)))
          CFI (cfiCond68) V7 load(1, XDATA, add(CFA_XSP16, literal(-15)))
          CFI (cfiCond68) V8 load(1, XDATA, add(CFA_XSP16, literal(-14)))
          CFI (cfiCond68) V9 load(1, XDATA, add(CFA_XSP16, literal(-13)))
          CFI (cfiCond68) V10 load(1, XDATA, add(CFA_XSP16, literal(-12)))
          CFI (cfiCond68) V11 load(1, XDATA, add(CFA_XSP16, literal(-11)))
          CFI (cfiCond68) V12 load(1, XDATA, add(CFA_XSP16, literal(-10)))
          CFI (cfiCond68) V13 load(1, XDATA, add(CFA_XSP16, literal(-9)))
          CFI (cfiCond68) V14 load(1, XDATA, add(CFA_XSP16, literal(-8)))
          CFI (cfiCond68) V15 load(1, XDATA, add(CFA_XSP16, literal(-7)))
          CFI (cfiCond68) R7 load(1, XDATA, add(CFA_XSP16, literal(-6)))
          CFI (cfiCond68) ?RET_LOW load(1, XDATA, add(CFA_XSP16, literal(-5)))
          CFI (cfiCond68) ?RET_HIGH load(1, XDATA, add(CFA_XSP16, literal(-4)))
          CFI (cfiCond68) ?BRET_EXT load(1, XDATA, add(CFA_XSP16, literal(-3)))
          CFI (cfiCond68) DPL0 load(1, XDATA, add(CFA_XSP16, literal(-2)))
          CFI (cfiCond68) DPH0 load(1, XDATA, add(CFA_XSP16, literal(-1)))
          CFI (cfiCond68) CFA_SP SP+-2
          CFI (cfiCond68) CFA_XSP16 add(XSP16, 52)
          CFI Block cfiCond69 Using cfiCommon0
          CFI (cfiCond69) Function MT_ZdoCommandProcessing
          CFI (cfiCond69) Conditional ??CrossCallReturnLabel_93
          CFI (cfiCond69) R6 load(1, XDATA, add(CFA_XSP16, literal(-24)))
          CFI (cfiCond69) VB load(1, XDATA, add(CFA_XSP16, literal(-23)))
          CFI (cfiCond69) V0 load(1, XDATA, add(CFA_XSP16, literal(-22)))
          CFI (cfiCond69) V1 load(1, XDATA, add(CFA_XSP16, literal(-21)))
          CFI (cfiCond69) V2 load(1, XDATA, add(CFA_XSP16, literal(-20)))
          CFI (cfiCond69) V3 load(1, XDATA, add(CFA_XSP16, literal(-19)))
          CFI (cfiCond69) V4 load(1, XDATA, add(CFA_XSP16, literal(-18)))
          CFI (cfiCond69) V5 load(1, XDATA, add(CFA_XSP16, literal(-17)))
          CFI (cfiCond69) V6 load(1, XDATA, add(CFA_XSP16, literal(-16)))
          CFI (cfiCond69) V7 load(1, XDATA, add(CFA_XSP16, literal(-15)))
          CFI (cfiCond69) V8 load(1, XDATA, add(CFA_XSP16, literal(-14)))
          CFI (cfiCond69) V9 load(1, XDATA, add(CFA_XSP16, literal(-13)))
          CFI (cfiCond69) V10 load(1, XDATA, add(CFA_XSP16, literal(-12)))
          CFI (cfiCond69) V11 load(1, XDATA, add(CFA_XSP16, literal(-11)))
          CFI (cfiCond69) V12 load(1, XDATA, add(CFA_XSP16, literal(-10)))
          CFI (cfiCond69) V13 load(1, XDATA, add(CFA_XSP16, literal(-9)))
          CFI (cfiCond69) V14 load(1, XDATA, add(CFA_XSP16, literal(-8)))
          CFI (cfiCond69) V15 load(1, XDATA, add(CFA_XSP16, literal(-7)))
          CFI (cfiCond69) R7 load(1, XDATA, add(CFA_XSP16, literal(-6)))
          CFI (cfiCond69) ?RET_LOW load(1, XDATA, add(CFA_XSP16, literal(-5)))
          CFI (cfiCond69) ?RET_HIGH load(1, XDATA, add(CFA_XSP16, literal(-4)))
          CFI (cfiCond69) ?BRET_EXT load(1, XDATA, add(CFA_XSP16, literal(-3)))
          CFI (cfiCond69) DPL0 load(1, XDATA, add(CFA_XSP16, literal(-2)))
          CFI (cfiCond69) DPH0 load(1, XDATA, add(CFA_XSP16, literal(-1)))
          CFI (cfiCond69) CFA_SP SP+-2
          CFI (cfiCond69) CFA_XSP16 add(XSP16, 52)
          CFI Block cfiCond70 Using cfiCommon0
          CFI (cfiCond70) Function MT_ZdoCommandProcessing
          CFI (cfiCond70) Conditional ??CrossCallReturnLabel_94
          CFI (cfiCond70) R6 load(1, XDATA, add(CFA_XSP16, literal(-24)))
          CFI (cfiCond70) VB load(1, XDATA, add(CFA_XSP16, literal(-23)))
          CFI (cfiCond70) V0 load(1, XDATA, add(CFA_XSP16, literal(-22)))
          CFI (cfiCond70) V1 load(1, XDATA, add(CFA_XSP16, literal(-21)))
          CFI (cfiCond70) V2 load(1, XDATA, add(CFA_XSP16, literal(-20)))
          CFI (cfiCond70) V3 load(1, XDATA, add(CFA_XSP16, literal(-19)))
          CFI (cfiCond70) V4 load(1, XDATA, add(CFA_XSP16, literal(-18)))
          CFI (cfiCond70) V5 load(1, XDATA, add(CFA_XSP16, literal(-17)))
          CFI (cfiCond70) V6 load(1, XDATA, add(CFA_XSP16, literal(-16)))
          CFI (cfiCond70) V7 load(1, XDATA, add(CFA_XSP16, literal(-15)))
          CFI (cfiCond70) V8 load(1, XDATA, add(CFA_XSP16, literal(-14)))
          CFI (cfiCond70) V9 load(1, XDATA, add(CFA_XSP16, literal(-13)))
          CFI (cfiCond70) V10 load(1, XDATA, add(CFA_XSP16, literal(-12)))
          CFI (cfiCond70) V11 load(1, XDATA, add(CFA_XSP16, literal(-11)))
          CFI (cfiCond70) V12 load(1, XDATA, add(CFA_XSP16, literal(-10)))
          CFI (cfiCond70) V13 load(1, XDATA, add(CFA_XSP16, literal(-9)))
          CFI (cfiCond70) V14 load(1, XDATA, add(CFA_XSP16, literal(-8)))
          CFI (cfiCond70) V15 load(1, XDATA, add(CFA_XSP16, literal(-7)))
          CFI (cfiCond70) R7 load(1, XDATA, add(CFA_XSP16, literal(-6)))
          CFI (cfiCond70) ?RET_LOW load(1, XDATA, add(CFA_XSP16, literal(-5)))
          CFI (cfiCond70) ?RET_HIGH load(1, XDATA, add(CFA_XSP16, literal(-4)))
          CFI (cfiCond70) ?BRET_EXT load(1, XDATA, add(CFA_XSP16, literal(-3)))
          CFI (cfiCond70) DPL0 load(1, XDATA, add(CFA_XSP16, literal(-2)))
          CFI (cfiCond70) DPH0 load(1, XDATA, add(CFA_XSP16, literal(-1)))
          CFI (cfiCond70) CFA_SP SP+-2
          CFI (cfiCond70) CFA_XSP16 add(XSP16, 52)
          CFI Block cfiCond71 Using cfiCommon0
          CFI (cfiCond71) Function MT_ZdoBindRequest
          CFI (cfiCond71) Conditional ??CrossCallReturnLabel_95
          CFI (cfiCond71) R6 load(1, XDATA, add(CFA_XSP16, literal(-16)))
          CFI (cfiCond71) VB load(1, XDATA, add(CFA_XSP16, literal(-15)))
          CFI (cfiCond71) V0 load(1, XDATA, add(CFA_XSP16, literal(-14)))
          CFI (cfiCond71) V1 load(1, XDATA, add(CFA_XSP16, literal(-13)))
          CFI (cfiCond71) V2 load(1, XDATA, add(CFA_XSP16, literal(-12)))
          CFI (cfiCond71) V3 load(1, XDATA, add(CFA_XSP16, literal(-11)))
          CFI (cfiCond71) V4 load(1, XDATA, add(CFA_XSP16, literal(-10)))
          CFI (cfiCond71) V5 load(1, XDATA, add(CFA_XSP16, literal(-9)))
          CFI (cfiCond71) V6 load(1, XDATA, add(CFA_XSP16, literal(-8)))
          CFI (cfiCond71) V7 load(1, XDATA, add(CFA_XSP16, literal(-7)))
          CFI (cfiCond71) R7 load(1, XDATA, add(CFA_XSP16, literal(-6)))
          CFI (cfiCond71) ?RET_LOW load(1, XDATA, add(CFA_XSP16, literal(-5)))
          CFI (cfiCond71) ?RET_HIGH load(1, XDATA, add(CFA_XSP16, literal(-4)))
          CFI (cfiCond71) ?BRET_EXT load(1, XDATA, add(CFA_XSP16, literal(-3)))
          CFI (cfiCond71) DPL0 load(1, XDATA, add(CFA_XSP16, literal(-2)))
          CFI (cfiCond71) DPH0 load(1, XDATA, add(CFA_XSP16, literal(-1)))
          CFI (cfiCond71) CFA_SP SP+-2
          CFI (cfiCond71) CFA_XSP16 add(XSP16, 35)
          CFI Block cfiCond72 Using cfiCommon0
          CFI (cfiCond72) Function MT_ZdoUnbindRequest
          CFI (cfiCond72) Conditional ??CrossCallReturnLabel_95
          CFI (cfiCond72) R6 load(1, XDATA, add(CFA_XSP16, literal(-16)))
          CFI (cfiCond72) VB load(1, XDATA, add(CFA_XSP16, literal(-15)))
          CFI (cfiCond72) V0 load(1, XDATA, add(CFA_XSP16, literal(-14)))
          CFI (cfiCond72) V1 load(1, XDATA, add(CFA_XSP16, literal(-13)))
          CFI (cfiCond72) V2 load(1, XDATA, add(CFA_XSP16, literal(-12)))
          CFI (cfiCond72) V3 load(1, XDATA, add(CFA_XSP16, literal(-11)))
          CFI (cfiCond72) V4 load(1, XDATA, add(CFA_XSP16, literal(-10)))
          CFI (cfiCond72) V5 load(1, XDATA, add(CFA_XSP16, literal(-9)))
          CFI (cfiCond72) V6 load(1, XDATA, add(CFA_XSP16, literal(-8)))
          CFI (cfiCond72) V7 load(1, XDATA, add(CFA_XSP16, literal(-7)))
          CFI (cfiCond72) R7 load(1, XDATA, add(CFA_XSP16, literal(-6)))
          CFI (cfiCond72) ?RET_LOW load(1, XDATA, add(CFA_XSP16, literal(-5)))
          CFI (cfiCond72) ?RET_HIGH load(1, XDATA, add(CFA_XSP16, literal(-4)))
          CFI (cfiCond72) ?BRET_EXT load(1, XDATA, add(CFA_XSP16, literal(-3)))
          CFI (cfiCond72) DPL0 load(1, XDATA, add(CFA_XSP16, literal(-2)))
          CFI (cfiCond72) DPH0 load(1, XDATA, add(CFA_XSP16, literal(-1)))
          CFI (cfiCond72) CFA_SP SP+-2
          CFI (cfiCond72) CFA_XSP16 add(XSP16, 35)
          CFI Block cfiPicker73 Using cfiCommon1
          CFI (cfiPicker73) NoFunction
          CFI (cfiPicker73) Picker
        MOV     A,R1
        MOV     DPL,?XSP + 0
        MOV     DPH,?XSP + 1
          CFI EndBlock cfiCond67
          CFI EndBlock cfiCond68
          CFI EndBlock cfiCond69
          CFI EndBlock cfiCond70
          CFI EndBlock cfiCond71
          CFI EndBlock cfiCond72
          CFI EndBlock cfiPicker73
        REQUIRE ??Subroutine41_0
        ; // Fall through to label ??Subroutine41_0

        RSEG BANKED_CODE:CODE:NOROOT(0)
??Subroutine41_0:
          CFI Block cfiCond74 Using cfiCommon0
          CFI Function MT_ZdoCommandProcessing
          CFI Conditional ??CrossCallReturnLabel_96
          CFI R6 load(1, XDATA, add(CFA_XSP16, literal(-24)))
          CFI VB load(1, XDATA, add(CFA_XSP16, literal(-23)))
          CFI V0 load(1, XDATA, add(CFA_XSP16, literal(-22)))
          CFI V1 load(1, XDATA, add(CFA_XSP16, literal(-21)))
          CFI V2 load(1, XDATA, add(CFA_XSP16, literal(-20)))
          CFI V3 load(1, XDATA, add(CFA_XSP16, literal(-19)))
          CFI V4 load(1, XDATA, add(CFA_XSP16, literal(-18)))
          CFI V5 load(1, XDATA, add(CFA_XSP16, literal(-17)))
          CFI V6 load(1, XDATA, add(CFA_XSP16, literal(-16)))
          CFI V7 load(1, XDATA, add(CFA_XSP16, literal(-15)))
          CFI V8 load(1, XDATA, add(CFA_XSP16, literal(-14)))
          CFI V9 load(1, XDATA, add(CFA_XSP16, literal(-13)))
          CFI V10 load(1, XDATA, add(CFA_XSP16, literal(-12)))
          CFI V11 load(1, XDATA, add(CFA_XSP16, literal(-11)))
          CFI V12 load(1, XDATA, add(CFA_XSP16, literal(-10)))
          CFI V13 load(1, XDATA, add(CFA_XSP16, literal(-9)))
          CFI V14 load(1, XDATA, add(CFA_XSP16, literal(-8)))
          CFI V15 load(1, XDATA, add(CFA_XSP16, literal(-7)))
          CFI R7 load(1, XDATA, add(CFA_XSP16, literal(-6)))
          CFI ?RET_LOW load(1, XDATA, add(CFA_XSP16, literal(-5)))
          CFI ?RET_HIGH load(1, XDATA, add(CFA_XSP16, literal(-4)))
          CFI ?BRET_EXT load(1, XDATA, add(CFA_XSP16, literal(-3)))
          CFI DPL0 load(1, XDATA, add(CFA_XSP16, literal(-2)))
          CFI DPH0 load(1, XDATA, add(CFA_XSP16, literal(-1)))
          CFI CFA_SP SP+-2
          CFI CFA_XSP16 add(XSP16, 52)
          CFI Block cfiCond75 Using cfiCommon0
          CFI (cfiCond75) Function MT_ZdoCommandProcessing
          CFI (cfiCond75) Conditional ??CrossCallReturnLabel_91
          CFI (cfiCond75) R6 load(1, XDATA, add(CFA_XSP16, literal(-24)))
          CFI (cfiCond75) VB load(1, XDATA, add(CFA_XSP16, literal(-23)))
          CFI (cfiCond75) V0 load(1, XDATA, add(CFA_XSP16, literal(-22)))
          CFI (cfiCond75) V1 load(1, XDATA, add(CFA_XSP16, literal(-21)))
          CFI (cfiCond75) V2 load(1, XDATA, add(CFA_XSP16, literal(-20)))
          CFI (cfiCond75) V3 load(1, XDATA, add(CFA_XSP16, literal(-19)))
          CFI (cfiCond75) V4 load(1, XDATA, add(CFA_XSP16, literal(-18)))
          CFI (cfiCond75) V5 load(1, XDATA, add(CFA_XSP16, literal(-17)))
          CFI (cfiCond75) V6 load(1, XDATA, add(CFA_XSP16, literal(-16)))
          CFI (cfiCond75) V7 load(1, XDATA, add(CFA_XSP16, literal(-15)))
          CFI (cfiCond75) V8 load(1, XDATA, add(CFA_XSP16, literal(-14)))
          CFI (cfiCond75) V9 load(1, XDATA, add(CFA_XSP16, literal(-13)))
          CFI (cfiCond75) V10 load(1, XDATA, add(CFA_XSP16, literal(-12)))
          CFI (cfiCond75) V11 load(1, XDATA, add(CFA_XSP16, literal(-11)))
          CFI (cfiCond75) V12 load(1, XDATA, add(CFA_XSP16, literal(-10)))
          CFI (cfiCond75) V13 load(1, XDATA, add(CFA_XSP16, literal(-9)))
          CFI (cfiCond75) V14 load(1, XDATA, add(CFA_XSP16, literal(-8)))
          CFI (cfiCond75) V15 load(1, XDATA, add(CFA_XSP16, literal(-7)))
          CFI (cfiCond75) R7 load(1, XDATA, add(CFA_XSP16, literal(-6)))
          CFI (cfiCond75) ?RET_LOW load(1, XDATA, add(CFA_XSP16, literal(-5)))
          CFI (cfiCond75) ?RET_HIGH load(1, XDATA, add(CFA_XSP16, literal(-4)))
          CFI (cfiCond75) ?BRET_EXT load(1, XDATA, add(CFA_XSP16, literal(-3)))
          CFI (cfiCond75) DPL0 load(1, XDATA, add(CFA_XSP16, literal(-2)))
          CFI (cfiCond75) DPH0 load(1, XDATA, add(CFA_XSP16, literal(-1)))
          CFI (cfiCond75) CFA_SP SP+-2
          CFI (cfiCond75) CFA_XSP16 add(XSP16, 52)
          CFI Block cfiCond76 Using cfiCommon0
          CFI (cfiCond76) Function MT_ZdoCommandProcessing
          CFI (cfiCond76) Conditional ??CrossCallReturnLabel_92
          CFI (cfiCond76) R6 load(1, XDATA, add(CFA_XSP16, literal(-24)))
          CFI (cfiCond76) VB load(1, XDATA, add(CFA_XSP16, literal(-23)))
          CFI (cfiCond76) V0 load(1, XDATA, add(CFA_XSP16, literal(-22)))
          CFI (cfiCond76) V1 load(1, XDATA, add(CFA_XSP16, literal(-21)))
          CFI (cfiCond76) V2 load(1, XDATA, add(CFA_XSP16, literal(-20)))
          CFI (cfiCond76) V3 load(1, XDATA, add(CFA_XSP16, literal(-19)))
          CFI (cfiCond76) V4 load(1, XDATA, add(CFA_XSP16, literal(-18)))
          CFI (cfiCond76) V5 load(1, XDATA, add(CFA_XSP16, literal(-17)))
          CFI (cfiCond76) V6 load(1, XDATA, add(CFA_XSP16, literal(-16)))
          CFI (cfiCond76) V7 load(1, XDATA, add(CFA_XSP16, literal(-15)))
          CFI (cfiCond76) V8 load(1, XDATA, add(CFA_XSP16, literal(-14)))
          CFI (cfiCond76) V9 load(1, XDATA, add(CFA_XSP16, literal(-13)))
          CFI (cfiCond76) V10 load(1, XDATA, add(CFA_XSP16, literal(-12)))
          CFI (cfiCond76) V11 load(1, XDATA, add(CFA_XSP16, literal(-11)))
          CFI (cfiCond76) V12 load(1, XDATA, add(CFA_XSP16, literal(-10)))
          CFI (cfiCond76) V13 load(1, XDATA, add(CFA_XSP16, literal(-9)))
          CFI (cfiCond76) V14 load(1, XDATA, add(CFA_XSP16, literal(-8)))
          CFI (cfiCond76) V15 load(1, XDATA, add(CFA_XSP16, literal(-7)))
          CFI (cfiCond76) R7 load(1, XDATA, add(CFA_XSP16, literal(-6)))
          CFI (cfiCond76) ?RET_LOW load(1, XDATA, add(CFA_XSP16, literal(-5)))
          CFI (cfiCond76) ?RET_HIGH load(1, XDATA, add(CFA_XSP16, literal(-4)))
          CFI (cfiCond76) ?BRET_EXT load(1, XDATA, add(CFA_XSP16, literal(-3)))
          CFI (cfiCond76) DPL0 load(1, XDATA, add(CFA_XSP16, literal(-2)))
          CFI (cfiCond76) DPH0 load(1, XDATA, add(CFA_XSP16, literal(-1)))
          CFI (cfiCond76) CFA_SP SP+-2
          CFI (cfiCond76) CFA_XSP16 add(XSP16, 52)
          CFI Block cfiCond77 Using cfiCommon0
          CFI (cfiCond77) Function MT_ZdoCommandProcessing
          CFI (cfiCond77) Conditional ??CrossCallReturnLabel_93
          CFI (cfiCond77) R6 load(1, XDATA, add(CFA_XSP16, literal(-24)))
          CFI (cfiCond77) VB load(1, XDATA, add(CFA_XSP16, literal(-23)))
          CFI (cfiCond77) V0 load(1, XDATA, add(CFA_XSP16, literal(-22)))
          CFI (cfiCond77) V1 load(1, XDATA, add(CFA_XSP16, literal(-21)))
          CFI (cfiCond77) V2 load(1, XDATA, add(CFA_XSP16, literal(-20)))
          CFI (cfiCond77) V3 load(1, XDATA, add(CFA_XSP16, literal(-19)))
          CFI (cfiCond77) V4 load(1, XDATA, add(CFA_XSP16, literal(-18)))
          CFI (cfiCond77) V5 load(1, XDATA, add(CFA_XSP16, literal(-17)))
          CFI (cfiCond77) V6 load(1, XDATA, add(CFA_XSP16, literal(-16)))
          CFI (cfiCond77) V7 load(1, XDATA, add(CFA_XSP16, literal(-15)))
          CFI (cfiCond77) V8 load(1, XDATA, add(CFA_XSP16, literal(-14)))
          CFI (cfiCond77) V9 load(1, XDATA, add(CFA_XSP16, literal(-13)))
          CFI (cfiCond77) V10 load(1, XDATA, add(CFA_XSP16, literal(-12)))
          CFI (cfiCond77) V11 load(1, XDATA, add(CFA_XSP16, literal(-11)))
          CFI (cfiCond77) V12 load(1, XDATA, add(CFA_XSP16, literal(-10)))
          CFI (cfiCond77) V13 load(1, XDATA, add(CFA_XSP16, literal(-9)))
          CFI (cfiCond77) V14 load(1, XDATA, add(CFA_XSP16, literal(-8)))
          CFI (cfiCond77) V15 load(1, XDATA, add(CFA_XSP16, literal(-7)))
          CFI (cfiCond77) R7 load(1, XDATA, add(CFA_XSP16, literal(-6)))
          CFI (cfiCond77) ?RET_LOW load(1, XDATA, add(CFA_XSP16, literal(-5)))
          CFI (cfiCond77) ?RET_HIGH load(1, XDATA, add(CFA_XSP16, literal(-4)))
          CFI (cfiCond77) ?BRET_EXT load(1, XDATA, add(CFA_XSP16, literal(-3)))
          CFI (cfiCond77) DPL0 load(1, XDATA, add(CFA_XSP16, literal(-2)))
          CFI (cfiCond77) DPH0 load(1, XDATA, add(CFA_XSP16, literal(-1)))
          CFI (cfiCond77) CFA_SP SP+-2
          CFI (cfiCond77) CFA_XSP16 add(XSP16, 52)
          CFI Block cfiCond78 Using cfiCommon0
          CFI (cfiCond78) Function MT_ZdoCommandProcessing
          CFI (cfiCond78) Conditional ??CrossCallReturnLabel_94
          CFI (cfiCond78) R6 load(1, XDATA, add(CFA_XSP16, literal(-24)))
          CFI (cfiCond78) VB load(1, XDATA, add(CFA_XSP16, literal(-23)))
          CFI (cfiCond78) V0 load(1, XDATA, add(CFA_XSP16, literal(-22)))
          CFI (cfiCond78) V1 load(1, XDATA, add(CFA_XSP16, literal(-21)))
          CFI (cfiCond78) V2 load(1, XDATA, add(CFA_XSP16, literal(-20)))
          CFI (cfiCond78) V3 load(1, XDATA, add(CFA_XSP16, literal(-19)))
          CFI (cfiCond78) V4 load(1, XDATA, add(CFA_XSP16, literal(-18)))
          CFI (cfiCond78) V5 load(1, XDATA, add(CFA_XSP16, literal(-17)))
          CFI (cfiCond78) V6 load(1, XDATA, add(CFA_XSP16, literal(-16)))
          CFI (cfiCond78) V7 load(1, XDATA, add(CFA_XSP16, literal(-15)))
          CFI (cfiCond78) V8 load(1, XDATA, add(CFA_XSP16, literal(-14)))
          CFI (cfiCond78) V9 load(1, XDATA, add(CFA_XSP16, literal(-13)))
          CFI (cfiCond78) V10 load(1, XDATA, add(CFA_XSP16, literal(-12)))
          CFI (cfiCond78) V11 load(1, XDATA, add(CFA_XSP16, literal(-11)))
          CFI (cfiCond78) V12 load(1, XDATA, add(CFA_XSP16, literal(-10)))
          CFI (cfiCond78) V13 load(1, XDATA, add(CFA_XSP16, literal(-9)))
          CFI (cfiCond78) V14 load(1, XDATA, add(CFA_XSP16, literal(-8)))
          CFI (cfiCond78) V15 load(1, XDATA, add(CFA_XSP16, literal(-7)))
          CFI (cfiCond78) R7 load(1, XDATA, add(CFA_XSP16, literal(-6)))
          CFI (cfiCond78) ?RET_LOW load(1, XDATA, add(CFA_XSP16, literal(-5)))
          CFI (cfiCond78) ?RET_HIGH load(1, XDATA, add(CFA_XSP16, literal(-4)))
          CFI (cfiCond78) ?BRET_EXT load(1, XDATA, add(CFA_XSP16, literal(-3)))
          CFI (cfiCond78) DPL0 load(1, XDATA, add(CFA_XSP16, literal(-2)))
          CFI (cfiCond78) DPH0 load(1, XDATA, add(CFA_XSP16, literal(-1)))
          CFI (cfiCond78) CFA_SP SP+-2
          CFI (cfiCond78) CFA_XSP16 add(XSP16, 52)
          CFI Block cfiCond79 Using cfiCommon0
          CFI (cfiCond79) Function MT_ZdoBindRequest
          CFI (cfiCond79) Conditional ??CrossCallReturnLabel_95
          CFI (cfiCond79) R6 load(1, XDATA, add(CFA_XSP16, literal(-16)))
          CFI (cfiCond79) VB load(1, XDATA, add(CFA_XSP16, literal(-15)))
          CFI (cfiCond79) V0 load(1, XDATA, add(CFA_XSP16, literal(-14)))
          CFI (cfiCond79) V1 load(1, XDATA, add(CFA_XSP16, literal(-13)))
          CFI (cfiCond79) V2 load(1, XDATA, add(CFA_XSP16, literal(-12)))
          CFI (cfiCond79) V3 load(1, XDATA, add(CFA_XSP16, literal(-11)))
          CFI (cfiCond79) V4 load(1, XDATA, add(CFA_XSP16, literal(-10)))
          CFI (cfiCond79) V5 load(1, XDATA, add(CFA_XSP16, literal(-9)))
          CFI (cfiCond79) V6 load(1, XDATA, add(CFA_XSP16, literal(-8)))
          CFI (cfiCond79) V7 load(1, XDATA, add(CFA_XSP16, literal(-7)))
          CFI (cfiCond79) R7 load(1, XDATA, add(CFA_XSP16, literal(-6)))
          CFI (cfiCond79) ?RET_LOW load(1, XDATA, add(CFA_XSP16, literal(-5)))
          CFI (cfiCond79) ?RET_HIGH load(1, XDATA, add(CFA_XSP16, literal(-4)))
          CFI (cfiCond79) ?BRET_EXT load(1, XDATA, add(CFA_XSP16, literal(-3)))
          CFI (cfiCond79) DPL0 load(1, XDATA, add(CFA_XSP16, literal(-2)))
          CFI (cfiCond79) DPH0 load(1, XDATA, add(CFA_XSP16, literal(-1)))
          CFI (cfiCond79) CFA_SP SP+-2
          CFI (cfiCond79) CFA_XSP16 add(XSP16, 35)
          CFI Block cfiCond80 Using cfiCommon0
          CFI (cfiCond80) Function MT_ZdoUnbindRequest
          CFI (cfiCond80) Conditional ??CrossCallReturnLabel_95
          CFI (cfiCond80) R6 load(1, XDATA, add(CFA_XSP16, literal(-16)))
          CFI (cfiCond80) VB load(1, XDATA, add(CFA_XSP16, literal(-15)))
          CFI (cfiCond80) V0 load(1, XDATA, add(CFA_XSP16, literal(-14)))
          CFI (cfiCond80) V1 load(1, XDATA, add(CFA_XSP16, literal(-13)))
          CFI (cfiCond80) V2 load(1, XDATA, add(CFA_XSP16, literal(-12)))
          CFI (cfiCond80) V3 load(1, XDATA, add(CFA_XSP16, literal(-11)))
          CFI (cfiCond80) V4 load(1, XDATA, add(CFA_XSP16, literal(-10)))
          CFI (cfiCond80) V5 load(1, XDATA, add(CFA_XSP16, literal(-9)))
          CFI (cfiCond80) V6 load(1, XDATA, add(CFA_XSP16, literal(-8)))
          CFI (cfiCond80) V7 load(1, XDATA, add(CFA_XSP16, literal(-7)))
          CFI (cfiCond80) R7 load(1, XDATA, add(CFA_XSP16, literal(-6)))
          CFI (cfiCond80) ?RET_LOW load(1, XDATA, add(CFA_XSP16, literal(-5)))
          CFI (cfiCond80) ?RET_HIGH load(1, XDATA, add(CFA_XSP16, literal(-4)))
          CFI (cfiCond80) ?BRET_EXT load(1, XDATA, add(CFA_XSP16, literal(-3)))
          CFI (cfiCond80) DPL0 load(1, XDATA, add(CFA_XSP16, literal(-2)))
          CFI (cfiCond80) DPH0 load(1, XDATA, add(CFA_XSP16, literal(-1)))
          CFI (cfiCond80) CFA_SP SP+-2
          CFI (cfiCond80) CFA_XSP16 add(XSP16, 35)
          CFI Block cfiPicker81 Using cfiCommon1
          CFI (cfiPicker81) NoFunction
          CFI (cfiPicker81) Picker
        MOVX    @DPTR,A
        ; Setup parameters for call to function MT_BuildAndSendZToolResponse
        ; Setup parameters for call to function MT_BuildAndSendZToolResponse
        ; Setup parameters for call to function MT_BuildAndSendZToolResponse
        ; Setup parameters for call to function MT_BuildAndSendZToolResponse
        ; Setup parameters for call to function MT_BuildAndSendZToolResponse
        ; Setup parameters for call to function MT_BuildAndSendZToolResponse
        ; Setup parameters for call to function MT_BuildAndSendZToolResponse
        MOV     R4,?XSP + 0
        MOV     R5,?XSP + 1
        MOV     R3,#0x1
        RET
          CFI EndBlock cfiCond74
          CFI EndBlock cfiCond75
          CFI EndBlock cfiCond76
          CFI EndBlock cfiCond77
          CFI EndBlock cfiCond78
          CFI EndBlock cfiCond79
          CFI EndBlock cfiCond80
          CFI EndBlock cfiPicker81

        RSEG BANKED_CODE:CODE:NOROOT(0)
?Subroutine19:
          CFI Block cfiCond82 Using cfiCommon0
          CFI Function MT_ZdoCommandProcessing
          CFI Conditional ??CrossCallReturnLabel_30
          CFI R6 load(1, XDATA, add(CFA_XSP16, literal(-24)))
          CFI VB load(1, XDATA, add(CFA_XSP16, literal(-23)))
          CFI V0 load(1, XDATA, add(CFA_XSP16, literal(-22)))
          CFI V1 load(1, XDATA, add(CFA_XSP16, literal(-21)))
          CFI V2 load(1, XDATA, add(CFA_XSP16, literal(-20)))
          CFI V3 load(1, XDATA, add(CFA_XSP16, literal(-19)))
          CFI V4 load(1, XDATA, add(CFA_XSP16, literal(-18)))
          CFI V5 load(1, XDATA, add(CFA_XSP16, literal(-17)))
          CFI V6 load(1, XDATA, add(CFA_XSP16, literal(-16)))
          CFI V7 load(1, XDATA, add(CFA_XSP16, literal(-15)))
          CFI V8 load(1, XDATA, add(CFA_XSP16, literal(-14)))
          CFI V9 load(1, XDATA, add(CFA_XSP16, literal(-13)))
          CFI V10 load(1, XDATA, add(CFA_XSP16, literal(-12)))
          CFI V11 load(1, XDATA, add(CFA_XSP16, literal(-11)))
          CFI V12 load(1, XDATA, add(CFA_XSP16, literal(-10)))
          CFI V13 load(1, XDATA, add(CFA_XSP16, literal(-9)))
          CFI V14 load(1, XDATA, add(CFA_XSP16, literal(-8)))
          CFI V15 load(1, XDATA, add(CFA_XSP16, literal(-7)))
          CFI R7 load(1, XDATA, add(CFA_XSP16, literal(-6)))
          CFI ?RET_LOW load(1, XDATA, add(CFA_XSP16, literal(-5)))
          CFI ?RET_HIGH load(1, XDATA, add(CFA_XSP16, literal(-4)))
          CFI ?BRET_EXT load(1, XDATA, add(CFA_XSP16, literal(-3)))
          CFI DPL0 load(1, XDATA, add(CFA_XSP16, literal(-2)))
          CFI DPH0 load(1, XDATA, add(CFA_XSP16, literal(-1)))
          CFI CFA_SP SP+-2
          CFI CFA_XSP16 add(XSP16, 52)
          CFI Block cfiCond83 Using cfiCommon0
          CFI (cfiCond83) Function MT_ZdoCommandProcessing
          CFI (cfiCond83) Conditional ??CrossCallReturnLabel_31
          CFI (cfiCond83) R6 load(1, XDATA, add(CFA_XSP16, literal(-24)))
          CFI (cfiCond83) VB load(1, XDATA, add(CFA_XSP16, literal(-23)))
          CFI (cfiCond83) V0 load(1, XDATA, add(CFA_XSP16, literal(-22)))
          CFI (cfiCond83) V1 load(1, XDATA, add(CFA_XSP16, literal(-21)))
          CFI (cfiCond83) V2 load(1, XDATA, add(CFA_XSP16, literal(-20)))
          CFI (cfiCond83) V3 load(1, XDATA, add(CFA_XSP16, literal(-19)))
          CFI (cfiCond83) V4 load(1, XDATA, add(CFA_XSP16, literal(-18)))
          CFI (cfiCond83) V5 load(1, XDATA, add(CFA_XSP16, literal(-17)))
          CFI (cfiCond83) V6 load(1, XDATA, add(CFA_XSP16, literal(-16)))
          CFI (cfiCond83) V7 load(1, XDATA, add(CFA_XSP16, literal(-15)))
          CFI (cfiCond83) V8 load(1, XDATA, add(CFA_XSP16, literal(-14)))
          CFI (cfiCond83) V9 load(1, XDATA, add(CFA_XSP16, literal(-13)))
          CFI (cfiCond83) V10 load(1, XDATA, add(CFA_XSP16, literal(-12)))
          CFI (cfiCond83) V11 load(1, XDATA, add(CFA_XSP16, literal(-11)))
          CFI (cfiCond83) V12 load(1, XDATA, add(CFA_XSP16, literal(-10)))
          CFI (cfiCond83) V13 load(1, XDATA, add(CFA_XSP16, literal(-9)))
          CFI (cfiCond83) V14 load(1, XDATA, add(CFA_XSP16, literal(-8)))
          CFI (cfiCond83) V15 load(1, XDATA, add(CFA_XSP16, literal(-7)))
          CFI (cfiCond83) R7 load(1, XDATA, add(CFA_XSP16, literal(-6)))
          CFI (cfiCond83) ?RET_LOW load(1, XDATA, add(CFA_XSP16, literal(-5)))
          CFI (cfiCond83) ?RET_HIGH load(1, XDATA, add(CFA_XSP16, literal(-4)))
          CFI (cfiCond83) ?BRET_EXT load(1, XDATA, add(CFA_XSP16, literal(-3)))
          CFI (cfiCond83) DPL0 load(1, XDATA, add(CFA_XSP16, literal(-2)))
          CFI (cfiCond83) DPH0 load(1, XDATA, add(CFA_XSP16, literal(-1)))
          CFI (cfiCond83) CFA_SP SP+-2
          CFI (cfiCond83) CFA_XSP16 add(XSP16, 52)
          CFI Block cfiCond84 Using cfiCommon0
          CFI (cfiCond84) Function MT_ZdoCommandProcessing
          CFI (cfiCond84) Conditional ??CrossCallReturnLabel_32
          CFI (cfiCond84) R6 load(1, XDATA, add(CFA_XSP16, literal(-24)))
          CFI (cfiCond84) VB load(1, XDATA, add(CFA_XSP16, literal(-23)))
          CFI (cfiCond84) V0 load(1, XDATA, add(CFA_XSP16, literal(-22)))
          CFI (cfiCond84) V1 load(1, XDATA, add(CFA_XSP16, literal(-21)))
          CFI (cfiCond84) V2 load(1, XDATA, add(CFA_XSP16, literal(-20)))
          CFI (cfiCond84) V3 load(1, XDATA, add(CFA_XSP16, literal(-19)))
          CFI (cfiCond84) V4 load(1, XDATA, add(CFA_XSP16, literal(-18)))
          CFI (cfiCond84) V5 load(1, XDATA, add(CFA_XSP16, literal(-17)))
          CFI (cfiCond84) V6 load(1, XDATA, add(CFA_XSP16, literal(-16)))
          CFI (cfiCond84) V7 load(1, XDATA, add(CFA_XSP16, literal(-15)))
          CFI (cfiCond84) V8 load(1, XDATA, add(CFA_XSP16, literal(-14)))
          CFI (cfiCond84) V9 load(1, XDATA, add(CFA_XSP16, literal(-13)))
          CFI (cfiCond84) V10 load(1, XDATA, add(CFA_XSP16, literal(-12)))
          CFI (cfiCond84) V11 load(1, XDATA, add(CFA_XSP16, literal(-11)))
          CFI (cfiCond84) V12 load(1, XDATA, add(CFA_XSP16, literal(-10)))
          CFI (cfiCond84) V13 load(1, XDATA, add(CFA_XSP16, literal(-9)))
          CFI (cfiCond84) V14 load(1, XDATA, add(CFA_XSP16, literal(-8)))
          CFI (cfiCond84) V15 load(1, XDATA, add(CFA_XSP16, literal(-7)))
          CFI (cfiCond84) R7 load(1, XDATA, add(CFA_XSP16, literal(-6)))
          CFI (cfiCond84) ?RET_LOW load(1, XDATA, add(CFA_XSP16, literal(-5)))
          CFI (cfiCond84) ?RET_HIGH load(1, XDATA, add(CFA_XSP16, literal(-4)))
          CFI (cfiCond84) ?BRET_EXT load(1, XDATA, add(CFA_XSP16, literal(-3)))
          CFI (cfiCond84) DPL0 load(1, XDATA, add(CFA_XSP16, literal(-2)))
          CFI (cfiCond84) DPH0 load(1, XDATA, add(CFA_XSP16, literal(-1)))
          CFI (cfiCond84) CFA_SP SP+-2
          CFI (cfiCond84) CFA_XSP16 add(XSP16, 52)
          CFI Block cfiCond85 Using cfiCommon0
          CFI (cfiCond85) Function MT_ZdoCommandProcessing
          CFI (cfiCond85) Conditional ??CrossCallReturnLabel_33
          CFI (cfiCond85) R6 load(1, XDATA, add(CFA_XSP16, literal(-24)))
          CFI (cfiCond85) VB load(1, XDATA, add(CFA_XSP16, literal(-23)))
          CFI (cfiCond85) V0 load(1, XDATA, add(CFA_XSP16, literal(-22)))
          CFI (cfiCond85) V1 load(1, XDATA, add(CFA_XSP16, literal(-21)))
          CFI (cfiCond85) V2 load(1, XDATA, add(CFA_XSP16, literal(-20)))
          CFI (cfiCond85) V3 load(1, XDATA, add(CFA_XSP16, literal(-19)))
          CFI (cfiCond85) V4 load(1, XDATA, add(CFA_XSP16, literal(-18)))
          CFI (cfiCond85) V5 load(1, XDATA, add(CFA_XSP16, literal(-17)))
          CFI (cfiCond85) V6 load(1, XDATA, add(CFA_XSP16, literal(-16)))
          CFI (cfiCond85) V7 load(1, XDATA, add(CFA_XSP16, literal(-15)))
          CFI (cfiCond85) V8 load(1, XDATA, add(CFA_XSP16, literal(-14)))
          CFI (cfiCond85) V9 load(1, XDATA, add(CFA_XSP16, literal(-13)))
          CFI (cfiCond85) V10 load(1, XDATA, add(CFA_XSP16, literal(-12)))
          CFI (cfiCond85) V11 load(1, XDATA, add(CFA_XSP16, literal(-11)))
          CFI (cfiCond85) V12 load(1, XDATA, add(CFA_XSP16, literal(-10)))
          CFI (cfiCond85) V13 load(1, XDATA, add(CFA_XSP16, literal(-9)))
          CFI (cfiCond85) V14 load(1, XDATA, add(CFA_XSP16, literal(-8)))
          CFI (cfiCond85) V15 load(1, XDATA, add(CFA_XSP16, literal(-7)))
          CFI (cfiCond85) R7 load(1, XDATA, add(CFA_XSP16, literal(-6)))
          CFI (cfiCond85) ?RET_LOW load(1, XDATA, add(CFA_XSP16, literal(-5)))
          CFI (cfiCond85) ?RET_HIGH load(1, XDATA, add(CFA_XSP16, literal(-4)))
          CFI (cfiCond85) ?BRET_EXT load(1, XDATA, add(CFA_XSP16, literal(-3)))
          CFI (cfiCond85) DPL0 load(1, XDATA, add(CFA_XSP16, literal(-2)))
          CFI (cfiCond85) DPH0 load(1, XDATA, add(CFA_XSP16, literal(-1)))
          CFI (cfiCond85) CFA_SP SP+-2
          CFI (cfiCond85) CFA_XSP16 add(XSP16, 52)
          CFI Block cfiCond86 Using cfiCommon0
          CFI (cfiCond86) Function MT_ZdoCommandProcessing
          CFI (cfiCond86) Conditional ??CrossCallReturnLabel_34
          CFI (cfiCond86) R6 load(1, XDATA, add(CFA_XSP16, literal(-24)))
          CFI (cfiCond86) VB load(1, XDATA, add(CFA_XSP16, literal(-23)))
          CFI (cfiCond86) V0 load(1, XDATA, add(CFA_XSP16, literal(-22)))
          CFI (cfiCond86) V1 load(1, XDATA, add(CFA_XSP16, literal(-21)))
          CFI (cfiCond86) V2 load(1, XDATA, add(CFA_XSP16, literal(-20)))
          CFI (cfiCond86) V3 load(1, XDATA, add(CFA_XSP16, literal(-19)))
          CFI (cfiCond86) V4 load(1, XDATA, add(CFA_XSP16, literal(-18)))
          CFI (cfiCond86) V5 load(1, XDATA, add(CFA_XSP16, literal(-17)))
          CFI (cfiCond86) V6 load(1, XDATA, add(CFA_XSP16, literal(-16)))
          CFI (cfiCond86) V7 load(1, XDATA, add(CFA_XSP16, literal(-15)))
          CFI (cfiCond86) V8 load(1, XDATA, add(CFA_XSP16, literal(-14)))
          CFI (cfiCond86) V9 load(1, XDATA, add(CFA_XSP16, literal(-13)))
          CFI (cfiCond86) V10 load(1, XDATA, add(CFA_XSP16, literal(-12)))
          CFI (cfiCond86) V11 load(1, XDATA, add(CFA_XSP16, literal(-11)))
          CFI (cfiCond86) V12 load(1, XDATA, add(CFA_XSP16, literal(-10)))
          CFI (cfiCond86) V13 load(1, XDATA, add(CFA_XSP16, literal(-9)))
          CFI (cfiCond86) V14 load(1, XDATA, add(CFA_XSP16, literal(-8)))
          CFI (cfiCond86) V15 load(1, XDATA, add(CFA_XSP16, literal(-7)))
          CFI (cfiCond86) R7 load(1, XDATA, add(CFA_XSP16, literal(-6)))
          CFI (cfiCond86) ?RET_LOW load(1, XDATA, add(CFA_XSP16, literal(-5)))
          CFI (cfiCond86) ?RET_HIGH load(1, XDATA, add(CFA_XSP16, literal(-4)))
          CFI (cfiCond86) ?BRET_EXT load(1, XDATA, add(CFA_XSP16, literal(-3)))
          CFI (cfiCond86) DPL0 load(1, XDATA, add(CFA_XSP16, literal(-2)))
          CFI (cfiCond86) DPH0 load(1, XDATA, add(CFA_XSP16, literal(-1)))
          CFI (cfiCond86) CFA_SP SP+-2
          CFI (cfiCond86) CFA_XSP16 add(XSP16, 52)
          CFI Block cfiCond87 Using cfiCommon0
          CFI (cfiCond87) Function MT_ZdoCommandProcessing
          CFI (cfiCond87) Conditional ??CrossCallReturnLabel_35
          CFI (cfiCond87) R6 load(1, XDATA, add(CFA_XSP16, literal(-24)))
          CFI (cfiCond87) VB load(1, XDATA, add(CFA_XSP16, literal(-23)))
          CFI (cfiCond87) V0 load(1, XDATA, add(CFA_XSP16, literal(-22)))
          CFI (cfiCond87) V1 load(1, XDATA, add(CFA_XSP16, literal(-21)))
          CFI (cfiCond87) V2 load(1, XDATA, add(CFA_XSP16, literal(-20)))
          CFI (cfiCond87) V3 load(1, XDATA, add(CFA_XSP16, literal(-19)))
          CFI (cfiCond87) V4 load(1, XDATA, add(CFA_XSP16, literal(-18)))
          CFI (cfiCond87) V5 load(1, XDATA, add(CFA_XSP16, literal(-17)))
          CFI (cfiCond87) V6 load(1, XDATA, add(CFA_XSP16, literal(-16)))
          CFI (cfiCond87) V7 load(1, XDATA, add(CFA_XSP16, literal(-15)))
          CFI (cfiCond87) V8 load(1, XDATA, add(CFA_XSP16, literal(-14)))
          CFI (cfiCond87) V9 load(1, XDATA, add(CFA_XSP16, literal(-13)))
          CFI (cfiCond87) V10 load(1, XDATA, add(CFA_XSP16, literal(-12)))
          CFI (cfiCond87) V11 load(1, XDATA, add(CFA_XSP16, literal(-11)))
          CFI (cfiCond87) V12 load(1, XDATA, add(CFA_XSP16, literal(-10)))
          CFI (cfiCond87) V13 load(1, XDATA, add(CFA_XSP16, literal(-9)))
          CFI (cfiCond87) V14 load(1, XDATA, add(CFA_XSP16, literal(-8)))
          CFI (cfiCond87) V15 load(1, XDATA, add(CFA_XSP16, literal(-7)))
          CFI (cfiCond87) R7 load(1, XDATA, add(CFA_XSP16, literal(-6)))
          CFI (cfiCond87) ?RET_LOW load(1, XDATA, add(CFA_XSP16, literal(-5)))
          CFI (cfiCond87) ?RET_HIGH load(1, XDATA, add(CFA_XSP16, literal(-4)))
          CFI (cfiCond87) ?BRET_EXT load(1, XDATA, add(CFA_XSP16, literal(-3)))
          CFI (cfiCond87) DPL0 load(1, XDATA, add(CFA_XSP16, literal(-2)))
          CFI (cfiCond87) DPH0 load(1, XDATA, add(CFA_XSP16, literal(-1)))
          CFI (cfiCond87) CFA_SP SP+-2
          CFI (cfiCond87) CFA_XSP16 add(XSP16, 52)
          CFI Block cfiCond88 Using cfiCommon0
          CFI (cfiCond88) Function MT_ZdoMatchDescRequest
          CFI (cfiCond88) Conditional ??CrossCallReturnLabel_36
          CFI (cfiCond88) R6 load(1, XDATA, add(CFA_XSP16, literal(-18)))
          CFI (cfiCond88) VB load(1, XDATA, add(CFA_XSP16, literal(-17)))
          CFI (cfiCond88) V0 load(1, XDATA, add(CFA_XSP16, literal(-16)))
          CFI (cfiCond88) V1 load(1, XDATA, add(CFA_XSP16, literal(-15)))
          CFI (cfiCond88) V2 load(1, XDATA, add(CFA_XSP16, literal(-14)))
          CFI (cfiCond88) V3 load(1, XDATA, add(CFA_XSP16, literal(-13)))
          CFI (cfiCond88) V4 load(1, XDATA, add(CFA_XSP16, literal(-12)))
          CFI (cfiCond88) V5 load(1, XDATA, add(CFA_XSP16, literal(-11)))
          CFI (cfiCond88) V6 load(1, XDATA, add(CFA_XSP16, literal(-10)))
          CFI (cfiCond88) V7 load(1, XDATA, add(CFA_XSP16, literal(-9)))
          CFI (cfiCond88) V8 load(1, XDATA, add(CFA_XSP16, literal(-8)))
          CFI (cfiCond88) V9 load(1, XDATA, add(CFA_XSP16, literal(-7)))
          CFI (cfiCond88) R7 load(1, XDATA, add(CFA_XSP16, literal(-6)))
          CFI (cfiCond88) ?RET_LOW load(1, XDATA, add(CFA_XSP16, literal(-5)))
          CFI (cfiCond88) ?RET_HIGH load(1, XDATA, add(CFA_XSP16, literal(-4)))
          CFI (cfiCond88) ?BRET_EXT load(1, XDATA, add(CFA_XSP16, literal(-3)))
          CFI (cfiCond88) DPL0 load(1, XDATA, add(CFA_XSP16, literal(-2)))
          CFI (cfiCond88) DPH0 load(1, XDATA, add(CFA_XSP16, literal(-1)))
          CFI (cfiCond88) CFA_SP SP+-2
          CFI (cfiCond88) CFA_XSP16 add(XSP16, 92)
          CFI Block cfiCond89 Using cfiCommon0
          CFI (cfiCond89) Function MT_ZdoEndDevBindRequest
          CFI (cfiCond89) Conditional ??CrossCallReturnLabel_37
          CFI (cfiCond89) R6 load(1, XDATA, add(CFA_XSP16, literal(-20)))
          CFI (cfiCond89) VB load(1, XDATA, add(CFA_XSP16, literal(-19)))
          CFI (cfiCond89) V0 load(1, XDATA, add(CFA_XSP16, literal(-18)))
          CFI (cfiCond89) V1 load(1, XDATA, add(CFA_XSP16, literal(-17)))
          CFI (cfiCond89) V2 load(1, XDATA, add(CFA_XSP16, literal(-16)))
          CFI (cfiCond89) V3 load(1, XDATA, add(CFA_XSP16, literal(-15)))
          CFI (cfiCond89) V4 load(1, XDATA, add(CFA_XSP16, literal(-14)))
          CFI (cfiCond89) V5 load(1, XDATA, add(CFA_XSP16, literal(-13)))
          CFI (cfiCond89) V6 load(1, XDATA, add(CFA_XSP16, literal(-12)))
          CFI (cfiCond89) V7 load(1, XDATA, add(CFA_XSP16, literal(-11)))
          CFI (cfiCond89) V8 load(1, XDATA, add(CFA_XSP16, literal(-10)))
          CFI (cfiCond89) V9 load(1, XDATA, add(CFA_XSP16, literal(-9)))
          CFI (cfiCond89) V10 load(1, XDATA, add(CFA_XSP16, literal(-8)))
          CFI (cfiCond89) V11 load(1, XDATA, add(CFA_XSP16, literal(-7)))
          CFI (cfiCond89) R7 load(1, XDATA, add(CFA_XSP16, literal(-6)))
          CFI (cfiCond89) ?RET_LOW load(1, XDATA, add(CFA_XSP16, literal(-5)))
          CFI (cfiCond89) ?RET_HIGH load(1, XDATA, add(CFA_XSP16, literal(-4)))
          CFI (cfiCond89) ?BRET_EXT load(1, XDATA, add(CFA_XSP16, literal(-3)))
          CFI (cfiCond89) DPL0 load(1, XDATA, add(CFA_XSP16, literal(-2)))
          CFI (cfiCond89) DPH0 load(1, XDATA, add(CFA_XSP16, literal(-1)))
          CFI (cfiCond89) CFA_SP SP+-2
          CFI (cfiCond89) CFA_XSP16 add(XSP16, 90)
          CFI Block cfiCond90 Using cfiCommon0
          CFI (cfiCond90) Function MT_ZdoBindRequest
          CFI (cfiCond90) Conditional ??CrossCallReturnLabel_38
          CFI (cfiCond90) R6 load(1, XDATA, add(CFA_XSP16, literal(-16)))
          CFI (cfiCond90) VB load(1, XDATA, add(CFA_XSP16, literal(-15)))
          CFI (cfiCond90) V0 load(1, XDATA, add(CFA_XSP16, literal(-14)))
          CFI (cfiCond90) V1 load(1, XDATA, add(CFA_XSP16, literal(-13)))
          CFI (cfiCond90) V2 load(1, XDATA, add(CFA_XSP16, literal(-12)))
          CFI (cfiCond90) V3 load(1, XDATA, add(CFA_XSP16, literal(-11)))
          CFI (cfiCond90) V4 load(1, XDATA, add(CFA_XSP16, literal(-10)))
          CFI (cfiCond90) V5 load(1, XDATA, add(CFA_XSP16, literal(-9)))
          CFI (cfiCond90) V6 load(1, XDATA, add(CFA_XSP16, literal(-8)))
          CFI (cfiCond90) V7 load(1, XDATA, add(CFA_XSP16, literal(-7)))
          CFI (cfiCond90) R7 load(1, XDATA, add(CFA_XSP16, literal(-6)))
          CFI (cfiCond90) ?RET_LOW load(1, XDATA, add(CFA_XSP16, literal(-5)))
          CFI (cfiCond90) ?RET_HIGH load(1, XDATA, add(CFA_XSP16, literal(-4)))
          CFI (cfiCond90) ?BRET_EXT load(1, XDATA, add(CFA_XSP16, literal(-3)))
          CFI (cfiCond90) DPL0 load(1, XDATA, add(CFA_XSP16, literal(-2)))
          CFI (cfiCond90) DPH0 load(1, XDATA, add(CFA_XSP16, literal(-1)))
          CFI (cfiCond90) CFA_SP SP+-2
          CFI (cfiCond90) CFA_XSP16 add(XSP16, 35)
          CFI Block cfiCond91 Using cfiCommon0
          CFI (cfiCond91) Function MT_ZdoUnbindRequest
          CFI (cfiCond91) Conditional ??CrossCallReturnLabel_39
          CFI (cfiCond91) R6 load(1, XDATA, add(CFA_XSP16, literal(-16)))
          CFI (cfiCond91) VB load(1, XDATA, add(CFA_XSP16, literal(-15)))
          CFI (cfiCond91) V0 load(1, XDATA, add(CFA_XSP16, literal(-14)))
          CFI (cfiCond91) V1 load(1, XDATA, add(CFA_XSP16, literal(-13)))
          CFI (cfiCond91) V2 load(1, XDATA, add(CFA_XSP16, literal(-12)))
          CFI (cfiCond91) V3 load(1, XDATA, add(CFA_XSP16, literal(-11)))
          CFI (cfiCond91) V4 load(1, XDATA, add(CFA_XSP16, literal(-10)))
          CFI (cfiCond91) V5 load(1, XDATA, add(CFA_XSP16, literal(-9)))
          CFI (cfiCond91) V6 load(1, XDATA, add(CFA_XSP16, literal(-8)))
          CFI (cfiCond91) V7 load(1, XDATA, add(CFA_XSP16, literal(-7)))
          CFI (cfiCond91) R7 load(1, XDATA, add(CFA_XSP16, literal(-6)))
          CFI (cfiCond91) ?RET_LOW load(1, XDATA, add(CFA_XSP16, literal(-5)))
          CFI (cfiCond91) ?RET_HIGH load(1, XDATA, add(CFA_XSP16, literal(-4)))
          CFI (cfiCond91) ?BRET_EXT load(1, XDATA, add(CFA_XSP16, literal(-3)))
          CFI (cfiCond91) DPL0 load(1, XDATA, add(CFA_XSP16, literal(-2)))
          CFI (cfiCond91) DPH0 load(1, XDATA, add(CFA_XSP16, literal(-1)))
          CFI (cfiCond91) CFA_SP SP+-2
          CFI (cfiCond91) CFA_XSP16 add(XSP16, 35)
          CFI Block cfiCond92 Using cfiCommon0
          CFI (cfiCond92) Function MT_ZdoNwkAddrOfInterestReq
          CFI (cfiCond92) Conditional ??CrossCallReturnLabel_40
          CFI (cfiCond92) R6 load(1, XDATA, add(CFA_XSP16, literal(-14)))
          CFI (cfiCond92) VB load(1, XDATA, add(CFA_XSP16, literal(-13)))
          CFI (cfiCond92) V0 load(1, XDATA, add(CFA_XSP16, literal(-12)))
          CFI (cfiCond92) V1 load(1, XDATA, add(CFA_XSP16, literal(-11)))
          CFI (cfiCond92) V2 load(1, XDATA, add(CFA_XSP16, literal(-10)))
          CFI (cfiCond92) V3 load(1, XDATA, add(CFA_XSP16, literal(-9)))
          CFI (cfiCond92) V4 load(1, XDATA, add(CFA_XSP16, literal(-8)))
          CFI (cfiCond92) V5 load(1, XDATA, add(CFA_XSP16, literal(-7)))
          CFI (cfiCond92) R7 load(1, XDATA, add(CFA_XSP16, literal(-6)))
          CFI (cfiCond92) ?RET_LOW load(1, XDATA, add(CFA_XSP16, literal(-5)))
          CFI (cfiCond92) ?RET_HIGH load(1, XDATA, add(CFA_XSP16, literal(-4)))
          CFI (cfiCond92) ?BRET_EXT load(1, XDATA, add(CFA_XSP16, literal(-3)))
          CFI (cfiCond92) DPL0 load(1, XDATA, add(CFA_XSP16, literal(-2)))
          CFI (cfiCond92) DPH0 load(1, XDATA, add(CFA_XSP16, literal(-1)))
          CFI (cfiCond92) CFA_SP SP+-2
          CFI (cfiCond92) CFA_XSP16 add(XSP16, 24)
          CFI Block cfiPicker93 Using cfiCommon1
          CFI (cfiPicker93) NoFunction
          CFI (cfiPicker93) Picker
        MOV     A,#0x2
        MOVX    @DPTR,A
        ; Setup parameters for call to function osal_build_uint16
        ; Setup parameters for call to function osal_build_uint16
        ; Setup parameters for call to function osal_build_uint16
        ; Setup parameters for call to function osal_build_uint16
        ; Setup parameters for call to function osal_build_uint16
        ; Setup parameters for call to function osal_build_uint16
        ; Setup parameters for call to function osal_build_uint16
        ; Setup parameters for call to function osal_build_uint16
        ; Setup parameters for call to function osal_build_uint16
        ; Setup parameters for call to function osal_build_uint16
        ; Setup parameters for call to function osal_build_uint16
        INC     R2
        INC     R2
        INC     R2
        MOV     A,R7
        MOV     R3,A
        RET
          CFI EndBlock cfiCond82
          CFI EndBlock cfiCond83
          CFI EndBlock cfiCond84
          CFI EndBlock cfiCond85
          CFI EndBlock cfiCond86
          CFI EndBlock cfiCond87
          CFI EndBlock cfiCond88
          CFI EndBlock cfiCond89
          CFI EndBlock cfiCond90
          CFI EndBlock cfiCond91
          CFI EndBlock cfiCond92
          CFI EndBlock cfiPicker93
// 1137 
// 1138 /***************************************************************************************************
// 1139  * @fn      MT_ZdoUnbindRequest
// 1140  *
// 1141  * @brief   Handle a Unbind request.
// 1142  *
// 1143  * @param   pBuf  - MT message data
// 1144  *
// 1145  * @return  void
// 1146  ***************************************************************************************************/

        RSEG BANKED_CODE:CODE:NOROOT(0)
// 1147 static void MT_ZdoUnbindRequest(uint8 *pBuf)
MT_ZdoUnbindRequest:
          CFI Block cfiBlock94 Using cfiCommon0
          CFI Function MT_ZdoUnbindRequest
        CODE
// 1148 {
        FUNCALL MT_ZdoUnbindRequest, osal_build_uint16
        LOCFRAME ISTACK, 0, STACK
        LOCFRAME PSTACK, 0, STACK
        LOCFRAME XSTACK, 35, STACK
        LOCFRAME IOVERLAY, 0, STATIC
        LOCFRAME DOVERLAY, 0, STATIC
        ARGFRAME ISTACK, 0, STACK
        ARGFRAME PSTACK, 0, STACK
        ARGFRAME XSTACK, 35, STACK
        ARGFRAME IOVERLAY, 0, STATIC
        ARGFRAME DOVERLAY, 0, STATIC
        FUNCALL MT_ZdoUnbindRequest, osal_build_uint16
        LOCFRAME ISTACK, 0, STACK
        LOCFRAME PSTACK, 0, STACK
        LOCFRAME XSTACK, 35, STACK
        LOCFRAME IOVERLAY, 0, STATIC
        LOCFRAME DOVERLAY, 0, STATIC
        ARGFRAME ISTACK, 0, STACK
        ARGFRAME PSTACK, 0, STACK
        ARGFRAME XSTACK, 35, STACK
        ARGFRAME IOVERLAY, 0, STATIC
        ARGFRAME DOVERLAY, 0, STATIC
        FUNCALL MT_ZdoUnbindRequest, sAddrExtCpy
        LOCFRAME ISTACK, 0, STACK
        LOCFRAME PSTACK, 0, STACK
        LOCFRAME XSTACK, 35, STACK
        LOCFRAME IOVERLAY, 0, STATIC
        LOCFRAME DOVERLAY, 0, STATIC
        ARGFRAME ISTACK, 0, STACK
        ARGFRAME PSTACK, 0, STACK
        ARGFRAME XSTACK, 35, STACK
        ARGFRAME IOVERLAY, 0, STATIC
        ARGFRAME DOVERLAY, 0, STATIC
        FUNCALL MT_ZdoUnbindRequest, osal_build_uint16
        LOCFRAME ISTACK, 0, STACK
        LOCFRAME PSTACK, 0, STACK
        LOCFRAME XSTACK, 35, STACK
        LOCFRAME IOVERLAY, 0, STATIC
        LOCFRAME DOVERLAY, 0, STATIC
        ARGFRAME ISTACK, 0, STACK
        ARGFRAME PSTACK, 0, STACK
        ARGFRAME XSTACK, 35, STACK
        ARGFRAME IOVERLAY, 0, STATIC
        ARGFRAME DOVERLAY, 0, STATIC
        FUNCALL MT_ZdoUnbindRequest, ZDP_BindUnbindReq
        LOCFRAME ISTACK, 0, STACK
        LOCFRAME PSTACK, 0, STACK
        LOCFRAME XSTACK, 43, STACK
        LOCFRAME IOVERLAY, 0, STATIC
        LOCFRAME DOVERLAY, 0, STATIC
        ARGFRAME ISTACK, 0, STACK
        ARGFRAME PSTACK, 0, STACK
        ARGFRAME XSTACK, 43, STACK
        ARGFRAME IOVERLAY, 0, STATIC
        ARGFRAME DOVERLAY, 0, STATIC
        FUNCALL MT_ZdoUnbindRequest, MT_BuildAndSendZToolResponse
        LOCFRAME ISTACK, 0, STACK
        LOCFRAME PSTACK, 0, STACK
        LOCFRAME XSTACK, 35, STACK
        LOCFRAME IOVERLAY, 0, STATIC
        LOCFRAME DOVERLAY, 0, STATIC
        ARGFRAME ISTACK, 0, STACK
        ARGFRAME PSTACK, 0, STACK
        ARGFRAME XSTACK, 35, STACK
        ARGFRAME IOVERLAY, 0, STATIC
        ARGFRAME DOVERLAY, 0, STATIC
        REQUIRE ?V0
        REQUIRE ?V1
        REQUIRE ?V2
        REQUIRE ?V3
        REQUIRE ?V4
        REQUIRE ?V5
        REQUIRE ?V6
        REQUIRE ?V7
        MOV     A,#-0x10
        LCALL   ?BANKED_ENTER_XDATA
          CFI DPH0 load(1, XDATA, add(CFA_XSP16, literal(-1)))
          CFI DPL0 load(1, XDATA, add(CFA_XSP16, literal(-2)))
          CFI ?BRET_EXT load(1, XDATA, add(CFA_XSP16, literal(-3)))
          CFI ?RET_HIGH load(1, XDATA, add(CFA_XSP16, literal(-4)))
          CFI ?RET_LOW load(1, XDATA, add(CFA_XSP16, literal(-5)))
          CFI R7 load(1, XDATA, add(CFA_XSP16, literal(-6)))
          CFI V7 load(1, XDATA, add(CFA_XSP16, literal(-7)))
          CFI V6 load(1, XDATA, add(CFA_XSP16, literal(-8)))
          CFI V5 load(1, XDATA, add(CFA_XSP16, literal(-9)))
          CFI V4 load(1, XDATA, add(CFA_XSP16, literal(-10)))
          CFI V3 load(1, XDATA, add(CFA_XSP16, literal(-11)))
          CFI V2 load(1, XDATA, add(CFA_XSP16, literal(-12)))
          CFI V1 load(1, XDATA, add(CFA_XSP16, literal(-13)))
          CFI V0 load(1, XDATA, add(CFA_XSP16, literal(-14)))
          CFI VB load(1, XDATA, add(CFA_XSP16, literal(-15)))
          CFI R6 load(1, XDATA, add(CFA_XSP16, literal(-16)))
          CFI CFA_SP SP+0
          CFI CFA_XSP16 add(XSP16, 16)
        ; Saved register size: 16
        ; Auto size: 19
        MOV     A,#-0x13
        LCALL   ?ALLOC_XSTACK8
          CFI CFA_XSP16 add(XSP16, 35)
        MOV     A,R2
        MOV     R6,A
        MOV     A,R3
        MOV     R7,A
// 1149   uint8 cmdId;
// 1150   uint8 retValue;
// 1151   zAddrType_t destAddr, devAddr;
// 1152   uint8 *pSrcAddr, *ptr;
// 1153   uint8 srcEPInt, dstEPInt;
// 1154   uint16 clusterID;
// 1155 
// 1156   /* parse header */
// 1157   cmdId = pBuf[MT_RPC_POS_CMD1];
        MOV     DPL,R6
        MOV     DPH,R7
        INC     DPTR
        INC     DPTR
        MOVX    A,@DPTR
        MOV     ?V0,A
// 1158   pBuf += MT_RPC_FRAME_HDR_SZ;
        MOV     A,R6
        ADD     A,#0x3
        MOV     R6,A
        JNC     ??MT_ZdoUnbindRequest_0
        INC     R7
// 1159 
// 1160   /* dev address */
// 1161   destAddr.addrMode = Addr16Bit;
??MT_ZdoUnbindRequest_0:
        MOV     A,#0x12
        LCALL   ?XSTACK_DISP0_8
        LCALL   ?Subroutine19 & 0xFFFF
// 1162   destAddr.addr.shortAddr = osal_build_uint16( pBuf );
??CrossCallReturnLabel_39:
        LCALL   `??osal_build_uint16::?relay`; Banked call to: osal_build_uint16
        MOV     A,#0xa
        LCALL   ?XSTACK_DISP0_8
        LCALL   ?Subroutine3 & 0xFFFF
// 1163   pBuf += 2;
// 1164 
// 1165   /* SrcAddress */
// 1166   pSrcAddr = pBuf;
// 1167   pBuf += Z_EXTADDR_LEN;
// 1168 
// 1169   /* SrcEPInt */
// 1170   srcEPInt = *pBuf++;
// 1171 
// 1172   /* ClusterID */
// 1173   clusterID = osal_build_uint16( pBuf );
??CrossCallReturnLabel_1:
        LCALL   `??osal_build_uint16::?relay`; Banked call to: osal_build_uint16
        MOV     ?V4,R2
        MOV     ?V5,R3
// 1174   pBuf += 2;
// 1175 
// 1176   /* Destination Address mode */
// 1177   devAddr.addrMode = *pBuf++;
        MOV     DPL,R6
        MOV     DPH,R7
        INC     DPTR
        INC     DPTR
        MOVX    A,@DPTR
        MOV     R0,A
        MOV     A,#0x9
        LCALL   ?XSTACK_DISP0_8
        MOV     A,R0
        MOVX    @DPTR,A
        MOV     A,R6
        ADD     A,#0x3
        MOV     R6,A
        JNC     ??MT_ZdoUnbindRequest_1
        INC     R7
// 1178 
// 1179   /* Destination Address */
// 1180   if ( devAddr.addrMode == Addr64Bit )
??MT_ZdoUnbindRequest_1:
        MOV     A,#0x3
        XRL     A,R0
        JNZ     ??MT_ZdoUnbindRequest_2
// 1181   {
// 1182     ptr = pBuf;
// 1183     osal_cpyExtAddr( devAddr.addr.extAddr, ptr );
        ; Setup parameters for call to function sAddrExtCpy
        MOV     A,R6
        MOV     R4,A
        MOV     A,R7
        MOV     R5,A
        MOV     A,#0x1
        LCALL   ?XSTACK_DISP101_8
        LCALL   `??sAddrExtCpy::?relay`; Banked call to: sAddrExtCpy
        SJMP    ??MT_ZdoUnbindRequest_3
// 1184   }
// 1185   else
// 1186   {
// 1187     devAddr.addr.shortAddr = osal_build_uint16( pBuf );
??MT_ZdoUnbindRequest_2:
        ; Setup parameters for call to function osal_build_uint16
        MOV     A,R6
        MOV     R2,A
        MOV     A,R7
        MOV     R3,A
        LCALL   `??osal_build_uint16::?relay`; Banked call to: osal_build_uint16
        MOV     A,#0x1
        LCALL   ?XSTACK_DISP0_8
        MOV     A,R2
        MOVX    @DPTR,A
        INC     DPTR
        MOV     A,R3
        MOVX    @DPTR,A
// 1188   }
// 1189   /* The short address occupies LSB two bytes */
// 1190   pBuf += Z_EXTADDR_LEN;
// 1191 
// 1192   /* dstEPInt */
// 1193   dstEPInt = *pBuf;
// 1194 
// 1195   retValue = (uint8)ZDP_UnbindReq( &destAddr, pSrcAddr, srcEPInt, clusterID, &devAddr, dstEPInt, 0);
??MT_ZdoUnbindRequest_3:
        ; Setup parameters for call to function ZDP_BindUnbindReq
        MOV     ?V6,#0x0
        MOV     R0,#?V6
        LCALL   ?PUSH_XSTACK_I_ONE
          CFI CFA_XSP16 add(XSP16, 36)
        MOV     DPL,R6
        MOV     DPH,R7
        INC     DPTR
        INC     DPTR
        INC     DPTR
        INC     DPTR
        INC     DPTR
        INC     DPTR
        INC     DPTR
        INC     DPTR
        MOVX    A,@DPTR
        MOV     ?V6,A
        MOV     R0,#?V6
        LCALL   ?PUSH_XSTACK_I_ONE
          CFI CFA_XSP16 add(XSP16, 37)
        MOV     A,#0x3
        LCALL   ?XSTACK_DISP100_8
        MOV     ?V6,R0
        MOV     ?V7,R1
        MOV     R0,#?V6
        LCALL   ?PUSH_XSTACK_I_TWO
          CFI CFA_XSP16 add(XSP16, 39)
        MOV     R0,#?V4
        LCALL   ?PUSH_XSTACK_I_TWO
          CFI CFA_XSP16 add(XSP16, 41)
        MOV     R0,#?V2
        LCALL   ?PUSH_XSTACK_I_TWO
          CFI CFA_XSP16 add(XSP16, 43)
        MOV     R1,?V1
        MOV     A,#0x12
        LCALL   ?XSTACK_DISP102_8
        MOV     R2,#0x22
        LJMP    ?Subroutine0 & 0xFFFF
// 1196 
// 1197   MT_BuildAndSendZToolResponse(((uint8)MT_RPC_CMD_SRSP | (uint8)MT_RPC_SYS_ZDO), cmdId, 1, &retValue);
// 1198 }
          CFI EndBlock cfiBlock94

        RSEG BANKED_CODE:CODE:NOROOT(0)
?Subroutine3:
          CFI Block cfiCond95 Using cfiCommon0
          CFI Function MT_ZdoBindRequest
          CFI Conditional ??CrossCallReturnLabel_0
          CFI R6 load(1, XDATA, add(CFA_XSP16, literal(-16)))
          CFI VB load(1, XDATA, add(CFA_XSP16, literal(-15)))
          CFI V0 load(1, XDATA, add(CFA_XSP16, literal(-14)))
          CFI V1 load(1, XDATA, add(CFA_XSP16, literal(-13)))
          CFI V2 load(1, XDATA, add(CFA_XSP16, literal(-12)))
          CFI V3 load(1, XDATA, add(CFA_XSP16, literal(-11)))
          CFI V4 load(1, XDATA, add(CFA_XSP16, literal(-10)))
          CFI V5 load(1, XDATA, add(CFA_XSP16, literal(-9)))
          CFI V6 load(1, XDATA, add(CFA_XSP16, literal(-8)))
          CFI V7 load(1, XDATA, add(CFA_XSP16, literal(-7)))
          CFI R7 load(1, XDATA, add(CFA_XSP16, literal(-6)))
          CFI ?RET_LOW load(1, XDATA, add(CFA_XSP16, literal(-5)))
          CFI ?RET_HIGH load(1, XDATA, add(CFA_XSP16, literal(-4)))
          CFI ?BRET_EXT load(1, XDATA, add(CFA_XSP16, literal(-3)))
          CFI DPL0 load(1, XDATA, add(CFA_XSP16, literal(-2)))
          CFI DPH0 load(1, XDATA, add(CFA_XSP16, literal(-1)))
          CFI CFA_SP SP+-2
          CFI CFA_XSP16 add(XSP16, 35)
          CFI Block cfiCond96 Using cfiCommon0
          CFI (cfiCond96) Function MT_ZdoUnbindRequest
          CFI (cfiCond96) Conditional ??CrossCallReturnLabel_1
          CFI (cfiCond96) R6 load(1, XDATA, add(CFA_XSP16, literal(-16)))
          CFI (cfiCond96) VB load(1, XDATA, add(CFA_XSP16, literal(-15)))
          CFI (cfiCond96) V0 load(1, XDATA, add(CFA_XSP16, literal(-14)))
          CFI (cfiCond96) V1 load(1, XDATA, add(CFA_XSP16, literal(-13)))
          CFI (cfiCond96) V2 load(1, XDATA, add(CFA_XSP16, literal(-12)))
          CFI (cfiCond96) V3 load(1, XDATA, add(CFA_XSP16, literal(-11)))
          CFI (cfiCond96) V4 load(1, XDATA, add(CFA_XSP16, literal(-10)))
          CFI (cfiCond96) V5 load(1, XDATA, add(CFA_XSP16, literal(-9)))
          CFI (cfiCond96) V6 load(1, XDATA, add(CFA_XSP16, literal(-8)))
          CFI (cfiCond96) V7 load(1, XDATA, add(CFA_XSP16, literal(-7)))
          CFI (cfiCond96) R7 load(1, XDATA, add(CFA_XSP16, literal(-6)))
          CFI (cfiCond96) ?RET_LOW load(1, XDATA, add(CFA_XSP16, literal(-5)))
          CFI (cfiCond96) ?RET_HIGH load(1, XDATA, add(CFA_XSP16, literal(-4)))
          CFI (cfiCond96) ?BRET_EXT load(1, XDATA, add(CFA_XSP16, literal(-3)))
          CFI (cfiCond96) DPL0 load(1, XDATA, add(CFA_XSP16, literal(-2)))
          CFI (cfiCond96) DPH0 load(1, XDATA, add(CFA_XSP16, literal(-1)))
          CFI (cfiCond96) CFA_SP SP+-2
          CFI (cfiCond96) CFA_XSP16 add(XSP16, 35)
          CFI Block cfiPicker97 Using cfiCommon1
          CFI (cfiPicker97) NoFunction
          CFI (cfiPicker97) Picker
        LCALL   ?Subroutine36 & 0xFFFF
??CrossCallReturnLabel_90:
        MOV     ?V2,A
        CLR     A
        ADDC    A,R7
        MOV     ?V3,A
        MOV     A,?V2
        ADD     A,#0x8
        MOV     R6,A
        CLR     A
        ADDC    A,?V3
        MOV     R7,A
        MOV     DPL,R6
        MOV     DPH,R7
        MOVX    A,@DPTR
        MOV     ?V1,A
        INC     DPTR
        MOV     R6,DPL
        MOV     R7,DPH
        ; Setup parameters for call to function osal_build_uint16
        ; Setup parameters for call to function osal_build_uint16
        MOV     A,R6
        MOV     R2,A
        MOV     A,R7
        MOV     R3,A
        RET
          CFI EndBlock cfiCond95
          CFI EndBlock cfiCond96
          CFI EndBlock cfiPicker97
// 1199 
// 1200 #if defined (MT_SYS_KEY_MANAGEMENT)
// 1201 /***************************************************************************************************
// 1202  * @fn      MT_ZdoSetLinkKey
// 1203  *
// 1204  * @brief   Set an application or trust center link key.
// 1205  *
// 1206  * @param   pBuf  - MT message data
// 1207  *
// 1208  * @return  void
// 1209  ***************************************************************************************************/
// 1210 static void MT_ZdoSetLinkKey(uint8 *pBuf)
// 1211 {
// 1212   uint8 cmdId;
// 1213   uint8 retValue;
// 1214   uint8 *pExtAddr;
// 1215   uint8 *pKey;
// 1216   uint16 shortAddr;
// 1217 
// 1218   /* parse header */
// 1219   cmdId = pBuf[MT_RPC_POS_CMD1];
// 1220   pBuf += MT_RPC_FRAME_HDR_SZ;
// 1221 
// 1222   /* ShortAddr */
// 1223   shortAddr = osal_build_uint16( pBuf );
// 1224   pBuf += 2;
// 1225 
// 1226   /* Extended Addr */
// 1227   pExtAddr = pBuf;
// 1228   pBuf += Z_EXTADDR_LEN;
// 1229 
// 1230   /* Key data */
// 1231   pKey = pBuf;
// 1232 
// 1233   retValue = (uint8)ZDSecMgrAddLinkKey( shortAddr, pExtAddr, pKey);
// 1234 
// 1235   MT_BuildAndSendZToolResponse(((uint8)MT_RPC_CMD_SRSP | (uint8)MT_RPC_SYS_ZDO), cmdId, 1, &retValue);
// 1236 }
// 1237 
// 1238 /***************************************************************************************************
// 1239  * @fn      MT_ZdoRemoveLinkKey
// 1240  *
// 1241  * @brief   Remove an application or trust center link key.
// 1242  *
// 1243  * @param   pBuf  - MT message data
// 1244  *
// 1245  * @return  void
// 1246  ***************************************************************************************************/
// 1247 static void MT_ZdoRemoveLinkKey(uint8 *pBuf)
// 1248 {
// 1249   uint8 cmdId;
// 1250   uint8 retValue;
// 1251   uint8 *pExtAddr;
// 1252 
// 1253   /* parse header */
// 1254   cmdId = pBuf[MT_RPC_POS_CMD1];
// 1255   pBuf += MT_RPC_FRAME_HDR_SZ;
// 1256 
// 1257   /* ShortAddr */
// 1258   pExtAddr = pBuf;
// 1259 
// 1260   retValue = ZDSecMgrDeviceRemoveByExtAddr( pExtAddr );
// 1261 
// 1262   MT_BuildAndSendZToolResponse(((uint8)MT_RPC_CMD_SRSP | (uint8)MT_RPC_SYS_ZDO), cmdId, 1, &retValue);
// 1263 }
// 1264 
// 1265 /***************************************************************************************************
// 1266  * @fn      MT_ZdoGetLinkKey
// 1267  *
// 1268  * @brief   Get the application link key.
// 1269  *
// 1270  * @param   pBuf  - MT message data
// 1271  *
// 1272  * @return  void
// 1273  ***************************************************************************************************/
// 1274 static void MT_ZdoGetLinkKey(uint8 *pBuf)
// 1275 {
// 1276   uint8 cmdId;
// 1277   uint8 retValue;
// 1278   uint8 *pExtAddr;
// 1279   uint8 *retBuf = NULL;
// 1280   uint8 len;
// 1281   APSME_LinkKeyData_t *pApsLinkKey = NULL;
// 1282   uint16 apsLinkKeyNvId;
// 1283 
// 1284   // parse header
// 1285   len = pBuf[MT_RPC_POS_LEN];
// 1286   cmdId = pBuf[MT_RPC_POS_CMD1];
// 1287   pBuf += MT_RPC_FRAME_HDR_SZ;
// 1288 
// 1289   // Extended Address
// 1290   pExtAddr = pBuf;
// 1291 
// 1292   // Check for illegal extended address -- indicating network address lookup
// 1293   if ( ( pExtAddr[2] == 0xFE ) && ( pExtAddr[3] == 0xFF ) &&
// 1294        ( len >= Z_EXTADDR_LEN )            )
// 1295   {
// 1296     uint16 nwkAddr;
// 1297     nwkAddr = osal_build_uint16( pExtAddr );
// 1298     (void)AddrMgrExtAddrLookup( nwkAddr, pExtAddr );
// 1299   }
// 1300 
// 1301   // Fetch the key NV ID
// 1302   retValue = APSME_LinkKeyNVIdGet( pExtAddr, &apsLinkKeyNvId );
// 1303 
// 1304   if (retValue == ZSuccess)
// 1305   {
// 1306     if ((pApsLinkKey = (APSME_LinkKeyData_t *)osal_mem_alloc(sizeof(APSME_LinkKeyData_t))) != NULL)
// 1307     {
// 1308       // retrieve key from NV
// 1309       if (osal_nv_read( apsLinkKeyNvId, 0,
// 1310                        sizeof(APSME_LinkKeyData_t), pApsLinkKey) != SUCCESS)
// 1311       {
// 1312         retValue = ZNwkUnknownDevice;
// 1313       }
// 1314     }
// 1315     else
// 1316     {
// 1317       retValue = ZNwkUnknownDevice;
// 1318     }
// 1319   }
// 1320 
// 1321   // Construct the response message
// 1322   len = MT_ZDO_STATUS_LEN + Z_EXTADDR_LEN + SEC_KEY_LEN; // status + extAddr + key
// 1323   if ((retBuf = (uint8 *)osal_mem_alloc(len)) != NULL)
// 1324   {
// 1325     if (retValue == ZSuccess)
// 1326     {
// 1327       // Extended Address
// 1328       osal_memcpy( &(retBuf[1]), pExtAddr, Z_EXTADDR_LEN );
// 1329 
// 1330       // Key data
// 1331       osal_memcpy( &(retBuf[1 + Z_EXTADDR_LEN]), pApsLinkKey->key, SEC_KEY_LEN );
// 1332     }
// 1333     else
// 1334     {
// 1335       // Failed case - set the rest fields to all FF
// 1336       osal_memset( &(retBuf[1]), 0xFF, Z_EXTADDR_LEN + SEC_KEY_LEN );
// 1337     }
// 1338 
// 1339     retBuf[0] = retValue;  // Status
// 1340 
// 1341     MT_BuildAndSendZToolResponse(((uint8)MT_RPC_CMD_SRSP | (uint8)MT_RPC_SYS_ZDO), cmdId, len, retBuf);
// 1342 
// 1343     // clear retBuf because it contains key data and free allocated memory
// 1344     osal_memset(retBuf, 0x00, len);
// 1345 
// 1346     osal_mem_free(retBuf);
// 1347   }
// 1348 
// 1349   // clear copy of key in RAM
// 1350   if (pApsLinkKey != NULL)
// 1351   {
// 1352     osal_memset(pApsLinkKey, 0x00, sizeof(APSME_LinkKeyData_t));
// 1353 
// 1354     osal_mem_free(pApsLinkKey);
// 1355   }
// 1356 
// 1357   return;
// 1358 }
// 1359 #endif // MT_SYS_KEY_MANAGEMENT
// 1360 
// 1361 #if defined (MT_ZDO_MGMT)
// 1362 /***************************************************************************************************
// 1363  * @fn      MT_ZdoMgmtNwkDiscRequest
// 1364  *
// 1365  * @brief   Handle a Mgmt Nwk Discovery request.
// 1366  *
// 1367  * @param   pBuf  - MT message data
// 1368  *
// 1369  * @return  void
// 1370  ***************************************************************************************************/
// 1371 static void MT_ZdoMgmtNwkDiscRequest(uint8 *pBuf)
// 1372 {
// 1373   uint8 cmdId;
// 1374   uint8 retValue;
// 1375   zAddrType_t destAddr;
// 1376   uint32 scanChannels;
// 1377   uint8 scanDuration, startIndex;
// 1378 
// 1379   /* parse header */
// 1380   cmdId = pBuf[MT_RPC_POS_CMD1];
// 1381   pBuf += MT_RPC_FRAME_HDR_SZ;
// 1382 
// 1383   /* Dev address */
// 1384   destAddr.addrMode = Addr16Bit;
// 1385   destAddr.addr.shortAddr = osal_build_uint16( pBuf );
// 1386   pBuf += 2;
// 1387 
// 1388   /* Scan Channels */
// 1389   scanChannels = osal_build_uint32(pBuf, 4);
// 1390   pBuf += 4;
// 1391 
// 1392   /* Scan Duration */
// 1393   scanDuration = *pBuf++;
// 1394 
// 1395   /* Start Index */
// 1396   startIndex = *pBuf;
// 1397 
// 1398   retValue = (uint8)ZDP_MgmtNwkDiscReq( &destAddr, scanChannels, scanDuration, startIndex, 0);
// 1399 
// 1400   MT_BuildAndSendZToolResponse(((uint8)MT_RPC_CMD_SRSP | (uint8)MT_RPC_SYS_ZDO), cmdId, 1, &retValue);
// 1401 }
// 1402 
// 1403 /***************************************************************************************************
// 1404  * @fn      MT_ZdoMgmtLqiRequest
// 1405  *
// 1406  * @brief   Handle a Mgmt Lqi request.
// 1407  *
// 1408  * @param   pBuf  - MT message data
// 1409  *
// 1410  * @return  void
// 1411  ***************************************************************************************************/
// 1412 static void MT_ZdoMgmtLqiRequest(uint8 *pBuf)
// 1413 {
// 1414   uint8 cmdId;
// 1415   uint8 retValue;
// 1416   zAddrType_t destAddr;
// 1417   uint8 startIndex;
// 1418 
// 1419   /* parse header */
// 1420   cmdId = pBuf[MT_RPC_POS_CMD1];
// 1421   pBuf += MT_RPC_FRAME_HDR_SZ;
// 1422 
// 1423   /* Dev address */
// 1424   destAddr.addrMode = Addr16Bit;
// 1425   destAddr.addr.shortAddr = osal_build_uint16( pBuf );
// 1426   pBuf += 2;
// 1427 
// 1428   /* Start Index */
// 1429   startIndex = *pBuf;
// 1430 
// 1431   retValue = (uint8)ZDP_MgmtLqiReq( &destAddr, startIndex, 0);
// 1432 
// 1433   MT_BuildAndSendZToolResponse(((uint8)MT_RPC_CMD_SRSP | (uint8)MT_RPC_SYS_ZDO), cmdId, 1, &retValue);
// 1434 }
// 1435 
// 1436 /***************************************************************************************************
// 1437  * @fn      MT_ZdoMgmtRtgRequest
// 1438  *
// 1439  * @brief   Handle a Mgmt Rtg request.
// 1440  *
// 1441  * @param   pBuf  - MT message data
// 1442  *
// 1443  * @return  void
// 1444  ***************************************************************************************************/
// 1445 static void MT_ZdoMgmtRtgRequest(uint8 *pBuf)
// 1446 {
// 1447   uint8 cmdId;
// 1448   uint8 retValue;
// 1449   zAddrType_t destAddr;
// 1450   uint8 startIndex;
// 1451 
// 1452   /* parse header */
// 1453   cmdId = pBuf[MT_RPC_POS_CMD1];
// 1454   pBuf += MT_RPC_FRAME_HDR_SZ;
// 1455 
// 1456   /* Dev Address */
// 1457   destAddr.addrMode = Addr16Bit;
// 1458   destAddr.addr.shortAddr = osal_build_uint16( pBuf );
// 1459   pBuf += 2;
// 1460 
// 1461   /* Start Index */
// 1462   startIndex = *pBuf;
// 1463 
// 1464   retValue = (byte)ZDP_MgmtRtgReq( &destAddr, startIndex, 0);
// 1465 
// 1466   MT_BuildAndSendZToolResponse(((uint8)MT_RPC_CMD_SRSP | (uint8)MT_RPC_SYS_ZDO), cmdId, 1, &retValue);
// 1467 }
// 1468 
// 1469 /***************************************************************************************************
// 1470  * @fn      MT_ZdoMgmtBindRequest
// 1471  *
// 1472  * @brief   Handle a Mgmt Bind request.
// 1473  *
// 1474  * @param   pBuf  - MT message data
// 1475  *
// 1476  * @return  void
// 1477  ***************************************************************************************************/
// 1478 static void MT_ZdoMgmtBindRequest(uint8 *pBuf)
// 1479 {
// 1480   uint8 cmdId;
// 1481   uint8 retValue;
// 1482   zAddrType_t destAddr;
// 1483   uint8 startIndex;
// 1484 
// 1485   /* parse header */
// 1486   cmdId = pBuf[MT_RPC_POS_CMD1];
// 1487   pBuf += MT_RPC_FRAME_HDR_SZ;
// 1488 
// 1489   /* Dev Address */
// 1490   destAddr.addrMode = Addr16Bit;
// 1491   destAddr.addr.shortAddr = osal_build_uint16( pBuf );
// 1492   pBuf += 2;
// 1493 
// 1494   /* Start Index */
// 1495   startIndex = *pBuf;
// 1496 
// 1497   retValue = (uint8)ZDP_MgmtBindReq( &destAddr, startIndex, 0);
// 1498 
// 1499   MT_BuildAndSendZToolResponse(((uint8)MT_RPC_CMD_SRSP | (uint8)MT_RPC_SYS_ZDO), cmdId, 1, &retValue);
// 1500 }
// 1501 
// 1502 /***************************************************************************************************
// 1503  * @fn      MT_ZdoMgmtLeaveRequest
// 1504  *
// 1505  * @brief   Handle a Mgmt Leave request.
// 1506  *
// 1507  * @param   pBuf  - MT message data
// 1508  *
// 1509  * @return  void
// 1510  ***************************************************************************************************/
// 1511 static void MT_ZdoMgmtLeaveRequest(uint8 *pBuf)
// 1512 {
// 1513   uint8 cmdId;
// 1514   uint8 retValue;
// 1515   zAddrType_t destAddr;
// 1516   uint8 *pIEEEAddr;
// 1517   uint8 removeChildren;
// 1518   uint8 rejoin;
// 1519 
// 1520   /* parse header */
// 1521   cmdId = pBuf[MT_RPC_POS_CMD1];
// 1522   pBuf += MT_RPC_FRAME_HDR_SZ;
// 1523 
// 1524   /* Destination Address */
// 1525   destAddr.addrMode = Addr16Bit;
// 1526   destAddr.addr.shortAddr = osal_build_uint16( pBuf );
// 1527   pBuf += 2;
// 1528 
// 1529   /* IEEE address */
// 1530   pIEEEAddr = pBuf;
// 1531   pBuf += Z_EXTADDR_LEN;
// 1532 
// 1533   /* Rejoin if bit0 is set */
// 1534   rejoin = ( *pBuf & 0x01 ) ? TRUE : FALSE;
// 1535 
// 1536   /* Remove Children if bit1 is set */
// 1537   removeChildren = ( *pBuf & 0x02 ) ? TRUE : FALSE;
// 1538 
// 1539   retValue = (byte)ZDP_MgmtLeaveReq( &destAddr, pIEEEAddr, removeChildren, rejoin, 0);
// 1540 
// 1541   MT_BuildAndSendZToolResponse(((uint8)MT_RPC_CMD_SRSP | (uint8)MT_RPC_SYS_ZDO), cmdId, 1, &retValue);
// 1542 }
// 1543 
// 1544 /***************************************************************************************************
// 1545  * @fn      MT_ZdoMgmtDirectJoinRequest
// 1546  *
// 1547  * @brief   Handle a Mgmt Direct Join request.
// 1548  *
// 1549  * @param   pBuf  - MT message data
// 1550  *
// 1551  * @return  void
// 1552  ***************************************************************************************************/
// 1553 static void MT_ZdoMgmtDirectJoinRequest(uint8 *pBuf)
// 1554 {
// 1555   uint8 cmdId;
// 1556   uint8 retValue;
// 1557   zAddrType_t destAddr;
// 1558   uint8 *deviceAddr;
// 1559   uint8 capInfo;
// 1560 
// 1561   /* parse header */
// 1562   cmdId = pBuf[MT_RPC_POS_CMD1];
// 1563   pBuf += MT_RPC_FRAME_HDR_SZ;
// 1564 
// 1565   /* Destination Address */
// 1566   destAddr.addrMode = Addr16Bit;
// 1567   destAddr.addr.shortAddr = osal_build_uint16( pBuf );
// 1568   pBuf += 2;
// 1569 
// 1570   /* Device Address */
// 1571   deviceAddr = pBuf;
// 1572   pBuf += Z_EXTADDR_LEN;
// 1573 
// 1574   /* Capability information */
// 1575   capInfo = *pBuf;
// 1576 
// 1577   retValue = (uint8)ZDP_MgmtDirectJoinReq( &destAddr, deviceAddr, capInfo, 0);
// 1578 
// 1579   MT_BuildAndSendZToolResponse(((uint8)MT_RPC_CMD_SRSP | (uint8)MT_RPC_SYS_ZDO), cmdId, 1, &retValue);
// 1580 }
// 1581 
// 1582 /***************************************************************************************************
// 1583  * @fn      MT_ZdoMgmtPermitJoinRequest
// 1584  *
// 1585  * @brief   Handle a Mgmt Permit Join request.
// 1586  *
// 1587  * @param   pBuf  - MT message data
// 1588  *
// 1589  * @return  void
// 1590  ***************************************************************************************************/
// 1591 static void MT_ZdoMgmtPermitJoinRequest(uint8 *pBuf)
// 1592 {
// 1593   uint8 cmdId;
// 1594   uint8 dataLn;
// 1595   uint8 retValue;
// 1596   uint8 duration;
// 1597   uint8 tcSignificance;
// 1598   zAddrType_t destAddr;
// 1599 
// 1600   /* parse header */
// 1601   dataLn = pBuf[MT_RPC_POS_LEN];
// 1602   cmdId = pBuf[MT_RPC_POS_CMD1];
// 1603   pBuf += MT_RPC_FRAME_HDR_SZ;
// 1604 
// 1605   if ( 4 == dataLn )
// 1606   {
// 1607     /* addrMode was hardwired up to Z-Stack 2.6.0 */
// 1608     destAddr.addrMode = afAddr16Bit;
// 1609   }
// 1610   else
// 1611   {
// 1612     /* addrMode is a parameter after Z-Stack 2.6.0 */
// 1613     destAddr.addrMode = *pBuf++;
// 1614   }
// 1615 
// 1616   /* Destination Address */
// 1617   destAddr.addr.shortAddr = osal_build_uint16( pBuf );
// 1618   pBuf += 2;
// 1619 
// 1620   /* Duration */
// 1621   duration = *pBuf++;
// 1622 
// 1623   /* Trust center significance */
// 1624   tcSignificance = *pBuf;
// 1625 
// 1626   ignoreIndication = TRUE;
// 1627   retValue = (uint8)ZDP_MgmtPermitJoinReq( &destAddr, duration, tcSignificance, 0);
// 1628   ignoreIndication = FALSE;
// 1629 
// 1630   MT_BuildAndSendZToolResponse(((uint8)MT_RPC_CMD_SRSP | (uint8)MT_RPC_SYS_ZDO), cmdId, 1, &retValue);
// 1631 }
// 1632 
// 1633 /***************************************************************************************************
// 1634  * @fn      MT_ZdoMgmtNwkUpdateRequest
// 1635  *
// 1636  * @brief   Handle a Mgmt Nwk Update request.
// 1637  *
// 1638  * @param   pBuf  - MT message data
// 1639  *
// 1640  * @return  void
// 1641  ***************************************************************************************************/
// 1642 static void MT_ZdoMgmtNwkUpdateRequest(uint8 *pBuf)
// 1643 {
// 1644   uint8 cmdId;
// 1645   uint8 retValue;
// 1646   zAddrType_t destAddr;
// 1647   uint32 channelMask;
// 1648   uint8 scanDuration, scanCount;
// 1649   uint16 nwkManagerAddr;
// 1650 
// 1651     /* parse header */
// 1652   cmdId = pBuf[MT_RPC_POS_CMD1];
// 1653   pBuf += MT_RPC_FRAME_HDR_SZ;
// 1654 
// 1655   /* Destination address */
// 1656   destAddr.addr.shortAddr = osal_build_uint16( pBuf );
// 1657   pBuf += 2;
// 1658 
// 1659   /* Destination address mode */
// 1660   destAddr.addrMode = *pBuf++;
// 1661 
// 1662   channelMask = osal_build_uint32(pBuf, 4);
// 1663   pBuf += 4;
// 1664 
// 1665   /* Scan duration */
// 1666   scanDuration = *pBuf++;
// 1667 
// 1668   /* Scan count */
// 1669   scanCount = *pBuf++;
// 1670 
// 1671   /* NWK manager address */
// 1672   nwkManagerAddr = osal_build_uint16( pBuf );
// 1673 
// 1674   /* Send the Management Network Update request */
// 1675   retValue = (uint8)ZDP_MgmtNwkUpdateReq( &destAddr, channelMask, scanDuration,
// 1676                                           scanCount, _NIB.nwkUpdateId+1, nwkManagerAddr );
// 1677 
// 1678   /*
// 1679     Since we don't recevied our own broadcast messages, we should
// 1680     send a unicast copy of the message to ourself.
// 1681   */
// 1682   if ( destAddr.addrMode == AddrBroadcast )
// 1683   {
// 1684     destAddr.addrMode = Addr16Bit;
// 1685     destAddr.addr.shortAddr = _NIB.nwkDevAddress;
// 1686     retValue = (uint8) ZDP_MgmtNwkUpdateReq( &destAddr, channelMask, scanDuration,
// 1687                                              scanCount, _NIB.nwkUpdateId+1, nwkManagerAddr );
// 1688   }
// 1689 
// 1690   MT_BuildAndSendZToolResponse(((uint8)MT_RPC_CMD_SRSP | (uint8)MT_RPC_SYS_ZDO), cmdId, 1, &retValue);
// 1691 }
// 1692 #endif /* MT_ZDO_MGMT */
// 1693 
// 1694 /***************************************************************************************************
// 1695  * @fn      MT_ZdoSendData
// 1696  *
// 1697  * @brief   Handle a ZDO Send Data request.
// 1698  *
// 1699  * @param   pBuf  - MT message data
// 1700  *
// 1701  * @return  void
// 1702  ***************************************************************************************************/

        RSEG BANKED_CODE:CODE:NOROOT(0)
// 1703 static void MT_ZdoSendData( uint8 *pBuf )
MT_ZdoSendData:
          CFI Block cfiBlock98 Using cfiCommon0
          CFI Function MT_ZdoSendData
        CODE
// 1704 {
        FUNCALL MT_ZdoSendData, osal_build_uint16
        LOCFRAME ISTACK, 0, STACK
        LOCFRAME PSTACK, 0, STACK
        LOCFRAME XSTACK, 25, STACK
        LOCFRAME IOVERLAY, 0, STATIC
        LOCFRAME DOVERLAY, 0, STATIC
        ARGFRAME ISTACK, 0, STACK
        ARGFRAME PSTACK, 0, STACK
        ARGFRAME XSTACK, 25, STACK
        ARGFRAME IOVERLAY, 0, STATIC
        ARGFRAME DOVERLAY, 0, STATIC
        FUNCALL MT_ZdoSendData, osal_build_uint16
        LOCFRAME ISTACK, 0, STACK
        LOCFRAME PSTACK, 0, STACK
        LOCFRAME XSTACK, 25, STACK
        LOCFRAME IOVERLAY, 0, STATIC
        LOCFRAME DOVERLAY, 0, STATIC
        ARGFRAME ISTACK, 0, STACK
        ARGFRAME PSTACK, 0, STACK
        ARGFRAME XSTACK, 25, STACK
        ARGFRAME IOVERLAY, 0, STATIC
        ARGFRAME DOVERLAY, 0, STATIC
        FUNCALL MT_ZdoSendData, ZDP_SendData
        LOCFRAME ISTACK, 0, STACK
        LOCFRAME PSTACK, 0, STACK
        LOCFRAME XSTACK, 30, STACK
        LOCFRAME IOVERLAY, 0, STATIC
        LOCFRAME DOVERLAY, 0, STATIC
        ARGFRAME ISTACK, 0, STACK
        ARGFRAME PSTACK, 0, STACK
        ARGFRAME XSTACK, 30, STACK
        ARGFRAME IOVERLAY, 0, STATIC
        ARGFRAME DOVERLAY, 0, STATIC
        FUNCALL MT_ZdoSendData, ZDP_SendData
        LOCFRAME ISTACK, 0, STACK
        LOCFRAME PSTACK, 0, STACK
        LOCFRAME XSTACK, 30, STACK
        LOCFRAME IOVERLAY, 0, STATIC
        LOCFRAME DOVERLAY, 0, STATIC
        ARGFRAME ISTACK, 0, STACK
        ARGFRAME PSTACK, 0, STACK
        ARGFRAME XSTACK, 30, STACK
        ARGFRAME IOVERLAY, 0, STATIC
        ARGFRAME DOVERLAY, 0, STATIC
        FUNCALL MT_ZdoSendData, MT_BuildAndSendZToolResponse
        LOCFRAME ISTACK, 0, STACK
        LOCFRAME PSTACK, 0, STACK
        LOCFRAME XSTACK, 25, STACK
        LOCFRAME IOVERLAY, 0, STATIC
        LOCFRAME DOVERLAY, 0, STATIC
        ARGFRAME ISTACK, 0, STACK
        ARGFRAME PSTACK, 0, STACK
        ARGFRAME XSTACK, 25, STACK
        ARGFRAME IOVERLAY, 0, STATIC
        ARGFRAME DOVERLAY, 0, STATIC
        REQUIRE ?V0
        REQUIRE ?V1
        REQUIRE ?V2
        REQUIRE ?V3
        REQUIRE ?V4
        REQUIRE ?V5
        MOV     A,#-0xe
        LCALL   ?BANKED_ENTER_XDATA
          CFI DPH0 load(1, XDATA, add(CFA_XSP16, literal(-1)))
          CFI DPL0 load(1, XDATA, add(CFA_XSP16, literal(-2)))
          CFI ?BRET_EXT load(1, XDATA, add(CFA_XSP16, literal(-3)))
          CFI ?RET_HIGH load(1, XDATA, add(CFA_XSP16, literal(-4)))
          CFI ?RET_LOW load(1, XDATA, add(CFA_XSP16, literal(-5)))
          CFI R7 load(1, XDATA, add(CFA_XSP16, literal(-6)))
          CFI V5 load(1, XDATA, add(CFA_XSP16, literal(-7)))
          CFI V4 load(1, XDATA, add(CFA_XSP16, literal(-8)))
          CFI V3 load(1, XDATA, add(CFA_XSP16, literal(-9)))
          CFI V2 load(1, XDATA, add(CFA_XSP16, literal(-10)))
          CFI V1 load(1, XDATA, add(CFA_XSP16, literal(-11)))
          CFI V0 load(1, XDATA, add(CFA_XSP16, literal(-12)))
          CFI VB load(1, XDATA, add(CFA_XSP16, literal(-13)))
          CFI R6 load(1, XDATA, add(CFA_XSP16, literal(-14)))
          CFI CFA_SP SP+0
          CFI CFA_XSP16 add(XSP16, 14)
        ; Saved register size: 14
        ; Auto size: 11
        MOV     A,#-0xb
        LCALL   ?ALLOC_XSTACK8
          CFI CFA_XSP16 add(XSP16, 25)
        MOV     ?V1,R3
// 1705   uint8 cmdId;
// 1706   uint8 retValue;
// 1707   zAddrType_t destAddr;
// 1708   uint8 transSeq;
// 1709   uint8 len;
// 1710   uint16 cmd;
// 1711 
// 1712     /* parse header */
// 1713   cmdId = pBuf[MT_RPC_POS_CMD1];
        MOV     DPL,R2
        MOV     DPH,R3
        INC     DPTR
        INC     DPTR
        MOVX    A,@DPTR
        MOV     R7,A
// 1714   pBuf += MT_RPC_FRAME_HDR_SZ;
        MOV     A,R2
        ADD     A,#0x3
        MOV     ?V0,A
        JNC     ??MT_ZdoSendData_0
        INC     ?V1
// 1715 
// 1716   /* Destination address */
// 1717   destAddr.addrMode = Addr16Bit;
??MT_ZdoSendData_0:
        MOV     A,#0xa
        LCALL   ?XSTACK_DISP0_8
        MOV     A,#0x2
        MOVX    @DPTR,A
// 1718   destAddr.addr.shortAddr = osal_build_uint16( pBuf );
        ; Setup parameters for call to function osal_build_uint16
        INC     R2
        INC     R2
        INC     R2
        MOV     R3,?V1
        LCALL   `??osal_build_uint16::?relay`; Banked call to: osal_build_uint16
        MOV     A,#0x2
        LCALL   ?XSTACK_DISP0_8
        MOV     A,R2
        MOVX    @DPTR,A
        INC     DPTR
        MOV     A,R3
        LCALL   ?Subroutine23 & 0xFFFF
// 1719   pBuf += 2;
// 1720 
// 1721   /* Destination address mode */
// 1722   transSeq = *pBuf++;
??CrossCallReturnLabel_50:
        LCALL   ?Subroutine17 & 0xFFFF
??CrossCallReturnLabel_28:
        MOV     A,?V0
        ADD     A,#0x3
        MOV     ?V0,A
        JNC     ??MT_ZdoSendData_1
        INC     ?V1
// 1723 
// 1724   /* cmd */
// 1725   cmd = osal_build_uint16( pBuf );
??MT_ZdoSendData_1:
        ; Setup parameters for call to function osal_build_uint16
        MOV     R2,A
        MOV     R3,?V1
        LCALL   `??osal_build_uint16::?relay`; Banked call to: osal_build_uint16
        MOV     ?V2,R2
        MOV     ?V3,R3
// 1726   pBuf += 2;
// 1727   len = *pBuf++;
        MOV     DPL,?V0
        MOV     DPH,?V1
        INC     DPTR
        INC     DPTR
        MOVX    A,@DPTR
        MOV     R6,A
        MOV     A,?V0
        ADD     A,#0x3
        MOV     ?V0,A
        JNC     ??MT_ZdoSendData_2
        INC     ?V1
// 1728 
// 1729   /* Send the Generic ZDO message request */
// 1730   retValue = (uint8)ZDP_SendData( &transSeq, &destAddr, cmd, len, pBuf, 0 );
??MT_ZdoSendData_2:
        ; Setup parameters for call to function ZDP_SendData
        MOV     ?V4,#0x0
        MOV     R0,#?V4
        LCALL   ?PUSH_XSTACK_I_ONE
          CFI CFA_XSP16 add(XSP16, 26)
        MOV     R0,#?V0
        LCALL   ?PUSH_XSTACK_I_TWO
          CFI CFA_XSP16 add(XSP16, 28)
        MOV     R0,#?V2
        LCALL   ?PUSH_XSTACK_I_TWO
          CFI CFA_XSP16 add(XSP16, 30)
        MOV     A,R6
        MOV     R1,A
        MOV     A,#0x7
        LCALL   ?XSTACK_DISP102_8
        MOV     A,#0x5
        LCALL   ?XSTACK_DISP101_8
        LCALL   `??ZDP_SendData::?relay`; Banked call to: ZDP_SendData
        MOV     A,#0x5
        LCALL   ?DEALLOC_XSTACK8
          CFI CFA_XSP16 add(XSP16, 25)
        MOV     A,#0x1
        LCALL   ?XSTACK_DISP0_8
        MOV     A,R1
        MOVX    @DPTR,A
// 1731   /*
// 1732     Since we don't recevied our own broadcast messages, we should
// 1733     send a unicast copy of the message to ourself.
// 1734   */
// 1735   if ( destAddr.addrMode == AddrBroadcast )
        MOV     A,#0xa
        LCALL   ?XSTACK_DISP0_8
        MOVX    A,@DPTR
        XRL     A,#0xf
        JNZ     ??MT_ZdoSendData_3
// 1736   {
// 1737     destAddr.addrMode = Addr16Bit;
        LCALL   ?Subroutine25 & 0xFFFF
// 1738     destAddr.addr.shortAddr = _NIB.nwkDevAddress;
??CrossCallReturnLabel_54:
        MOV     A,#0x2
        LCALL   ?XSTACK_DISP0_8
        MOV     A,R0
        MOVX    @DPTR,A
        INC     DPTR
        MOV     A,R1
        MOVX    @DPTR,A
// 1739     retValue = (uint8)ZDP_SendData( &transSeq, &destAddr, cmd, len, pBuf, 0 );
        ; Setup parameters for call to function ZDP_SendData
        MOV     R0,#?V4
        LCALL   ?PUSH_XSTACK_I_ONE
          CFI CFA_XSP16 add(XSP16, 26)
        MOV     R0,#?V0
        LCALL   ?PUSH_XSTACK_I_TWO
          CFI CFA_XSP16 add(XSP16, 28)
        MOV     R0,#?V2
        LCALL   ?PUSH_XSTACK_I_TWO
          CFI CFA_XSP16 add(XSP16, 30)
        MOV     A,R6
        MOV     R1,A
        MOV     A,#0x7
        LCALL   ?XSTACK_DISP102_8
        MOV     A,#0x5
        LCALL   ?XSTACK_DISP101_8
        LCALL   `??ZDP_SendData::?relay`; Banked call to: ZDP_SendData
        MOV     A,#0x5
        LCALL   ?DEALLOC_XSTACK8
          CFI CFA_XSP16 add(XSP16, 25)
        MOV     A,#0x1
        LCALL   ?XSTACK_DISP0_8
        MOV     A,R1
        MOVX    @DPTR,A
// 1740   }
// 1741 
// 1742   MT_BuildAndSendZToolResponse(((uint8)MT_RPC_CMD_SRSP | (uint8)MT_RPC_SYS_ZDO), cmdId, 1, &retValue);
??MT_ZdoSendData_3:
        ; Setup parameters for call to function MT_BuildAndSendZToolResponse
        MOV     A,#0x1
        LCALL   ?XSTACK_DISP102_8
        MOV     R3,#0x1
        MOV     A,R7
        MOV     R2,A
        MOV     R1,#0x65
        LCALL   `??MT_BuildAndSendZToolResponse::?relay`; Banked call to: MT_BuildAndSendZToolResponse
// 1743 }
        MOV     A,#0xb
          CFI EndBlock cfiBlock98
        REQUIRE ?Subroutine1
        ; // Fall through to label ?Subroutine1

        RSEG BANKED_CODE:CODE:NOROOT(0)
?Subroutine1:
          CFI Block cfiBlock99 Using cfiCommon0
          CFI NoFunction
          CFI CFA_SP SP+0
          CFI CFA_XSP16 add(XSP16, 25)
          CFI VB load(1, XDATA, add(CFA_XSP16, literal(-13)))
          CFI DPL0 load(1, XDATA, add(CFA_XSP16, literal(-2)))
          CFI DPH0 load(1, XDATA, add(CFA_XSP16, literal(-1)))
          CFI R6 load(1, XDATA, add(CFA_XSP16, literal(-14)))
          CFI R7 load(1, XDATA, add(CFA_XSP16, literal(-6)))
          CFI V0 load(1, XDATA, add(CFA_XSP16, literal(-12)))
          CFI V1 load(1, XDATA, add(CFA_XSP16, literal(-11)))
          CFI V2 load(1, XDATA, add(CFA_XSP16, literal(-10)))
          CFI V3 load(1, XDATA, add(CFA_XSP16, literal(-9)))
          CFI V4 load(1, XDATA, add(CFA_XSP16, literal(-8)))
          CFI V5 load(1, XDATA, add(CFA_XSP16, literal(-7)))
          CFI ?BRET_EXT load(1, XDATA, add(CFA_XSP16, literal(-3)))
          CFI ?RET_HIGH load(1, XDATA, add(CFA_XSP16, literal(-4)))
          CFI ?RET_LOW load(1, XDATA, add(CFA_XSP16, literal(-5)))
          CFI Invalid
        LCALL   ?DEALLOC_XSTACK8
          CFI CFA_XSP16 add(XSP16, 14)
          CFI Valid
        MOV     R7,#0x6
        LJMP    ?BANKED_LEAVE_XDATA
          CFI EndBlock cfiBlock99

        RSEG BANKED_CODE:CODE:NOROOT(0)
?Subroutine23:
          CFI Block cfiCond100 Using cfiCommon0
          CFI Function MT_ZdoCommandProcessing
          CFI Conditional ??CrossCallReturnLabel_49
          CFI R6 load(1, XDATA, add(CFA_XSP16, literal(-24)))
          CFI VB load(1, XDATA, add(CFA_XSP16, literal(-23)))
          CFI V0 load(1, XDATA, add(CFA_XSP16, literal(-22)))
          CFI V1 load(1, XDATA, add(CFA_XSP16, literal(-21)))
          CFI V2 load(1, XDATA, add(CFA_XSP16, literal(-20)))
          CFI V3 load(1, XDATA, add(CFA_XSP16, literal(-19)))
          CFI V4 load(1, XDATA, add(CFA_XSP16, literal(-18)))
          CFI V5 load(1, XDATA, add(CFA_XSP16, literal(-17)))
          CFI V6 load(1, XDATA, add(CFA_XSP16, literal(-16)))
          CFI V7 load(1, XDATA, add(CFA_XSP16, literal(-15)))
          CFI V8 load(1, XDATA, add(CFA_XSP16, literal(-14)))
          CFI V9 load(1, XDATA, add(CFA_XSP16, literal(-13)))
          CFI V10 load(1, XDATA, add(CFA_XSP16, literal(-12)))
          CFI V11 load(1, XDATA, add(CFA_XSP16, literal(-11)))
          CFI V12 load(1, XDATA, add(CFA_XSP16, literal(-10)))
          CFI V13 load(1, XDATA, add(CFA_XSP16, literal(-9)))
          CFI V14 load(1, XDATA, add(CFA_XSP16, literal(-8)))
          CFI V15 load(1, XDATA, add(CFA_XSP16, literal(-7)))
          CFI R7 load(1, XDATA, add(CFA_XSP16, literal(-6)))
          CFI ?RET_LOW load(1, XDATA, add(CFA_XSP16, literal(-5)))
          CFI ?RET_HIGH load(1, XDATA, add(CFA_XSP16, literal(-4)))
          CFI ?BRET_EXT load(1, XDATA, add(CFA_XSP16, literal(-3)))
          CFI DPL0 load(1, XDATA, add(CFA_XSP16, literal(-2)))
          CFI DPH0 load(1, XDATA, add(CFA_XSP16, literal(-1)))
          CFI CFA_SP SP+-2
          CFI CFA_XSP16 add(XSP16, 52)
          CFI Block cfiCond101 Using cfiCommon0
          CFI (cfiCond101) Function MT_ZdoSendData
          CFI (cfiCond101) Conditional ??CrossCallReturnLabel_50
          CFI (cfiCond101) R6 load(1, XDATA, add(CFA_XSP16, literal(-14)))
          CFI (cfiCond101) VB load(1, XDATA, add(CFA_XSP16, literal(-13)))
          CFI (cfiCond101) V0 load(1, XDATA, add(CFA_XSP16, literal(-12)))
          CFI (cfiCond101) V1 load(1, XDATA, add(CFA_XSP16, literal(-11)))
          CFI (cfiCond101) V2 load(1, XDATA, add(CFA_XSP16, literal(-10)))
          CFI (cfiCond101) V3 load(1, XDATA, add(CFA_XSP16, literal(-9)))
          CFI (cfiCond101) V4 load(1, XDATA, add(CFA_XSP16, literal(-8)))
          CFI (cfiCond101) V5 load(1, XDATA, add(CFA_XSP16, literal(-7)))
          CFI (cfiCond101) R7 load(1, XDATA, add(CFA_XSP16, literal(-6)))
          CFI (cfiCond101) ?RET_LOW load(1, XDATA, add(CFA_XSP16, literal(-5)))
          CFI (cfiCond101) ?RET_HIGH load(1, XDATA, add(CFA_XSP16, literal(-4)))
          CFI (cfiCond101) ?BRET_EXT load(1, XDATA, add(CFA_XSP16, literal(-3)))
          CFI (cfiCond101) DPL0 load(1, XDATA, add(CFA_XSP16, literal(-2)))
          CFI (cfiCond101) DPH0 load(1, XDATA, add(CFA_XSP16, literal(-1)))
          CFI (cfiCond101) CFA_SP SP+-2
          CFI (cfiCond101) CFA_XSP16 add(XSP16, 25)
          CFI Block cfiPicker102 Using cfiCommon1
          CFI (cfiPicker102) NoFunction
          CFI (cfiPicker102) Picker
        MOVX    @DPTR,A
        ; Setup parameters for call to function osal_memcpy
        MOV     DPL,?V0
        MOV     DPH,?V1
        INC     DPTR
        INC     DPTR
        RET
          CFI EndBlock cfiCond100
          CFI EndBlock cfiCond101
          CFI EndBlock cfiPicker102
// 1744 
// 1745 /***************************************************************************************************
// 1746  * @fn      MT_ZdoNwkAddrOfInterestReq
// 1747  *
// 1748  * @brief   Handle a ZDO Network Address of Interest request.
// 1749  *
// 1750  * @param   pBuf  - MT message data
// 1751  *
// 1752  * @return  void
// 1753  ***************************************************************************************************/

        RSEG BANKED_CODE:CODE:NOROOT(0)
// 1754 static void MT_ZdoNwkAddrOfInterestReq( uint8 *pBuf )
MT_ZdoNwkAddrOfInterestReq:
          CFI Block cfiBlock103 Using cfiCommon0
          CFI Function MT_ZdoNwkAddrOfInterestReq
        CODE
// 1755 {
        FUNCALL MT_ZdoNwkAddrOfInterestReq, osal_build_uint16
        LOCFRAME ISTACK, 0, STACK
        LOCFRAME PSTACK, 0, STACK
        LOCFRAME XSTACK, 24, STACK
        LOCFRAME IOVERLAY, 0, STATIC
        LOCFRAME DOVERLAY, 0, STATIC
        ARGFRAME ISTACK, 0, STACK
        ARGFRAME PSTACK, 0, STACK
        ARGFRAME XSTACK, 24, STACK
        ARGFRAME IOVERLAY, 0, STATIC
        ARGFRAME DOVERLAY, 0, STATIC
        FUNCALL MT_ZdoNwkAddrOfInterestReq, osal_build_uint16
        LOCFRAME ISTACK, 0, STACK
        LOCFRAME PSTACK, 0, STACK
        LOCFRAME XSTACK, 24, STACK
        LOCFRAME IOVERLAY, 0, STATIC
        LOCFRAME DOVERLAY, 0, STATIC
        ARGFRAME ISTACK, 0, STACK
        ARGFRAME PSTACK, 0, STACK
        ARGFRAME XSTACK, 24, STACK
        ARGFRAME IOVERLAY, 0, STATIC
        ARGFRAME DOVERLAY, 0, STATIC
        FUNCALL MT_ZdoNwkAddrOfInterestReq, ZDP_NWKAddrOfInterestReq
        LOCFRAME ISTACK, 0, STACK
        LOCFRAME PSTACK, 0, STACK
        LOCFRAME XSTACK, 25, STACK
        LOCFRAME IOVERLAY, 0, STATIC
        LOCFRAME DOVERLAY, 0, STATIC
        ARGFRAME ISTACK, 0, STACK
        ARGFRAME PSTACK, 0, STACK
        ARGFRAME XSTACK, 25, STACK
        ARGFRAME IOVERLAY, 0, STATIC
        ARGFRAME DOVERLAY, 0, STATIC
        FUNCALL MT_ZdoNwkAddrOfInterestReq, ZDP_NWKAddrOfInterestReq
        LOCFRAME ISTACK, 0, STACK
        LOCFRAME PSTACK, 0, STACK
        LOCFRAME XSTACK, 25, STACK
        LOCFRAME IOVERLAY, 0, STATIC
        LOCFRAME DOVERLAY, 0, STATIC
        ARGFRAME ISTACK, 0, STACK
        ARGFRAME PSTACK, 0, STACK
        ARGFRAME XSTACK, 25, STACK
        ARGFRAME IOVERLAY, 0, STATIC
        ARGFRAME DOVERLAY, 0, STATIC
        FUNCALL MT_ZdoNwkAddrOfInterestReq, MT_BuildAndSendZToolResponse
        LOCFRAME ISTACK, 0, STACK
        LOCFRAME PSTACK, 0, STACK
        LOCFRAME XSTACK, 24, STACK
        LOCFRAME IOVERLAY, 0, STATIC
        LOCFRAME DOVERLAY, 0, STATIC
        ARGFRAME ISTACK, 0, STACK
        ARGFRAME PSTACK, 0, STACK
        ARGFRAME XSTACK, 24, STACK
        ARGFRAME IOVERLAY, 0, STATIC
        ARGFRAME DOVERLAY, 0, STATIC
        REQUIRE ?V0
        REQUIRE ?V1
        REQUIRE ?V2
        REQUIRE ?V3
        REQUIRE ?V4
        REQUIRE ?V5
        MOV     A,#-0xe
        LCALL   ?BANKED_ENTER_XDATA
          CFI DPH0 load(1, XDATA, add(CFA_XSP16, literal(-1)))
          CFI DPL0 load(1, XDATA, add(CFA_XSP16, literal(-2)))
          CFI ?BRET_EXT load(1, XDATA, add(CFA_XSP16, literal(-3)))
          CFI ?RET_HIGH load(1, XDATA, add(CFA_XSP16, literal(-4)))
          CFI ?RET_LOW load(1, XDATA, add(CFA_XSP16, literal(-5)))
          CFI R7 load(1, XDATA, add(CFA_XSP16, literal(-6)))
          CFI V5 load(1, XDATA, add(CFA_XSP16, literal(-7)))
          CFI V4 load(1, XDATA, add(CFA_XSP16, literal(-8)))
          CFI V3 load(1, XDATA, add(CFA_XSP16, literal(-9)))
          CFI V2 load(1, XDATA, add(CFA_XSP16, literal(-10)))
          CFI V1 load(1, XDATA, add(CFA_XSP16, literal(-11)))
          CFI V0 load(1, XDATA, add(CFA_XSP16, literal(-12)))
          CFI VB load(1, XDATA, add(CFA_XSP16, literal(-13)))
          CFI R6 load(1, XDATA, add(CFA_XSP16, literal(-14)))
          CFI CFA_SP SP+0
          CFI CFA_XSP16 add(XSP16, 14)
        ; Saved register size: 14
        ; Auto size: 10
        MOV     A,#-0xa
        LCALL   ?ALLOC_XSTACK8
          CFI CFA_XSP16 add(XSP16, 24)
        MOV     A,R2
        MOV     R6,A
        MOV     A,R3
        MOV     R7,A
// 1756   uint8 cmdId;
// 1757   uint8 retValue;
// 1758   zAddrType_t destAddr;
// 1759   uint16 nwkAddr;
// 1760   uint8 cmd;
// 1761 
// 1762     /* parse header */
// 1763   cmdId = pBuf[MT_RPC_POS_CMD1];
        MOV     DPL,R6
        MOV     DPH,R7
        INC     DPTR
        INC     DPTR
        MOVX    A,@DPTR
        MOV     ?V2,A
// 1764   pBuf += MT_RPC_FRAME_HDR_SZ;
        MOV     A,R6
        ADD     A,#0x3
        MOV     R6,A
        JNC     ??MT_ZdoNwkAddrOfInterestReq_0
        INC     R7
// 1765 
// 1766   /* Destination address */
// 1767   destAddr.addrMode = Addr16Bit;
??MT_ZdoNwkAddrOfInterestReq_0:
        MOV     A,#0x9
        LCALL   ?XSTACK_DISP0_8
        LCALL   ?Subroutine19 & 0xFFFF
// 1768   destAddr.addr.shortAddr = osal_build_uint16( pBuf );
??CrossCallReturnLabel_40:
        LCALL   `??osal_build_uint16::?relay`; Banked call to: osal_build_uint16
        MOV     A,#0x1
        LCALL   ?XSTACK_DISP0_8
        LCALL   ??Subroutine40_0 & 0xFFFF
// 1769   pBuf += 2;
??CrossCallReturnLabel_87:
        JNC     ??MT_ZdoNwkAddrOfInterestReq_1
        INC     R7
// 1770 
// 1771   /* Network Address of Interest */
// 1772   nwkAddr = osal_build_uint16( pBuf );
??MT_ZdoNwkAddrOfInterestReq_1:
        ; Setup parameters for call to function osal_build_uint16
        MOV     R2,A
        MOV     A,R7
        MOV     R3,A
        LCALL   `??osal_build_uint16::?relay`; Banked call to: osal_build_uint16
        MOV     ?V0,R2
        MOV     ?V1,R3
// 1773   pBuf += 2;
// 1774 
// 1775   cmd = *pBuf++;
        MOV     DPL,R6
        MOV     DPH,R7
        INC     DPTR
        INC     DPTR
        MOVX    A,@DPTR
        MOV     R6,A
// 1776 
// 1777   /* Send the Generic ZDO message request */
// 1778   retValue = (uint8)ZDP_NWKAddrOfInterestReq( &destAddr, nwkAddr, cmd, 0 );
        ; Setup parameters for call to function ZDP_NWKAddrOfInterestReq
        MOV     ?V3,#0x0
        MOV     R0,#?V3
        LCALL   ?PUSH_XSTACK_I_ONE
          CFI CFA_XSP16 add(XSP16, 25)
        MOV     A,R6
        MOV     R1,A
        MOV     R4,?V0
        MOV     R5,?V1
        MOV     A,#0x2
        LCALL   ?XSTACK_DISP101_8
        LCALL   `??ZDP_NWKAddrOfInterestReq::?relay`; Banked call to: ZDP_NWKAddrOfInterestReq
        MOV     A,#0x1
        LCALL   ?DEALLOC_XSTACK8
          CFI CFA_XSP16 add(XSP16, 24)
        MOV     A,R1
        MOV     DPL,?XSP + 0
        MOV     DPH,?XSP + 1
        MOVX    @DPTR,A
// 1779 
// 1780 
// 1781   /*
// 1782     Since we don't recevied our own broadcast messages, we should
// 1783     send a unicast copy of the message to ourself.
// 1784   */
// 1785   if ( destAddr.addrMode == AddrBroadcast )
        MOV     A,#0x9
        LCALL   ?XSTACK_DISP0_8
        MOVX    A,@DPTR
        XRL     A,#0xf
        JNZ     ??MT_ZdoNwkAddrOfInterestReq_2
// 1786   {
// 1787     destAddr.addrMode = Addr16Bit;
        LCALL   ?Subroutine25 & 0xFFFF
// 1788     destAddr.addr.shortAddr = _NIB.nwkDevAddress;
??CrossCallReturnLabel_55:
        MOV     A,#0x1
        LCALL   ?XSTACK_DISP0_8
        MOV     A,R0
        MOVX    @DPTR,A
        INC     DPTR
        MOV     A,R1
        MOVX    @DPTR,A
// 1789     retValue = (uint8)ZDP_NWKAddrOfInterestReq( &destAddr, nwkAddr, cmd, 0 );
        ; Setup parameters for call to function ZDP_NWKAddrOfInterestReq
        MOV     R0,#?V3
        LCALL   ?PUSH_XSTACK_I_ONE
          CFI CFA_XSP16 add(XSP16, 25)
        MOV     A,R6
        MOV     R1,A
        MOV     R4,?V0
        MOV     R5,?V1
        MOV     A,#0x2
        LCALL   ?XSTACK_DISP101_8
        LCALL   `??ZDP_NWKAddrOfInterestReq::?relay`; Banked call to: ZDP_NWKAddrOfInterestReq
        MOV     A,#0x1
        LCALL   ?DEALLOC_XSTACK8
          CFI CFA_XSP16 add(XSP16, 24)
        MOV     A,R1
        MOV     DPL,?XSP + 0
        MOV     DPH,?XSP + 1
        MOVX    @DPTR,A
// 1790   }
// 1791 
// 1792   MT_BuildAndSendZToolResponse(((uint8)MT_RPC_CMD_SRSP | (uint8)MT_RPC_SYS_ZDO), cmdId, 1, &retValue);
??MT_ZdoNwkAddrOfInterestReq_2:
        ; Setup parameters for call to function MT_BuildAndSendZToolResponse
        MOV     R4,?XSP + 0
        MOV     R5,?XSP + 1
        MOV     R3,#0x1
        MOV     R2,?V2
        MOV     R1,#0x65
        LCALL   `??MT_BuildAndSendZToolResponse::?relay`; Banked call to: MT_BuildAndSendZToolResponse
// 1793 }
        MOV     A,#0xa
        LJMP    ?Subroutine1 & 0xFFFF
          CFI EndBlock cfiBlock103

        RSEG BANKED_CODE:CODE:NOROOT(0)
?Subroutine25:
          CFI Block cfiCond104 Using cfiCommon0
          CFI Function MT_ZdoSendData
          CFI Conditional ??CrossCallReturnLabel_54
          CFI R6 load(1, XDATA, add(CFA_XSP16, literal(-14)))
          CFI VB load(1, XDATA, add(CFA_XSP16, literal(-13)))
          CFI V0 load(1, XDATA, add(CFA_XSP16, literal(-12)))
          CFI V1 load(1, XDATA, add(CFA_XSP16, literal(-11)))
          CFI V2 load(1, XDATA, add(CFA_XSP16, literal(-10)))
          CFI V3 load(1, XDATA, add(CFA_XSP16, literal(-9)))
          CFI V4 load(1, XDATA, add(CFA_XSP16, literal(-8)))
          CFI V5 load(1, XDATA, add(CFA_XSP16, literal(-7)))
          CFI R7 load(1, XDATA, add(CFA_XSP16, literal(-6)))
          CFI ?RET_LOW load(1, XDATA, add(CFA_XSP16, literal(-5)))
          CFI ?RET_HIGH load(1, XDATA, add(CFA_XSP16, literal(-4)))
          CFI ?BRET_EXT load(1, XDATA, add(CFA_XSP16, literal(-3)))
          CFI DPL0 load(1, XDATA, add(CFA_XSP16, literal(-2)))
          CFI DPH0 load(1, XDATA, add(CFA_XSP16, literal(-1)))
          CFI CFA_SP SP+-2
          CFI CFA_XSP16 add(XSP16, 25)
          CFI Block cfiCond105 Using cfiCommon0
          CFI (cfiCond105) Function MT_ZdoNwkAddrOfInterestReq
          CFI (cfiCond105) Conditional ??CrossCallReturnLabel_55
          CFI (cfiCond105) R6 load(1, XDATA, add(CFA_XSP16, literal(-14)))
          CFI (cfiCond105) VB load(1, XDATA, add(CFA_XSP16, literal(-13)))
          CFI (cfiCond105) V0 load(1, XDATA, add(CFA_XSP16, literal(-12)))
          CFI (cfiCond105) V1 load(1, XDATA, add(CFA_XSP16, literal(-11)))
          CFI (cfiCond105) V2 load(1, XDATA, add(CFA_XSP16, literal(-10)))
          CFI (cfiCond105) V3 load(1, XDATA, add(CFA_XSP16, literal(-9)))
          CFI (cfiCond105) V4 load(1, XDATA, add(CFA_XSP16, literal(-8)))
          CFI (cfiCond105) V5 load(1, XDATA, add(CFA_XSP16, literal(-7)))
          CFI (cfiCond105) R7 load(1, XDATA, add(CFA_XSP16, literal(-6)))
          CFI (cfiCond105) ?RET_LOW load(1, XDATA, add(CFA_XSP16, literal(-5)))
          CFI (cfiCond105) ?RET_HIGH load(1, XDATA, add(CFA_XSP16, literal(-4)))
          CFI (cfiCond105) ?BRET_EXT load(1, XDATA, add(CFA_XSP16, literal(-3)))
          CFI (cfiCond105) DPL0 load(1, XDATA, add(CFA_XSP16, literal(-2)))
          CFI (cfiCond105) DPH0 load(1, XDATA, add(CFA_XSP16, literal(-1)))
          CFI (cfiCond105) CFA_SP SP+-2
          CFI (cfiCond105) CFA_XSP16 add(XSP16, 24)
          CFI Block cfiPicker106 Using cfiCommon1
          CFI (cfiPicker106) NoFunction
          CFI (cfiPicker106) Picker
        MOV     A,#0x2
        MOVX    @DPTR,A
        MOV     DPTR,#_NIB + 20
        MOVX    A,@DPTR
        MOV     R0,A
        INC     DPTR
        MOVX    A,@DPTR
        MOV     R1,A
        RET
          CFI EndBlock cfiCond104
          CFI EndBlock cfiCond105
          CFI EndBlock cfiPicker106
// 1794 
// 1795 /***************************************************************************************************
// 1796  * @fn      MT_ZdoStartupFromApp
// 1797  *
// 1798  * @brief   Handle a Startup from App request.
// 1799  *
// 1800  * @param   pBuf  - MT message data
// 1801  *
// 1802  * @return  void
// 1803  ***************************************************************************************************/
// 1804 static void MT_ZdoStartupFromApp(uint8 *pBuf)
// 1805 {
// 1806   uint8 cmd0, cmd1, retValue;
// 1807 
// 1808   /* parse header */
// 1809   cmd0 = pBuf[MT_RPC_POS_CMD0];
// 1810   cmd1 = pBuf[MT_RPC_POS_CMD1];
// 1811   pBuf += MT_RPC_FRAME_HDR_SZ;
// 1812 
// 1813   retValue = ZDOInitDevice(100);
// 1814 
// 1815   if (MT_RPC_CMD_SREQ == (cmd0 & MT_RPC_CMD_TYPE_MASK))
// 1816   {
// 1817     MT_BuildAndSendZToolResponse(((uint8)MT_RPC_CMD_SRSP|(uint8)MT_RPC_SYS_ZDO), cmd1,1, &retValue);
// 1818   }
// 1819 }
// 1820 
// 1821 
// 1822 /***************************************************************************************************
// 1823  * @fn      MT_ZdoNetworkDiscoveryReq
// 1824  *
// 1825  * @brief   Handle a ZDO Network Discovery request.
// 1826  *
// 1827  * @param   pBuf  - MT message data
// 1828  *
// 1829  * @return  void
// 1830  ***************************************************************************************************/
// 1831 static void MT_ZdoNetworkDiscoveryReq(uint8 *pBuf)
// 1832 {
// 1833   uint8  retValue = ZFailure;
// 1834   uint8  cmdId;
// 1835   uint32 scanChannels;
// 1836 
// 1837   /* parse header */
// 1838   cmdId = pBuf[MT_RPC_POS_CMD1];
// 1839   pBuf += MT_RPC_FRAME_HDR_SZ;
// 1840 
// 1841   /* Packet format */
// 1842   /* scan channels (4) | scan duration (1) */
// 1843 
// 1844   /* Scan channels */
// 1845   scanChannels = osal_build_uint32(pBuf, 4);
// 1846   pBuf += 4;
// 1847 
// 1848   retValue = ZDApp_NetworkDiscoveryReq(scanChannels, *pBuf);
// 1849 
// 1850   // Register ZDO callback for MT to handle the network discovery confirm
// 1851   // and beacon notification confirm
// 1852   ZDO_RegisterForZdoCB( ZDO_NWK_DISCOVERY_CNF_CBID, &MT_ZdoNwkDiscoveryCnfCB );
// 1853   ZDO_RegisterForZdoCB( ZDO_BEACON_NOTIFY_IND_CBID, &MT_ZdoBeaconIndCB );
// 1854 
// 1855   /* Build and send back the response */
// 1856   MT_BuildAndSendZToolResponse(((uint8)MT_RPC_CMD_SRSP | (uint8)MT_RPC_SYS_ZDO), cmdId, 1, &retValue );
// 1857 }
// 1858 
// 1859 
// 1860 /***************************************************************************************************
// 1861  * @fn      MT_ZdoJoinReq
// 1862  *
// 1863  * @brief   Handle a ZDO Join request.
// 1864  *
// 1865  * @param   pBuf  - MT message data
// 1866  *
// 1867  * @return  void
// 1868  ***************************************************************************************************/
// 1869 static void MT_ZdoJoinReq(uint8 *pBuf)
// 1870 {
// 1871   uint8  retValue = ZFailure;
// 1872   uint8  cmdId;
// 1873   uint16 panId;
// 1874   uint16 chosenParent;
// 1875 
// 1876   /* parse header */
// 1877   cmdId = pBuf[MT_RPC_POS_CMD1];
// 1878   pBuf += MT_RPC_FRAME_HDR_SZ;
// 1879 
// 1880   /* Packet format */
// 1881   /* channel     (1) | panID (2) | extendedPanID (8) | chosenParent (2) |
// 1882    * parentDepth (1) | stackProfile  (1)
// 1883    */
// 1884 
// 1885   panId        = osal_build_uint16( &pBuf[1] );
// 1886   chosenParent = osal_build_uint16( &pBuf[11] );
// 1887 
// 1888   retValue = ZDApp_JoinReq(pBuf[0], panId, &(pBuf[3]), chosenParent, pBuf[13], pBuf[14]);
// 1889 
// 1890   /* Register for MT to receive Join Confirm */
// 1891   ZDO_RegisterForZdoCB( ZDO_JOIN_CNF_CBID, &MT_ZdoJoinCnfCB );
// 1892 
// 1893   /* Build and send back the response */
// 1894   MT_BuildAndSendZToolResponse(((uint8)MT_RPC_CMD_SRSP | (uint8)MT_RPC_SYS_ZDO), cmdId, 1, &retValue );
// 1895 
// 1896 }
// 1897 
// 1898 
// 1899 /***************************************************************************************************
// 1900  * @fn          MT_ZdoNwkDiscoveryCnfCB
// 1901  *
// 1902  * @brief       Send an indication to inform host device the completion of
// 1903  *              network discovery scan
// 1904  *
// 1905  * @param       pStr - pointer to a parameter and a structure of parameters
// 1906  *
// 1907  * @return      void
// 1908  ***************************************************************************************************/

        RSEG BANKED_CODE:CODE:NOROOT(0)
// 1909 void *MT_ZdoNwkDiscoveryCnfCB ( void *pStr )
MT_ZdoNwkDiscoveryCnfCB:
          CFI Block cfiBlock107 Using cfiCommon0
          CFI Function MT_ZdoNwkDiscoveryCnfCB
        CODE
// 1910 {
        FUNCALL MT_ZdoNwkDiscoveryCnfCB, ZDO_DeregisterForZdoCB
        LOCFRAME ISTACK, 0, STACK
        LOCFRAME PSTACK, 0, STACK
        LOCFRAME XSTACK, 9, STACK
        LOCFRAME IOVERLAY, 0, STATIC
        LOCFRAME DOVERLAY, 0, STATIC
        ARGFRAME ISTACK, 0, STACK
        ARGFRAME PSTACK, 0, STACK
        ARGFRAME XSTACK, 9, STACK
        ARGFRAME IOVERLAY, 0, STATIC
        ARGFRAME DOVERLAY, 0, STATIC
        FUNCALL MT_ZdoNwkDiscoveryCnfCB, ZDO_DeregisterForZdoCB
        LOCFRAME ISTACK, 0, STACK
        LOCFRAME PSTACK, 0, STACK
        LOCFRAME XSTACK, 9, STACK
        LOCFRAME IOVERLAY, 0, STATIC
        LOCFRAME DOVERLAY, 0, STATIC
        ARGFRAME ISTACK, 0, STACK
        ARGFRAME PSTACK, 0, STACK
        ARGFRAME XSTACK, 9, STACK
        ARGFRAME IOVERLAY, 0, STATIC
        ARGFRAME DOVERLAY, 0, STATIC
        FUNCALL MT_ZdoNwkDiscoveryCnfCB, MT_ZdoBeaconIndCB
        LOCFRAME ISTACK, 0, STACK
        LOCFRAME PSTACK, 0, STACK
        LOCFRAME XSTACK, 9, STACK
        LOCFRAME IOVERLAY, 0, STATIC
        LOCFRAME DOVERLAY, 0, STATIC
        ARGFRAME ISTACK, 0, STACK
        ARGFRAME PSTACK, 0, STACK
        ARGFRAME XSTACK, 9, STACK
        ARGFRAME IOVERLAY, 0, STATIC
        ARGFRAME DOVERLAY, 0, STATIC
        FUNCALL MT_ZdoNwkDiscoveryCnfCB, MT_BuildAndSendZToolResponse
        LOCFRAME ISTACK, 0, STACK
        LOCFRAME PSTACK, 0, STACK
        LOCFRAME XSTACK, 9, STACK
        LOCFRAME IOVERLAY, 0, STATIC
        LOCFRAME DOVERLAY, 0, STATIC
        ARGFRAME ISTACK, 0, STACK
        ARGFRAME PSTACK, 0, STACK
        ARGFRAME XSTACK, 9, STACK
        ARGFRAME IOVERLAY, 0, STATIC
        ARGFRAME DOVERLAY, 0, STATIC
        MOV     A,#-0x9
        LCALL   ?BANKED_ENTER_XDATA
          CFI DPH0 load(1, XDATA, add(CFA_XSP16, literal(-1)))
          CFI DPL0 load(1, XDATA, add(CFA_XSP16, literal(-2)))
          CFI ?BRET_EXT load(1, XDATA, add(CFA_XSP16, literal(-3)))
          CFI ?RET_HIGH load(1, XDATA, add(CFA_XSP16, literal(-4)))
          CFI ?RET_LOW load(1, XDATA, add(CFA_XSP16, literal(-5)))
          CFI R7 load(1, XDATA, add(CFA_XSP16, literal(-6)))
          CFI V0 load(1, XDATA, add(CFA_XSP16, literal(-7)))
          CFI VB load(1, XDATA, add(CFA_XSP16, literal(-8)))
          CFI R6 load(1, XDATA, add(CFA_XSP16, literal(-9)))
          CFI CFA_SP SP+0
          CFI CFA_XSP16 add(XSP16, 9)
        ; Saved register size: 9
        ; Auto size: 0
        MOV     A,R2
        MOV     R6,A
        MOV     A,R3
        MOV     R7,A
// 1911   /* pStr: status (uint8) */
// 1912   /* Packet Format */
// 1913   /* Status (1) */
// 1914 
// 1915   // Scan completed. De-register the callback with ZDO
// 1916   ZDO_DeregisterForZdoCB( ZDO_NWK_DISCOVERY_CNF_CBID );
        ; Setup parameters for call to function ZDO_DeregisterForZdoCB
        MOV     R1,#0x2
        LCALL   `??ZDO_DeregisterForZdoCB::?relay`; Banked call to: ZDO_DeregisterForZdoCB
// 1917   ZDO_DeregisterForZdoCB( ZDO_BEACON_NOTIFY_IND_CBID );
        ; Setup parameters for call to function ZDO_DeregisterForZdoCB
        MOV     R1,#0x3
        LCALL   `??ZDO_DeregisterForZdoCB::?relay`; Banked call to: ZDO_DeregisterForZdoCB
// 1918 
// 1919   // Send the buffered beacon indication
// 1920   MT_ZdoBeaconIndCB ( NULL );
        ; Setup parameters for call to function MT_ZdoBeaconIndCB
        MOV     R2,#0x0
        MOV     R3,#0x0
        LCALL   `??MT_ZdoBeaconIndCB::?relay`; Banked call to: MT_ZdoBeaconIndCB
// 1921 
// 1922   MT_BuildAndSendZToolResponse(((uint8)MT_RPC_CMD_AREQ | (uint8)MT_RPC_SYS_ZDO),
// 1923                                          MT_ZDO_NWK_DISCOVERY_CNF, 1, pStr);
        ; Setup parameters for call to function MT_BuildAndSendZToolResponse
        MOV     A,R6
        MOV     R4,A
        MOV     A,R7
        MOV     R5,A
        MOV     R3,#0x1
        MOV     R2,#-0x39
        MOV     R1,#0x45
        LCALL   `??MT_BuildAndSendZToolResponse::?relay`; Banked call to: MT_BuildAndSendZToolResponse
// 1924   return NULL;
        MOV     R2,#0x0
        MOV     R3,#0x0
          CFI EndBlock cfiBlock107
        REQUIRE ?Subroutine2
        ; // Fall through to label ?Subroutine2
// 1925 }

        RSEG BANKED_CODE:CODE:NOROOT(0)
?Subroutine2:
          CFI Block cfiBlock108 Using cfiCommon0
          CFI NoFunction
          CFI CFA_SP SP+0
          CFI CFA_XSP16 add(XSP16, 9)
          CFI VB load(1, XDATA, add(CFA_XSP16, literal(-8)))
          CFI DPL0 load(1, XDATA, add(CFA_XSP16, literal(-2)))
          CFI DPH0 load(1, XDATA, add(CFA_XSP16, literal(-1)))
          CFI R6 load(1, XDATA, add(CFA_XSP16, literal(-9)))
          CFI R7 load(1, XDATA, add(CFA_XSP16, literal(-6)))
          CFI V0 load(1, XDATA, add(CFA_XSP16, literal(-7)))
          CFI ?BRET_EXT load(1, XDATA, add(CFA_XSP16, literal(-3)))
          CFI ?RET_HIGH load(1, XDATA, add(CFA_XSP16, literal(-4)))
          CFI ?RET_LOW load(1, XDATA, add(CFA_XSP16, literal(-5)))
        MOV     R7,#0x1
        LJMP    ?BANKED_LEAVE_XDATA
          CFI EndBlock cfiBlock108
// 1926 
// 1927 /***************************************************************************************************
// 1928  * @fn          MT_ZdoBeaconIndCB
// 1929  *
// 1930  * @brief       Send an indication to host device of a beacon notification
// 1931  *
// 1932  * @param       pStr -  pointer to a parameter and a structure of parameters
// 1933  *
// 1934  * @return      void
// 1935  ***************************************************************************************************/

        RSEG BANKED_CODE:CODE:NOROOT(0)
// 1936 void *MT_ZdoBeaconIndCB ( void *pStr )
MT_ZdoBeaconIndCB:
          CFI Block cfiBlock109 Using cfiCommon0
          CFI Function MT_ZdoBeaconIndCB
        CODE
// 1937 {
        FUNCALL MT_ZdoBeaconIndCB, osal_mem_alloc
        LOCFRAME ISTACK, 0, STACK
        LOCFRAME PSTACK, 0, STACK
        LOCFRAME XSTACK, 11, STACK
        LOCFRAME IOVERLAY, 0, STATIC
        LOCFRAME DOVERLAY, 0, STATIC
        ARGFRAME ISTACK, 0, STACK
        ARGFRAME PSTACK, 0, STACK
        ARGFRAME XSTACK, 11, STACK
        ARGFRAME IOVERLAY, 0, STATIC
        ARGFRAME DOVERLAY, 0, STATIC
        FUNCALL MT_ZdoBeaconIndCB, osal_memcpy
        LOCFRAME ISTACK, 0, STACK
        LOCFRAME PSTACK, 0, STACK
        LOCFRAME XSTACK, 14, STACK
        LOCFRAME IOVERLAY, 0, STATIC
        LOCFRAME DOVERLAY, 0, STATIC
        ARGFRAME ISTACK, 0, STACK
        ARGFRAME PSTACK, 0, STACK
        ARGFRAME XSTACK, 14, STACK
        ARGFRAME IOVERLAY, 0, STATIC
        ARGFRAME DOVERLAY, 0, STATIC
        FUNCALL MT_ZdoBeaconIndCB, MT_BuildAndSendZToolResponse
        LOCFRAME ISTACK, 0, STACK
        LOCFRAME PSTACK, 0, STACK
        LOCFRAME XSTACK, 11, STACK
        LOCFRAME IOVERLAY, 0, STATIC
        LOCFRAME DOVERLAY, 0, STATIC
        ARGFRAME ISTACK, 0, STACK
        ARGFRAME PSTACK, 0, STACK
        ARGFRAME XSTACK, 11, STACK
        ARGFRAME IOVERLAY, 0, STATIC
        ARGFRAME DOVERLAY, 0, STATIC
        FUNCALL MT_ZdoBeaconIndCB, MT_BuildAndSendZToolResponse
        LOCFRAME ISTACK, 0, STACK
        LOCFRAME PSTACK, 0, STACK
        LOCFRAME XSTACK, 11, STACK
        LOCFRAME IOVERLAY, 0, STATIC
        LOCFRAME DOVERLAY, 0, STATIC
        ARGFRAME ISTACK, 0, STACK
        ARGFRAME PSTACK, 0, STACK
        ARGFRAME XSTACK, 11, STACK
        ARGFRAME IOVERLAY, 0, STATIC
        ARGFRAME DOVERLAY, 0, STATIC
        FUNCALL MT_ZdoBeaconIndCB, osal_mem_free
        LOCFRAME ISTACK, 0, STACK
        LOCFRAME PSTACK, 0, STACK
        LOCFRAME XSTACK, 11, STACK
        LOCFRAME IOVERLAY, 0, STATIC
        LOCFRAME DOVERLAY, 0, STATIC
        ARGFRAME ISTACK, 0, STACK
        ARGFRAME PSTACK, 0, STACK
        ARGFRAME XSTACK, 11, STACK
        ARGFRAME IOVERLAY, 0, STATIC
        ARGFRAME DOVERLAY, 0, STATIC
        REQUIRE ?V0
        REQUIRE ?V1
        REQUIRE ?V2
        MOV     A,#-0xb
        LCALL   ?BANKED_ENTER_XDATA
          CFI DPH0 load(1, XDATA, add(CFA_XSP16, literal(-1)))
          CFI DPL0 load(1, XDATA, add(CFA_XSP16, literal(-2)))
          CFI ?BRET_EXT load(1, XDATA, add(CFA_XSP16, literal(-3)))
          CFI ?RET_HIGH load(1, XDATA, add(CFA_XSP16, literal(-4)))
          CFI ?RET_LOW load(1, XDATA, add(CFA_XSP16, literal(-5)))
          CFI R7 load(1, XDATA, add(CFA_XSP16, literal(-6)))
          CFI V2 load(1, XDATA, add(CFA_XSP16, literal(-7)))
          CFI V1 load(1, XDATA, add(CFA_XSP16, literal(-8)))
          CFI V0 load(1, XDATA, add(CFA_XSP16, literal(-9)))
          CFI VB load(1, XDATA, add(CFA_XSP16, literal(-10)))
          CFI R6 load(1, XDATA, add(CFA_XSP16, literal(-11)))
          CFI CFA_SP SP+0
          CFI CFA_XSP16 add(XSP16, 11)
        ; Saved register size: 11
        ; Auto size: 0
        MOV     A,R2
        MOV     R6,A
        MOV     A,R3
        MOV     R7,A
// 1938   zdoBeaconInd_t *pBeacon = pStr;
// 1939   uint8 *pTmp;
// 1940 
// 1941   /* Packet Format */
// 1942   /* devCnt (1) | device #1 (21) | device #2 (21) |... | device #n (21) */
// 1943 
// 1944   if( pStr != NULL)
        MOV     A,R6
        ORL     A,R7
        MOV     DPTR,#pBeaconIndBuf
        JNZ     $+5
        LJMP    ??MT_ZdoBeaconIndCB_0 & 0xFFFF
// 1945   {
// 1946     if( pBeaconIndBuf == NULL )
        LCALL   ??Subroutine44_0 & 0xFFFF
??CrossCallReturnLabel_108:
        JNZ     ??MT_ZdoBeaconIndCB_1
// 1947     {
// 1948       // If pBeaconIndBuf has not been allocated yet
// 1949       // allocate memory now with MAX_UART_TX_BUFF
// 1950       if( NULL == (pBeaconIndBuf = (uint8 *)osal_mem_alloc(MT_ZDO_BEACON_IND_PACK_LEN)))
        ; Setup parameters for call to function osal_mem_alloc
        MOV     R2,#0x7b
        MOV     R3,#0x0
        LCALL   `??osal_mem_alloc::?relay`; Banked call to: osal_mem_alloc
        MOV     DPTR,#pBeaconIndBuf
        MOV     A,R2
        MOVX    @DPTR,A
        INC     DPTR
        MOV     A,R3
        MOVX    @DPTR,A
        LCALL   ?Subroutine6 & 0xFFFF
??CrossCallReturnLabel_110:
        JNZ     $+5
        LJMP    ??MT_ZdoBeaconIndCB_2 & 0xFFFF
// 1951       {
// 1952         // Memory failure
// 1953         return NULL;
// 1954       }
// 1955       pBeaconIndBuf[0] = 0; // First byte is devCnt. Initialize to 0.
        LCALL   ??Subroutine43_0 & 0xFFFF
// 1956     }
??CrossCallReturnLabel_104:
        CLR     A
        MOVX    @DPTR,A
// 1957 
// 1958     // Fill in the buffer with the beacon indication
// 1959     pTmp = pBeaconIndBuf + (1 + pBeaconIndBuf[0] * MT_ZDO_BEACON_IND_LEN);
??MT_ZdoBeaconIndCB_1:
        LCALL   ?Subroutine7 & 0xFFFF
??CrossCallReturnLabel_9:
        MOV     B,#0x15
        MUL     AB
        MOV     R0,A
        MOV     R1,B
        MOV     DPTR,#pBeaconIndBuf
        MOVX    A,@DPTR
        ADD     A,R0
        MOV     R2,A
        INC     DPTR
        MOVX    A,@DPTR
        ADDC    A,R1
        MOV     DPL,R2
        MOV     DPH,A
        INC     DPTR
        MOV     R2,DPL
        MOV     R3,DPH
// 1960     *pTmp++ = LO_UINT16(pBeacon->sourceAddr);
        MOV     DPL,R6
        MOV     DPH,R7
        LCALL   ?Subroutine35 & 0xFFFF
??CrossCallReturnLabel_100:
        MOVX    @DPTR,A
// 1961     *pTmp++ = HI_UINT16(pBeacon->sourceAddr);
        MOV     DPL,R6
        MOV     DPH,R7
        LCALL   ?Subroutine15 & 0xFFFF
??CrossCallReturnLabel_98:
        MOVX    @DPTR,A
// 1962     *pTmp++ = LO_UINT16(pBeacon->panID);
        LCALL   ?Subroutine4 & 0xFFFF
??CrossCallReturnLabel_2:
        INC     DPTR
        INC     DPTR
        LCALL   ?Subroutine26 & 0xFFFF
// 1963     *pTmp++ = HI_UINT16(pBeacon->panID);
??CrossCallReturnLabel_56:
        LCALL   ?Subroutine14 & 0xFFFF
// 1964     *pTmp++ = pBeacon->logicalChannel;
??CrossCallReturnLabel_24:
        MOV     DPL,R6
        MOV     DPH,R7
        INC     DPTR
        INC     DPTR
        INC     DPTR
        LCALL   ?Subroutine13 & 0xFFFF
// 1965     *pTmp++ = pBeacon->permitJoining;
??CrossCallReturnLabel_22:
        MOV     DPL,R6
        MOV     DPH,R7
        INC     DPTR
        INC     DPTR
        INC     DPTR
        INC     DPTR
        INC     DPTR
        LCALL   ?Subroutine12 & 0xFFFF
// 1966     *pTmp++ = pBeacon->routerCapacity;
??CrossCallReturnLabel_20:
        MOV     DPL,R6
        MOV     DPH,R7
        INC     DPTR
        INC     DPTR
        INC     DPTR
        INC     DPTR
        INC     DPTR
        INC     DPTR
        LCALL   ?Subroutine11 & 0xFFFF
// 1967     *pTmp++ = pBeacon->deviceCapacity;
??CrossCallReturnLabel_18:
        MOV     DPL,R6
        MOV     DPH,R7
        INC     DPTR
        INC     DPTR
        INC     DPTR
        INC     DPTR
        INC     DPTR
        INC     DPTR
        INC     DPTR
        LCALL   ?Subroutine10 & 0xFFFF
// 1968     *pTmp++ = pBeacon->protocolVersion;
??CrossCallReturnLabel_16:
        MOV     DPL,R6
        MOV     DPH,R7
        INC     DPTR
        INC     DPTR
        INC     DPTR
        INC     DPTR
        INC     DPTR
        INC     DPTR
        INC     DPTR
        LCALL   ?Subroutine8 & 0xFFFF
// 1969     *pTmp++ = pBeacon->stackProfile;
??CrossCallReturnLabel_12:
        MOV     DPL,R6
        MOV     DPH,R7
        LCALL   ?Subroutine9 & 0xFFFF
??CrossCallReturnLabel_14:
        MOVX    @DPTR,A
// 1970     *pTmp++ = pBeacon->LQI;
        MOV     DPL,R6
        MOV     DPH,R7
        INC     DPTR
        LCALL   ?Subroutine9 & 0xFFFF
??CrossCallReturnLabel_15:
        INC     DPTR
        LCALL   ?Subroutine22 & 0xFFFF
// 1971     *pTmp++ = pBeacon->depth;
??CrossCallReturnLabel_47:
        MOVX    A,@DPTR
        PUSH    A
          CFI CFA_SP SP+-1
        MOV     A,R2
        ADD     A,#0xb
        MOV     DPL,A
        CLR     A
        ADDC    A,R3
        MOV     DPH,A
        POP     A
          CFI CFA_SP SP+0
        MOVX    @DPTR,A
// 1972     *pTmp++ = pBeacon->updateID;
        MOV     A,R6
        ADD     A,#0xc
        MOV     DPL,A
        CLR     A
        ADDC    A,R7
        MOV     DPH,A
        MOVX    A,@DPTR
        PUSH    A
          CFI CFA_SP SP+-1
        MOV     A,R2
        ADD     A,#0xc
        MOV     DPL,A
        CLR     A
        ADDC    A,R3
        MOV     DPH,A
        POP     A
          CFI CFA_SP SP+0
        MOVX    @DPTR,A
// 1973     osal_memcpy( pTmp, pBeacon->extendedPanID, Z_EXTADDR_LEN);
        ; Setup parameters for call to function osal_memcpy
        MOV     A,R6
        ADD     A,#0xd
        MOV     ?V0,A
        CLR     A
        ADDC    A,R7
        MOV     ?V1,A
        MOV     ?V2,#0x0
        MOV     R0,#?V0
        LCALL   ?PUSH_XSTACK_I_THREE
          CFI CFA_XSP16 add(XSP16, 14)
        MOV     R4,#0x8
        MOV     R5,#0x0
        MOV     A,R2
        ADD     A,#0xd
        MOV     R2,A
        JNC     ??MT_ZdoBeaconIndCB_3
        INC     R3
??MT_ZdoBeaconIndCB_3:
        LCALL   `??osal_memcpy::?relay`; Banked call to: osal_memcpy
        MOV     A,#0x3
        LCALL   ?DEALLOC_XSTACK8
          CFI CFA_XSP16 add(XSP16, 11)
// 1974 
// 1975     pBeaconIndBuf[0] += 1; // Increment the devCnt
        LCALL   ?Subroutine7 & 0xFFFF
??CrossCallReturnLabel_10:
        INC     A
        MOVX    @DPTR,A
// 1976 
// 1977     // Check if the buffer can fit in another beacon
// 1978     if( ((pBeaconIndBuf[0] + 1) * MT_ZDO_BEACON_IND_LEN + 1) > MT_ZDO_BEACON_IND_PACK_LEN )
        LCALL   ?Subroutine7 & 0xFFFF
??CrossCallReturnLabel_11:
        MOV     R2,A
        MOV     B,#0x15
        MUL     AB
        MOV     R1,B
        ADD     A,#0x16
        JNC     ??MT_ZdoBeaconIndCB_4
        INC     R1
??MT_ZdoBeaconIndCB_4:
        CLR     C
        SUBB    A,#0x7c
        MOV     A,R1
        SUBB    A,#0x0
        MOV     C,0xD0 /* PSW */.2
        XRL     A,PSW
        RLC     A
        JC      ??MT_ZdoBeaconIndCB_2
// 1979     {
// 1980       // Packet full, send the packet over MT
// 1981       MT_BuildAndSendZToolResponse(((uint8)MT_RPC_CMD_AREQ | (uint8)MT_RPC_SYS_ZDO),
// 1982                                    MT_ZDO_BEACON_NOTIFY_IND,
// 1983                                    (pBeaconIndBuf[0] * MT_ZDO_BEACON_IND_LEN + 1), pBeaconIndBuf);
        ; Setup parameters for call to function MT_BuildAndSendZToolResponse
        LCALL   ?Subroutine16 & 0xFFFF
??CrossCallReturnLabel_26:
        MOV     A,R2
        MUL     AB
        INC     A
        MOV     R3,A
        MOV     R2,#-0x3b
        MOV     R1,#0x45
        LCALL   `??MT_BuildAndSendZToolResponse::?relay`; Banked call to: MT_BuildAndSendZToolResponse
// 1984       pBeaconIndBuf[0] = 0; // Reset the devCnt back to zero
        LCALL   ?Subroutine33 & 0xFFFF
// 1985     }
// 1986   }
??CrossCallReturnLabel_106:
        CLR     A
        SJMP    ??MT_ZdoBeaconIndCB_5
// 1987   else
// 1988   {
// 1989     if( (pBeaconIndBuf != NULL) && (pBeaconIndBuf[0] != 0) )
??MT_ZdoBeaconIndCB_0:
        LCALL   ??Subroutine44_0 & 0xFFFF
??CrossCallReturnLabel_109:
        JZ      ??MT_ZdoBeaconIndCB_2
        LCALL   ??Subroutine43_0 & 0xFFFF
??CrossCallReturnLabel_105:
        MOVX    A,@DPTR
        MOV     R0,A
        JZ      ??MT_ZdoBeaconIndCB_6
// 1990     {
// 1991       // End of beacon indication, send the packet over MT
// 1992       MT_BuildAndSendZToolResponse(((uint8)MT_RPC_CMD_AREQ | (uint8)MT_RPC_SYS_ZDO),
// 1993                                    MT_ZDO_BEACON_NOTIFY_IND,
// 1994                                    (pBeaconIndBuf[0] * MT_ZDO_BEACON_IND_LEN + 1), pBeaconIndBuf);
        ; Setup parameters for call to function MT_BuildAndSendZToolResponse
        LCALL   ?Subroutine16 & 0xFFFF
// 1995     }
??CrossCallReturnLabel_27:
        MOV     A,R0
        MUL     AB
        INC     A
        MOV     R3,A
        MOV     R2,#-0x3b
        MOV     R1,#0x45
        LCALL   `??MT_BuildAndSendZToolResponse::?relay`; Banked call to: MT_BuildAndSendZToolResponse
// 1996     // Free the allocated memory
// 1997     if(pBeaconIndBuf != NULL)
        LCALL   ?Subroutine6 & 0xFFFF
??CrossCallReturnLabel_111:
        JZ      ??MT_ZdoBeaconIndCB_2
// 1998     {
// 1999       osal_mem_free(pBeaconIndBuf);
??MT_ZdoBeaconIndCB_6:
        ; Setup parameters for call to function osal_mem_free
        MOV     DPTR,#pBeaconIndBuf
        MOVX    A,@DPTR
        MOV     R2,A
        INC     DPTR
        MOVX    A,@DPTR
        MOV     R3,A
        LCALL   `??osal_mem_free::?relay`; Banked call to: osal_mem_free
// 2000       pBeaconIndBuf = NULL;
        MOV     DPTR,#pBeaconIndBuf
        CLR     A
        MOVX    @DPTR,A
        INC     DPTR
??MT_ZdoBeaconIndCB_5:
        MOVX    @DPTR,A
// 2001     }
// 2002   }
// 2003 
// 2004   return NULL;
??MT_ZdoBeaconIndCB_2:
        MOV     R2,#0x0
        MOV     R3,#0x0
        MOV     R7,#0x3
        LJMP    ?BANKED_LEAVE_XDATA
// 2005 }
          CFI EndBlock cfiBlock109

        RSEG BANKED_CODE:CODE:NOROOT(0)
?Subroutine16:
          CFI Block cfiCond110 Using cfiCommon0
          CFI Function MT_ZdoBeaconIndCB
          CFI Conditional ??CrossCallReturnLabel_26
          CFI R6 load(1, XDATA, add(CFA_XSP16, literal(-11)))
          CFI VB load(1, XDATA, add(CFA_XSP16, literal(-10)))
          CFI V0 load(1, XDATA, add(CFA_XSP16, literal(-9)))
          CFI V1 load(1, XDATA, add(CFA_XSP16, literal(-8)))
          CFI V2 load(1, XDATA, add(CFA_XSP16, literal(-7)))
          CFI R7 load(1, XDATA, add(CFA_XSP16, literal(-6)))
          CFI ?RET_LOW load(1, XDATA, add(CFA_XSP16, literal(-5)))
          CFI ?RET_HIGH load(1, XDATA, add(CFA_XSP16, literal(-4)))
          CFI ?BRET_EXT load(1, XDATA, add(CFA_XSP16, literal(-3)))
          CFI DPL0 load(1, XDATA, add(CFA_XSP16, literal(-2)))
          CFI DPH0 load(1, XDATA, add(CFA_XSP16, literal(-1)))
          CFI CFA_SP SP+-2
          CFI CFA_XSP16 add(XSP16, 11)
          CFI Block cfiCond111 Using cfiCommon0
          CFI (cfiCond111) Function MT_ZdoBeaconIndCB
          CFI (cfiCond111) Conditional ??CrossCallReturnLabel_27
          CFI (cfiCond111) R6 load(1, XDATA, add(CFA_XSP16, literal(-11)))
          CFI (cfiCond111) VB load(1, XDATA, add(CFA_XSP16, literal(-10)))
          CFI (cfiCond111) V0 load(1, XDATA, add(CFA_XSP16, literal(-9)))
          CFI (cfiCond111) V1 load(1, XDATA, add(CFA_XSP16, literal(-8)))
          CFI (cfiCond111) V2 load(1, XDATA, add(CFA_XSP16, literal(-7)))
          CFI (cfiCond111) R7 load(1, XDATA, add(CFA_XSP16, literal(-6)))
          CFI (cfiCond111) ?RET_LOW load(1, XDATA, add(CFA_XSP16, literal(-5)))
          CFI (cfiCond111) ?RET_HIGH load(1, XDATA, add(CFA_XSP16, literal(-4)))
          CFI (cfiCond111) ?BRET_EXT load(1, XDATA, add(CFA_XSP16, literal(-3)))
          CFI (cfiCond111) DPL0 load(1, XDATA, add(CFA_XSP16, literal(-2)))
          CFI (cfiCond111) DPH0 load(1, XDATA, add(CFA_XSP16, literal(-1)))
          CFI (cfiCond111) CFA_SP SP+-2
          CFI (cfiCond111) CFA_XSP16 add(XSP16, 11)
          CFI Block cfiPicker112 Using cfiCommon1
          CFI (cfiPicker112) NoFunction
          CFI (cfiPicker112) Picker
        MOV     DPTR,#pBeaconIndBuf
        MOVX    A,@DPTR
        MOV     R4,A
        INC     DPTR
        MOVX    A,@DPTR
        MOV     R5,A
        MOV     B,#0x15
        RET
          CFI EndBlock cfiCond110
          CFI EndBlock cfiCond111
          CFI EndBlock cfiPicker112

        RSEG BANKED_CODE:CODE:NOROOT(0)
?Subroutine15:
          CFI Block cfiCond113 Using cfiCommon0
          CFI Function MT_ZdoBeaconIndCB
          CFI Conditional ??CrossCallReturnLabel_98
          CFI R6 load(1, XDATA, add(CFA_XSP16, literal(-11)))
          CFI VB load(1, XDATA, add(CFA_XSP16, literal(-10)))
          CFI V0 load(1, XDATA, add(CFA_XSP16, literal(-9)))
          CFI V1 load(1, XDATA, add(CFA_XSP16, literal(-8)))
          CFI V2 load(1, XDATA, add(CFA_XSP16, literal(-7)))
          CFI R7 load(1, XDATA, add(CFA_XSP16, literal(-6)))
          CFI ?RET_LOW load(1, XDATA, add(CFA_XSP16, literal(-5)))
          CFI ?RET_HIGH load(1, XDATA, add(CFA_XSP16, literal(-4)))
          CFI ?BRET_EXT load(1, XDATA, add(CFA_XSP16, literal(-3)))
          CFI DPL0 load(1, XDATA, add(CFA_XSP16, literal(-2)))
          CFI DPH0 load(1, XDATA, add(CFA_XSP16, literal(-1)))
          CFI CFA_SP SP+-2
          CFI CFA_XSP16 add(XSP16, 11)
          CFI Block cfiCond114 Using cfiCommon0
          CFI (cfiCond114) Function MT_ZdoSendMsgCB
          CFI (cfiCond114) Conditional ??CrossCallReturnLabel_99
          CFI (cfiCond114) R6 load(1, XDATA, add(CFA_XSP16, literal(-19)))
          CFI (cfiCond114) VB load(1, XDATA, add(CFA_XSP16, literal(-18)))
          CFI (cfiCond114) V0 load(1, XDATA, add(CFA_XSP16, literal(-17)))
          CFI (cfiCond114) V1 load(1, XDATA, add(CFA_XSP16, literal(-16)))
          CFI (cfiCond114) V2 load(1, XDATA, add(CFA_XSP16, literal(-15)))
          CFI (cfiCond114) V3 load(1, XDATA, add(CFA_XSP16, literal(-14)))
          CFI (cfiCond114) V4 load(1, XDATA, add(CFA_XSP16, literal(-13)))
          CFI (cfiCond114) V5 load(1, XDATA, add(CFA_XSP16, literal(-12)))
          CFI (cfiCond114) V6 load(1, XDATA, add(CFA_XSP16, literal(-11)))
          CFI (cfiCond114) V7 load(1, XDATA, add(CFA_XSP16, literal(-10)))
          CFI (cfiCond114) V8 load(1, XDATA, add(CFA_XSP16, literal(-9)))
          CFI (cfiCond114) V9 load(1, XDATA, add(CFA_XSP16, literal(-8)))
          CFI (cfiCond114) V10 load(1, XDATA, add(CFA_XSP16, literal(-7)))
          CFI (cfiCond114) R7 load(1, XDATA, add(CFA_XSP16, literal(-6)))
          CFI (cfiCond114) ?RET_LOW load(1, XDATA, add(CFA_XSP16, literal(-5)))
          CFI (cfiCond114) ?RET_HIGH load(1, XDATA, add(CFA_XSP16, literal(-4)))
          CFI (cfiCond114) ?BRET_EXT load(1, XDATA, add(CFA_XSP16, literal(-3)))
          CFI (cfiCond114) DPL0 load(1, XDATA, add(CFA_XSP16, literal(-2)))
          CFI (cfiCond114) DPH0 load(1, XDATA, add(CFA_XSP16, literal(-1)))
          CFI (cfiCond114) CFA_SP SP+-2
          CFI (cfiCond114) CFA_XSP16 add(XSP16, 19)
          CFI Block cfiPicker115 Using cfiCommon1
          CFI (cfiPicker115) NoFunction
          CFI (cfiPicker115) Picker
        INC     DPTR
          CFI EndBlock cfiCond113
          CFI EndBlock cfiCond114
          CFI EndBlock cfiPicker115
        REQUIRE ??Subroutine42_0
        ; // Fall through to label ??Subroutine42_0

        RSEG BANKED_CODE:CODE:NOROOT(0)
??Subroutine42_0:
          CFI Block cfiCond116 Using cfiCommon0
          CFI Function MT_ZdoSendMsgCB
          CFI Conditional ??CrossCallReturnLabel_97
          CFI R6 load(1, XDATA, add(CFA_XSP16, literal(-19)))
          CFI VB load(1, XDATA, add(CFA_XSP16, literal(-18)))
          CFI V0 load(1, XDATA, add(CFA_XSP16, literal(-17)))
          CFI V1 load(1, XDATA, add(CFA_XSP16, literal(-16)))
          CFI V2 load(1, XDATA, add(CFA_XSP16, literal(-15)))
          CFI V3 load(1, XDATA, add(CFA_XSP16, literal(-14)))
          CFI V4 load(1, XDATA, add(CFA_XSP16, literal(-13)))
          CFI V5 load(1, XDATA, add(CFA_XSP16, literal(-12)))
          CFI V6 load(1, XDATA, add(CFA_XSP16, literal(-11)))
          CFI V7 load(1, XDATA, add(CFA_XSP16, literal(-10)))
          CFI V8 load(1, XDATA, add(CFA_XSP16, literal(-9)))
          CFI V9 load(1, XDATA, add(CFA_XSP16, literal(-8)))
          CFI V10 load(1, XDATA, add(CFA_XSP16, literal(-7)))
          CFI R7 load(1, XDATA, add(CFA_XSP16, literal(-6)))
          CFI ?RET_LOW load(1, XDATA, add(CFA_XSP16, literal(-5)))
          CFI ?RET_HIGH load(1, XDATA, add(CFA_XSP16, literal(-4)))
          CFI ?BRET_EXT load(1, XDATA, add(CFA_XSP16, literal(-3)))
          CFI DPL0 load(1, XDATA, add(CFA_XSP16, literal(-2)))
          CFI DPH0 load(1, XDATA, add(CFA_XSP16, literal(-1)))
          CFI CFA_SP SP+-2
          CFI CFA_XSP16 add(XSP16, 19)
          CFI Block cfiCond117 Using cfiCommon0
          CFI (cfiCond117) Function MT_ZdoBeaconIndCB
          CFI (cfiCond117) Conditional ??CrossCallReturnLabel_98
          CFI (cfiCond117) R6 load(1, XDATA, add(CFA_XSP16, literal(-11)))
          CFI (cfiCond117) VB load(1, XDATA, add(CFA_XSP16, literal(-10)))
          CFI (cfiCond117) V0 load(1, XDATA, add(CFA_XSP16, literal(-9)))
          CFI (cfiCond117) V1 load(1, XDATA, add(CFA_XSP16, literal(-8)))
          CFI (cfiCond117) V2 load(1, XDATA, add(CFA_XSP16, literal(-7)))
          CFI (cfiCond117) R7 load(1, XDATA, add(CFA_XSP16, literal(-6)))
          CFI (cfiCond117) ?RET_LOW load(1, XDATA, add(CFA_XSP16, literal(-5)))
          CFI (cfiCond117) ?RET_HIGH load(1, XDATA, add(CFA_XSP16, literal(-4)))
          CFI (cfiCond117) ?BRET_EXT load(1, XDATA, add(CFA_XSP16, literal(-3)))
          CFI (cfiCond117) DPL0 load(1, XDATA, add(CFA_XSP16, literal(-2)))
          CFI (cfiCond117) DPH0 load(1, XDATA, add(CFA_XSP16, literal(-1)))
          CFI (cfiCond117) CFA_SP SP+-2
          CFI (cfiCond117) CFA_XSP16 add(XSP16, 11)
          CFI Block cfiCond118 Using cfiCommon0
          CFI (cfiCond118) Function MT_ZdoSendMsgCB
          CFI (cfiCond118) Conditional ??CrossCallReturnLabel_99
          CFI (cfiCond118) R6 load(1, XDATA, add(CFA_XSP16, literal(-19)))
          CFI (cfiCond118) VB load(1, XDATA, add(CFA_XSP16, literal(-18)))
          CFI (cfiCond118) V0 load(1, XDATA, add(CFA_XSP16, literal(-17)))
          CFI (cfiCond118) V1 load(1, XDATA, add(CFA_XSP16, literal(-16)))
          CFI (cfiCond118) V2 load(1, XDATA, add(CFA_XSP16, literal(-15)))
          CFI (cfiCond118) V3 load(1, XDATA, add(CFA_XSP16, literal(-14)))
          CFI (cfiCond118) V4 load(1, XDATA, add(CFA_XSP16, literal(-13)))
          CFI (cfiCond118) V5 load(1, XDATA, add(CFA_XSP16, literal(-12)))
          CFI (cfiCond118) V6 load(1, XDATA, add(CFA_XSP16, literal(-11)))
          CFI (cfiCond118) V7 load(1, XDATA, add(CFA_XSP16, literal(-10)))
          CFI (cfiCond118) V8 load(1, XDATA, add(CFA_XSP16, literal(-9)))
          CFI (cfiCond118) V9 load(1, XDATA, add(CFA_XSP16, literal(-8)))
          CFI (cfiCond118) V10 load(1, XDATA, add(CFA_XSP16, literal(-7)))
          CFI (cfiCond118) R7 load(1, XDATA, add(CFA_XSP16, literal(-6)))
          CFI (cfiCond118) ?RET_LOW load(1, XDATA, add(CFA_XSP16, literal(-5)))
          CFI (cfiCond118) ?RET_HIGH load(1, XDATA, add(CFA_XSP16, literal(-4)))
          CFI (cfiCond118) ?BRET_EXT load(1, XDATA, add(CFA_XSP16, literal(-3)))
          CFI (cfiCond118) DPL0 load(1, XDATA, add(CFA_XSP16, literal(-2)))
          CFI (cfiCond118) DPH0 load(1, XDATA, add(CFA_XSP16, literal(-1)))
          CFI (cfiCond118) CFA_SP SP+-2
          CFI (cfiCond118) CFA_XSP16 add(XSP16, 19)
          CFI Block cfiPicker119 Using cfiCommon1
          CFI (cfiPicker119) NoFunction
          CFI (cfiPicker119) Picker
        LCALL   ?Subroutine35 & 0xFFFF
??CrossCallReturnLabel_103:
        INC     DPTR
        RET
          CFI EndBlock cfiCond116
          CFI EndBlock cfiCond117
          CFI EndBlock cfiCond118
          CFI EndBlock cfiPicker119

        RSEG BANKED_CODE:CODE:NOROOT(0)
?Subroutine9:
          CFI Block cfiCond120 Using cfiCommon0
          CFI Function MT_ZdoBeaconIndCB
          CFI Conditional ??CrossCallReturnLabel_14
          CFI R6 load(1, XDATA, add(CFA_XSP16, literal(-11)))
          CFI VB load(1, XDATA, add(CFA_XSP16, literal(-10)))
          CFI V0 load(1, XDATA, add(CFA_XSP16, literal(-9)))
          CFI V1 load(1, XDATA, add(CFA_XSP16, literal(-8)))
          CFI V2 load(1, XDATA, add(CFA_XSP16, literal(-7)))
          CFI R7 load(1, XDATA, add(CFA_XSP16, literal(-6)))
          CFI ?RET_LOW load(1, XDATA, add(CFA_XSP16, literal(-5)))
          CFI ?RET_HIGH load(1, XDATA, add(CFA_XSP16, literal(-4)))
          CFI ?BRET_EXT load(1, XDATA, add(CFA_XSP16, literal(-3)))
          CFI DPL0 load(1, XDATA, add(CFA_XSP16, literal(-2)))
          CFI DPH0 load(1, XDATA, add(CFA_XSP16, literal(-1)))
          CFI CFA_SP SP+-2
          CFI CFA_XSP16 add(XSP16, 11)
          CFI Block cfiCond121 Using cfiCommon0
          CFI (cfiCond121) Function MT_ZdoBeaconIndCB
          CFI (cfiCond121) Conditional ??CrossCallReturnLabel_15
          CFI (cfiCond121) R6 load(1, XDATA, add(CFA_XSP16, literal(-11)))
          CFI (cfiCond121) VB load(1, XDATA, add(CFA_XSP16, literal(-10)))
          CFI (cfiCond121) V0 load(1, XDATA, add(CFA_XSP16, literal(-9)))
          CFI (cfiCond121) V1 load(1, XDATA, add(CFA_XSP16, literal(-8)))
          CFI (cfiCond121) V2 load(1, XDATA, add(CFA_XSP16, literal(-7)))
          CFI (cfiCond121) R7 load(1, XDATA, add(CFA_XSP16, literal(-6)))
          CFI (cfiCond121) ?RET_LOW load(1, XDATA, add(CFA_XSP16, literal(-5)))
          CFI (cfiCond121) ?RET_HIGH load(1, XDATA, add(CFA_XSP16, literal(-4)))
          CFI (cfiCond121) ?BRET_EXT load(1, XDATA, add(CFA_XSP16, literal(-3)))
          CFI (cfiCond121) DPL0 load(1, XDATA, add(CFA_XSP16, literal(-2)))
          CFI (cfiCond121) DPH0 load(1, XDATA, add(CFA_XSP16, literal(-1)))
          CFI (cfiCond121) CFA_SP SP+-2
          CFI (cfiCond121) CFA_XSP16 add(XSP16, 11)
          CFI Block cfiPicker122 Using cfiCommon1
          CFI (cfiPicker122) NoFunction
          CFI (cfiPicker122) Picker
        INC     DPTR
        INC     DPTR
        INC     DPTR
        INC     DPTR
        INC     DPTR
        INC     DPTR
        INC     DPTR
        INC     DPTR
        LCALL   ?Subroutine31 & 0xFFFF
??CrossCallReturnLabel_67:
        INC     DPTR
        RET
          CFI EndBlock cfiCond120
          CFI EndBlock cfiCond121
          CFI EndBlock cfiPicker122

        RSEG BANKED_CODE:CODE:NOROOT(0)
?Subroutine7:
          CFI Block cfiCond123 Using cfiCommon0
          CFI Function MT_ZdoBeaconIndCB
          CFI Conditional ??CrossCallReturnLabel_9
          CFI R6 load(1, XDATA, add(CFA_XSP16, literal(-11)))
          CFI VB load(1, XDATA, add(CFA_XSP16, literal(-10)))
          CFI V0 load(1, XDATA, add(CFA_XSP16, literal(-9)))
          CFI V1 load(1, XDATA, add(CFA_XSP16, literal(-8)))
          CFI V2 load(1, XDATA, add(CFA_XSP16, literal(-7)))
          CFI R7 load(1, XDATA, add(CFA_XSP16, literal(-6)))
          CFI ?RET_LOW load(1, XDATA, add(CFA_XSP16, literal(-5)))
          CFI ?RET_HIGH load(1, XDATA, add(CFA_XSP16, literal(-4)))
          CFI ?BRET_EXT load(1, XDATA, add(CFA_XSP16, literal(-3)))
          CFI DPL0 load(1, XDATA, add(CFA_XSP16, literal(-2)))
          CFI DPH0 load(1, XDATA, add(CFA_XSP16, literal(-1)))
          CFI CFA_SP SP+-2
          CFI CFA_XSP16 add(XSP16, 11)
          CFI Block cfiCond124 Using cfiCommon0
          CFI (cfiCond124) Function MT_ZdoBeaconIndCB
          CFI (cfiCond124) Conditional ??CrossCallReturnLabel_10
          CFI (cfiCond124) R6 load(1, XDATA, add(CFA_XSP16, literal(-11)))
          CFI (cfiCond124) VB load(1, XDATA, add(CFA_XSP16, literal(-10)))
          CFI (cfiCond124) V0 load(1, XDATA, add(CFA_XSP16, literal(-9)))
          CFI (cfiCond124) V1 load(1, XDATA, add(CFA_XSP16, literal(-8)))
          CFI (cfiCond124) V2 load(1, XDATA, add(CFA_XSP16, literal(-7)))
          CFI (cfiCond124) R7 load(1, XDATA, add(CFA_XSP16, literal(-6)))
          CFI (cfiCond124) ?RET_LOW load(1, XDATA, add(CFA_XSP16, literal(-5)))
          CFI (cfiCond124) ?RET_HIGH load(1, XDATA, add(CFA_XSP16, literal(-4)))
          CFI (cfiCond124) ?BRET_EXT load(1, XDATA, add(CFA_XSP16, literal(-3)))
          CFI (cfiCond124) DPL0 load(1, XDATA, add(CFA_XSP16, literal(-2)))
          CFI (cfiCond124) DPH0 load(1, XDATA, add(CFA_XSP16, literal(-1)))
          CFI (cfiCond124) CFA_SP SP+-2
          CFI (cfiCond124) CFA_XSP16 add(XSP16, 11)
          CFI Block cfiCond125 Using cfiCommon0
          CFI (cfiCond125) Function MT_ZdoBeaconIndCB
          CFI (cfiCond125) Conditional ??CrossCallReturnLabel_11
          CFI (cfiCond125) R6 load(1, XDATA, add(CFA_XSP16, literal(-11)))
          CFI (cfiCond125) VB load(1, XDATA, add(CFA_XSP16, literal(-10)))
          CFI (cfiCond125) V0 load(1, XDATA, add(CFA_XSP16, literal(-9)))
          CFI (cfiCond125) V1 load(1, XDATA, add(CFA_XSP16, literal(-8)))
          CFI (cfiCond125) V2 load(1, XDATA, add(CFA_XSP16, literal(-7)))
          CFI (cfiCond125) R7 load(1, XDATA, add(CFA_XSP16, literal(-6)))
          CFI (cfiCond125) ?RET_LOW load(1, XDATA, add(CFA_XSP16, literal(-5)))
          CFI (cfiCond125) ?RET_HIGH load(1, XDATA, add(CFA_XSP16, literal(-4)))
          CFI (cfiCond125) ?BRET_EXT load(1, XDATA, add(CFA_XSP16, literal(-3)))
          CFI (cfiCond125) DPL0 load(1, XDATA, add(CFA_XSP16, literal(-2)))
          CFI (cfiCond125) DPH0 load(1, XDATA, add(CFA_XSP16, literal(-1)))
          CFI (cfiCond125) CFA_SP SP+-2
          CFI (cfiCond125) CFA_XSP16 add(XSP16, 11)
          CFI Block cfiPicker126 Using cfiCommon1
          CFI (cfiPicker126) NoFunction
          CFI (cfiPicker126) Picker
        LCALL   ?Subroutine33 & 0xFFFF
??CrossCallReturnLabel_107:
        MOVX    A,@DPTR
        RET
          CFI EndBlock cfiCond123
          CFI EndBlock cfiCond124
          CFI EndBlock cfiCond125
          CFI EndBlock cfiPicker126

        RSEG BANKED_CODE:CODE:NOROOT(0)
?Subroutine33:
          CFI Block cfiCond127 Using cfiCommon0
          CFI Function MT_ZdoBeaconIndCB
          CFI Conditional ??CrossCallReturnLabel_106
          CFI R6 load(1, XDATA, add(CFA_XSP16, literal(-11)))
          CFI VB load(1, XDATA, add(CFA_XSP16, literal(-10)))
          CFI V0 load(1, XDATA, add(CFA_XSP16, literal(-9)))
          CFI V1 load(1, XDATA, add(CFA_XSP16, literal(-8)))
          CFI V2 load(1, XDATA, add(CFA_XSP16, literal(-7)))
          CFI R7 load(1, XDATA, add(CFA_XSP16, literal(-6)))
          CFI ?RET_LOW load(1, XDATA, add(CFA_XSP16, literal(-5)))
          CFI ?RET_HIGH load(1, XDATA, add(CFA_XSP16, literal(-4)))
          CFI ?BRET_EXT load(1, XDATA, add(CFA_XSP16, literal(-3)))
          CFI DPL0 load(1, XDATA, add(CFA_XSP16, literal(-2)))
          CFI DPH0 load(1, XDATA, add(CFA_XSP16, literal(-1)))
          CFI CFA_SP SP+-2
          CFI CFA_XSP16 add(XSP16, 11)
          CFI Block cfiCond128 Using cfiCommon0
          CFI (cfiCond128) Function MT_ZdoBeaconIndCB
          CFI (cfiCond128) Conditional ??CrossCallReturnLabel_107, ??CrossCallReturnLabel_9
          CFI (cfiCond128) R6 load(1, XDATA, add(CFA_XSP16, literal(-11)))
          CFI (cfiCond128) VB load(1, XDATA, add(CFA_XSP16, literal(-10)))
          CFI (cfiCond128) V0 load(1, XDATA, add(CFA_XSP16, literal(-9)))
          CFI (cfiCond128) V1 load(1, XDATA, add(CFA_XSP16, literal(-8)))
          CFI (cfiCond128) V2 load(1, XDATA, add(CFA_XSP16, literal(-7)))
          CFI (cfiCond128) R7 load(1, XDATA, add(CFA_XSP16, literal(-6)))
          CFI (cfiCond128) ?RET_LOW load(1, XDATA, add(CFA_XSP16, literal(-5)))
          CFI (cfiCond128) ?RET_HIGH load(1, XDATA, add(CFA_XSP16, literal(-4)))
          CFI (cfiCond128) ?BRET_EXT load(1, XDATA, add(CFA_XSP16, literal(-3)))
          CFI (cfiCond128) DPL0 load(1, XDATA, add(CFA_XSP16, literal(-2)))
          CFI (cfiCond128) DPH0 load(1, XDATA, add(CFA_XSP16, literal(-1)))
          CFI (cfiCond128) CFA_SP SP+-4
          CFI (cfiCond128) CFA_XSP16 add(XSP16, 11)
          CFI Block cfiCond129 Using cfiCommon0
          CFI (cfiCond129) Function MT_ZdoBeaconIndCB
          CFI (cfiCond129) Conditional ??CrossCallReturnLabel_107, ??CrossCallReturnLabel_10
          CFI (cfiCond129) R6 load(1, XDATA, add(CFA_XSP16, literal(-11)))
          CFI (cfiCond129) VB load(1, XDATA, add(CFA_XSP16, literal(-10)))
          CFI (cfiCond129) V0 load(1, XDATA, add(CFA_XSP16, literal(-9)))
          CFI (cfiCond129) V1 load(1, XDATA, add(CFA_XSP16, literal(-8)))
          CFI (cfiCond129) V2 load(1, XDATA, add(CFA_XSP16, literal(-7)))
          CFI (cfiCond129) R7 load(1, XDATA, add(CFA_XSP16, literal(-6)))
          CFI (cfiCond129) ?RET_LOW load(1, XDATA, add(CFA_XSP16, literal(-5)))
          CFI (cfiCond129) ?RET_HIGH load(1, XDATA, add(CFA_XSP16, literal(-4)))
          CFI (cfiCond129) ?BRET_EXT load(1, XDATA, add(CFA_XSP16, literal(-3)))
          CFI (cfiCond129) DPL0 load(1, XDATA, add(CFA_XSP16, literal(-2)))
          CFI (cfiCond129) DPH0 load(1, XDATA, add(CFA_XSP16, literal(-1)))
          CFI (cfiCond129) CFA_SP SP+-4
          CFI (cfiCond129) CFA_XSP16 add(XSP16, 11)
          CFI Block cfiCond130 Using cfiCommon0
          CFI (cfiCond130) Function MT_ZdoBeaconIndCB
          CFI (cfiCond130) Conditional ??CrossCallReturnLabel_107, ??CrossCallReturnLabel_11
          CFI (cfiCond130) R6 load(1, XDATA, add(CFA_XSP16, literal(-11)))
          CFI (cfiCond130) VB load(1, XDATA, add(CFA_XSP16, literal(-10)))
          CFI (cfiCond130) V0 load(1, XDATA, add(CFA_XSP16, literal(-9)))
          CFI (cfiCond130) V1 load(1, XDATA, add(CFA_XSP16, literal(-8)))
          CFI (cfiCond130) V2 load(1, XDATA, add(CFA_XSP16, literal(-7)))
          CFI (cfiCond130) R7 load(1, XDATA, add(CFA_XSP16, literal(-6)))
          CFI (cfiCond130) ?RET_LOW load(1, XDATA, add(CFA_XSP16, literal(-5)))
          CFI (cfiCond130) ?RET_HIGH load(1, XDATA, add(CFA_XSP16, literal(-4)))
          CFI (cfiCond130) ?BRET_EXT load(1, XDATA, add(CFA_XSP16, literal(-3)))
          CFI (cfiCond130) DPL0 load(1, XDATA, add(CFA_XSP16, literal(-2)))
          CFI (cfiCond130) DPH0 load(1, XDATA, add(CFA_XSP16, literal(-1)))
          CFI (cfiCond130) CFA_SP SP+-4
          CFI (cfiCond130) CFA_XSP16 add(XSP16, 11)
          CFI Block cfiPicker131 Using cfiCommon1
          CFI (cfiPicker131) NoFunction
          CFI (cfiPicker131) Picker
        MOV     DPTR,#pBeaconIndBuf
        MOVX    A,@DPTR
        MOV     R0,A
        INC     DPTR
          CFI EndBlock cfiCond127
          CFI EndBlock cfiCond128
          CFI EndBlock cfiCond129
          CFI EndBlock cfiCond130
          CFI EndBlock cfiPicker131
        REQUIRE ??Subroutine43_0
        ; // Fall through to label ??Subroutine43_0

        RSEG BANKED_CODE:CODE:NOROOT(0)
??Subroutine43_0:
          CFI Block cfiCond132 Using cfiCommon0
          CFI Function MT_ZdoBeaconIndCB
          CFI Conditional ??CrossCallReturnLabel_104
          CFI R6 load(1, XDATA, add(CFA_XSP16, literal(-11)))
          CFI VB load(1, XDATA, add(CFA_XSP16, literal(-10)))
          CFI V0 load(1, XDATA, add(CFA_XSP16, literal(-9)))
          CFI V1 load(1, XDATA, add(CFA_XSP16, literal(-8)))
          CFI V2 load(1, XDATA, add(CFA_XSP16, literal(-7)))
          CFI R7 load(1, XDATA, add(CFA_XSP16, literal(-6)))
          CFI ?RET_LOW load(1, XDATA, add(CFA_XSP16, literal(-5)))
          CFI ?RET_HIGH load(1, XDATA, add(CFA_XSP16, literal(-4)))
          CFI ?BRET_EXT load(1, XDATA, add(CFA_XSP16, literal(-3)))
          CFI DPL0 load(1, XDATA, add(CFA_XSP16, literal(-2)))
          CFI DPH0 load(1, XDATA, add(CFA_XSP16, literal(-1)))
          CFI CFA_SP SP+-2
          CFI CFA_XSP16 add(XSP16, 11)
          CFI Block cfiCond133 Using cfiCommon0
          CFI (cfiCond133) Function MT_ZdoBeaconIndCB
          CFI (cfiCond133) Conditional ??CrossCallReturnLabel_105
          CFI (cfiCond133) R6 load(1, XDATA, add(CFA_XSP16, literal(-11)))
          CFI (cfiCond133) VB load(1, XDATA, add(CFA_XSP16, literal(-10)))
          CFI (cfiCond133) V0 load(1, XDATA, add(CFA_XSP16, literal(-9)))
          CFI (cfiCond133) V1 load(1, XDATA, add(CFA_XSP16, literal(-8)))
          CFI (cfiCond133) V2 load(1, XDATA, add(CFA_XSP16, literal(-7)))
          CFI (cfiCond133) R7 load(1, XDATA, add(CFA_XSP16, literal(-6)))
          CFI (cfiCond133) ?RET_LOW load(1, XDATA, add(CFA_XSP16, literal(-5)))
          CFI (cfiCond133) ?RET_HIGH load(1, XDATA, add(CFA_XSP16, literal(-4)))
          CFI (cfiCond133) ?BRET_EXT load(1, XDATA, add(CFA_XSP16, literal(-3)))
          CFI (cfiCond133) DPL0 load(1, XDATA, add(CFA_XSP16, literal(-2)))
          CFI (cfiCond133) DPH0 load(1, XDATA, add(CFA_XSP16, literal(-1)))
          CFI (cfiCond133) CFA_SP SP+-2
          CFI (cfiCond133) CFA_XSP16 add(XSP16, 11)
          CFI Block cfiCond134 Using cfiCommon0
          CFI (cfiCond134) Function MT_ZdoBeaconIndCB
          CFI (cfiCond134) Conditional ??CrossCallReturnLabel_106
          CFI (cfiCond134) R6 load(1, XDATA, add(CFA_XSP16, literal(-11)))
          CFI (cfiCond134) VB load(1, XDATA, add(CFA_XSP16, literal(-10)))
          CFI (cfiCond134) V0 load(1, XDATA, add(CFA_XSP16, literal(-9)))
          CFI (cfiCond134) V1 load(1, XDATA, add(CFA_XSP16, literal(-8)))
          CFI (cfiCond134) V2 load(1, XDATA, add(CFA_XSP16, literal(-7)))
          CFI (cfiCond134) R7 load(1, XDATA, add(CFA_XSP16, literal(-6)))
          CFI (cfiCond134) ?RET_LOW load(1, XDATA, add(CFA_XSP16, literal(-5)))
          CFI (cfiCond134) ?RET_HIGH load(1, XDATA, add(CFA_XSP16, literal(-4)))
          CFI (cfiCond134) ?BRET_EXT load(1, XDATA, add(CFA_XSP16, literal(-3)))
          CFI (cfiCond134) DPL0 load(1, XDATA, add(CFA_XSP16, literal(-2)))
          CFI (cfiCond134) DPH0 load(1, XDATA, add(CFA_XSP16, literal(-1)))
          CFI (cfiCond134) CFA_SP SP+-2
          CFI (cfiCond134) CFA_XSP16 add(XSP16, 11)
          CFI Block cfiCond135 Using cfiCommon0
          CFI (cfiCond135) Function MT_ZdoBeaconIndCB
          CFI (cfiCond135) Conditional ??CrossCallReturnLabel_107, ??CrossCallReturnLabel_9
          CFI (cfiCond135) R6 load(1, XDATA, add(CFA_XSP16, literal(-11)))
          CFI (cfiCond135) VB load(1, XDATA, add(CFA_XSP16, literal(-10)))
          CFI (cfiCond135) V0 load(1, XDATA, add(CFA_XSP16, literal(-9)))
          CFI (cfiCond135) V1 load(1, XDATA, add(CFA_XSP16, literal(-8)))
          CFI (cfiCond135) V2 load(1, XDATA, add(CFA_XSP16, literal(-7)))
          CFI (cfiCond135) R7 load(1, XDATA, add(CFA_XSP16, literal(-6)))
          CFI (cfiCond135) ?RET_LOW load(1, XDATA, add(CFA_XSP16, literal(-5)))
          CFI (cfiCond135) ?RET_HIGH load(1, XDATA, add(CFA_XSP16, literal(-4)))
          CFI (cfiCond135) ?BRET_EXT load(1, XDATA, add(CFA_XSP16, literal(-3)))
          CFI (cfiCond135) DPL0 load(1, XDATA, add(CFA_XSP16, literal(-2)))
          CFI (cfiCond135) DPH0 load(1, XDATA, add(CFA_XSP16, literal(-1)))
          CFI (cfiCond135) CFA_SP SP+-4
          CFI (cfiCond135) CFA_XSP16 add(XSP16, 11)
          CFI Block cfiCond136 Using cfiCommon0
          CFI (cfiCond136) Function MT_ZdoBeaconIndCB
          CFI (cfiCond136) Conditional ??CrossCallReturnLabel_107, ??CrossCallReturnLabel_10
          CFI (cfiCond136) R6 load(1, XDATA, add(CFA_XSP16, literal(-11)))
          CFI (cfiCond136) VB load(1, XDATA, add(CFA_XSP16, literal(-10)))
          CFI (cfiCond136) V0 load(1, XDATA, add(CFA_XSP16, literal(-9)))
          CFI (cfiCond136) V1 load(1, XDATA, add(CFA_XSP16, literal(-8)))
          CFI (cfiCond136) V2 load(1, XDATA, add(CFA_XSP16, literal(-7)))
          CFI (cfiCond136) R7 load(1, XDATA, add(CFA_XSP16, literal(-6)))
          CFI (cfiCond136) ?RET_LOW load(1, XDATA, add(CFA_XSP16, literal(-5)))
          CFI (cfiCond136) ?RET_HIGH load(1, XDATA, add(CFA_XSP16, literal(-4)))
          CFI (cfiCond136) ?BRET_EXT load(1, XDATA, add(CFA_XSP16, literal(-3)))
          CFI (cfiCond136) DPL0 load(1, XDATA, add(CFA_XSP16, literal(-2)))
          CFI (cfiCond136) DPH0 load(1, XDATA, add(CFA_XSP16, literal(-1)))
          CFI (cfiCond136) CFA_SP SP+-4
          CFI (cfiCond136) CFA_XSP16 add(XSP16, 11)
          CFI Block cfiCond137 Using cfiCommon0
          CFI (cfiCond137) Function MT_ZdoBeaconIndCB
          CFI (cfiCond137) Conditional ??CrossCallReturnLabel_107, ??CrossCallReturnLabel_11
          CFI (cfiCond137) R6 load(1, XDATA, add(CFA_XSP16, literal(-11)))
          CFI (cfiCond137) VB load(1, XDATA, add(CFA_XSP16, literal(-10)))
          CFI (cfiCond137) V0 load(1, XDATA, add(CFA_XSP16, literal(-9)))
          CFI (cfiCond137) V1 load(1, XDATA, add(CFA_XSP16, literal(-8)))
          CFI (cfiCond137) V2 load(1, XDATA, add(CFA_XSP16, literal(-7)))
          CFI (cfiCond137) R7 load(1, XDATA, add(CFA_XSP16, literal(-6)))
          CFI (cfiCond137) ?RET_LOW load(1, XDATA, add(CFA_XSP16, literal(-5)))
          CFI (cfiCond137) ?RET_HIGH load(1, XDATA, add(CFA_XSP16, literal(-4)))
          CFI (cfiCond137) ?BRET_EXT load(1, XDATA, add(CFA_XSP16, literal(-3)))
          CFI (cfiCond137) DPL0 load(1, XDATA, add(CFA_XSP16, literal(-2)))
          CFI (cfiCond137) DPH0 load(1, XDATA, add(CFA_XSP16, literal(-1)))
          CFI (cfiCond137) CFA_SP SP+-4
          CFI (cfiCond137) CFA_XSP16 add(XSP16, 11)
          CFI Block cfiPicker138 Using cfiCommon1
          CFI (cfiPicker138) NoFunction
          CFI (cfiPicker138) Picker
        MOVX    A,@DPTR
        MOV     DPH,A
        MOV     DPL,R0
        RET
          CFI EndBlock cfiCond132
          CFI EndBlock cfiCond133
          CFI EndBlock cfiCond134
          CFI EndBlock cfiCond135
          CFI EndBlock cfiCond136
          CFI EndBlock cfiCond137
          CFI EndBlock cfiPicker138

        RSEG BANKED_CODE:CODE:NOROOT(0)
?Subroutine6:
          CFI Block cfiCond139 Using cfiCommon0
          CFI Function MT_ZdoBeaconIndCB
          CFI Conditional ??CrossCallReturnLabel_110
          CFI R6 load(1, XDATA, add(CFA_XSP16, literal(-11)))
          CFI VB load(1, XDATA, add(CFA_XSP16, literal(-10)))
          CFI V0 load(1, XDATA, add(CFA_XSP16, literal(-9)))
          CFI V1 load(1, XDATA, add(CFA_XSP16, literal(-8)))
          CFI V2 load(1, XDATA, add(CFA_XSP16, literal(-7)))
          CFI R7 load(1, XDATA, add(CFA_XSP16, literal(-6)))
          CFI ?RET_LOW load(1, XDATA, add(CFA_XSP16, literal(-5)))
          CFI ?RET_HIGH load(1, XDATA, add(CFA_XSP16, literal(-4)))
          CFI ?BRET_EXT load(1, XDATA, add(CFA_XSP16, literal(-3)))
          CFI DPL0 load(1, XDATA, add(CFA_XSP16, literal(-2)))
          CFI DPH0 load(1, XDATA, add(CFA_XSP16, literal(-1)))
          CFI CFA_SP SP+-2
          CFI CFA_XSP16 add(XSP16, 11)
          CFI Block cfiCond140 Using cfiCommon0
          CFI (cfiCond140) Function MT_ZdoBeaconIndCB
          CFI (cfiCond140) Conditional ??CrossCallReturnLabel_111
          CFI (cfiCond140) R6 load(1, XDATA, add(CFA_XSP16, literal(-11)))
          CFI (cfiCond140) VB load(1, XDATA, add(CFA_XSP16, literal(-10)))
          CFI (cfiCond140) V0 load(1, XDATA, add(CFA_XSP16, literal(-9)))
          CFI (cfiCond140) V1 load(1, XDATA, add(CFA_XSP16, literal(-8)))
          CFI (cfiCond140) V2 load(1, XDATA, add(CFA_XSP16, literal(-7)))
          CFI (cfiCond140) R7 load(1, XDATA, add(CFA_XSP16, literal(-6)))
          CFI (cfiCond140) ?RET_LOW load(1, XDATA, add(CFA_XSP16, literal(-5)))
          CFI (cfiCond140) ?RET_HIGH load(1, XDATA, add(CFA_XSP16, literal(-4)))
          CFI (cfiCond140) ?BRET_EXT load(1, XDATA, add(CFA_XSP16, literal(-3)))
          CFI (cfiCond140) DPL0 load(1, XDATA, add(CFA_XSP16, literal(-2)))
          CFI (cfiCond140) DPH0 load(1, XDATA, add(CFA_XSP16, literal(-1)))
          CFI (cfiCond140) CFA_SP SP+-2
          CFI (cfiCond140) CFA_XSP16 add(XSP16, 11)
          CFI Block cfiPicker141 Using cfiCommon1
          CFI (cfiPicker141) NoFunction
          CFI (cfiPicker141) Picker
        MOV     DPTR,#pBeaconIndBuf
          CFI EndBlock cfiCond139
          CFI EndBlock cfiCond140
          CFI EndBlock cfiPicker141
        REQUIRE ??Subroutine44_0
        ; // Fall through to label ??Subroutine44_0

        RSEG BANKED_CODE:CODE:NOROOT(0)
??Subroutine44_0:
          CFI Block cfiCond142 Using cfiCommon0
          CFI Function MT_ZdoBeaconIndCB
          CFI Conditional ??CrossCallReturnLabel_108
          CFI R6 load(1, XDATA, add(CFA_XSP16, literal(-11)))
          CFI VB load(1, XDATA, add(CFA_XSP16, literal(-10)))
          CFI V0 load(1, XDATA, add(CFA_XSP16, literal(-9)))
          CFI V1 load(1, XDATA, add(CFA_XSP16, literal(-8)))
          CFI V2 load(1, XDATA, add(CFA_XSP16, literal(-7)))
          CFI R7 load(1, XDATA, add(CFA_XSP16, literal(-6)))
          CFI ?RET_LOW load(1, XDATA, add(CFA_XSP16, literal(-5)))
          CFI ?RET_HIGH load(1, XDATA, add(CFA_XSP16, literal(-4)))
          CFI ?BRET_EXT load(1, XDATA, add(CFA_XSP16, literal(-3)))
          CFI DPL0 load(1, XDATA, add(CFA_XSP16, literal(-2)))
          CFI DPH0 load(1, XDATA, add(CFA_XSP16, literal(-1)))
          CFI CFA_SP SP+-2
          CFI CFA_XSP16 add(XSP16, 11)
          CFI Block cfiCond143 Using cfiCommon0
          CFI (cfiCond143) Function MT_ZdoBeaconIndCB
          CFI (cfiCond143) Conditional ??CrossCallReturnLabel_109
          CFI (cfiCond143) R6 load(1, XDATA, add(CFA_XSP16, literal(-11)))
          CFI (cfiCond143) VB load(1, XDATA, add(CFA_XSP16, literal(-10)))
          CFI (cfiCond143) V0 load(1, XDATA, add(CFA_XSP16, literal(-9)))
          CFI (cfiCond143) V1 load(1, XDATA, add(CFA_XSP16, literal(-8)))
          CFI (cfiCond143) V2 load(1, XDATA, add(CFA_XSP16, literal(-7)))
          CFI (cfiCond143) R7 load(1, XDATA, add(CFA_XSP16, literal(-6)))
          CFI (cfiCond143) ?RET_LOW load(1, XDATA, add(CFA_XSP16, literal(-5)))
          CFI (cfiCond143) ?RET_HIGH load(1, XDATA, add(CFA_XSP16, literal(-4)))
          CFI (cfiCond143) ?BRET_EXT load(1, XDATA, add(CFA_XSP16, literal(-3)))
          CFI (cfiCond143) DPL0 load(1, XDATA, add(CFA_XSP16, literal(-2)))
          CFI (cfiCond143) DPH0 load(1, XDATA, add(CFA_XSP16, literal(-1)))
          CFI (cfiCond143) CFA_SP SP+-2
          CFI (cfiCond143) CFA_XSP16 add(XSP16, 11)
          CFI Block cfiCond144 Using cfiCommon0
          CFI (cfiCond144) Function MT_ZdoBeaconIndCB
          CFI (cfiCond144) Conditional ??CrossCallReturnLabel_110
          CFI (cfiCond144) R6 load(1, XDATA, add(CFA_XSP16, literal(-11)))
          CFI (cfiCond144) VB load(1, XDATA, add(CFA_XSP16, literal(-10)))
          CFI (cfiCond144) V0 load(1, XDATA, add(CFA_XSP16, literal(-9)))
          CFI (cfiCond144) V1 load(1, XDATA, add(CFA_XSP16, literal(-8)))
          CFI (cfiCond144) V2 load(1, XDATA, add(CFA_XSP16, literal(-7)))
          CFI (cfiCond144) R7 load(1, XDATA, add(CFA_XSP16, literal(-6)))
          CFI (cfiCond144) ?RET_LOW load(1, XDATA, add(CFA_XSP16, literal(-5)))
          CFI (cfiCond144) ?RET_HIGH load(1, XDATA, add(CFA_XSP16, literal(-4)))
          CFI (cfiCond144) ?BRET_EXT load(1, XDATA, add(CFA_XSP16, literal(-3)))
          CFI (cfiCond144) DPL0 load(1, XDATA, add(CFA_XSP16, literal(-2)))
          CFI (cfiCond144) DPH0 load(1, XDATA, add(CFA_XSP16, literal(-1)))
          CFI (cfiCond144) CFA_SP SP+-2
          CFI (cfiCond144) CFA_XSP16 add(XSP16, 11)
          CFI Block cfiCond145 Using cfiCommon0
          CFI (cfiCond145) Function MT_ZdoBeaconIndCB
          CFI (cfiCond145) Conditional ??CrossCallReturnLabel_111
          CFI (cfiCond145) R6 load(1, XDATA, add(CFA_XSP16, literal(-11)))
          CFI (cfiCond145) VB load(1, XDATA, add(CFA_XSP16, literal(-10)))
          CFI (cfiCond145) V0 load(1, XDATA, add(CFA_XSP16, literal(-9)))
          CFI (cfiCond145) V1 load(1, XDATA, add(CFA_XSP16, literal(-8)))
          CFI (cfiCond145) V2 load(1, XDATA, add(CFA_XSP16, literal(-7)))
          CFI (cfiCond145) R7 load(1, XDATA, add(CFA_XSP16, literal(-6)))
          CFI (cfiCond145) ?RET_LOW load(1, XDATA, add(CFA_XSP16, literal(-5)))
          CFI (cfiCond145) ?RET_HIGH load(1, XDATA, add(CFA_XSP16, literal(-4)))
          CFI (cfiCond145) ?BRET_EXT load(1, XDATA, add(CFA_XSP16, literal(-3)))
          CFI (cfiCond145) DPL0 load(1, XDATA, add(CFA_XSP16, literal(-2)))
          CFI (cfiCond145) DPH0 load(1, XDATA, add(CFA_XSP16, literal(-1)))
          CFI (cfiCond145) CFA_SP SP+-2
          CFI (cfiCond145) CFA_XSP16 add(XSP16, 11)
          CFI Block cfiPicker146 Using cfiCommon1
          CFI (cfiPicker146) NoFunction
          CFI (cfiPicker146) Picker
        MOVX    A,@DPTR
        MOV     R0,A
        INC     DPTR
        MOVX    A,@DPTR
        MOV     R1,A
        MOV     A,R0
        ORL     A,R1
        RET
          CFI EndBlock cfiCond142
          CFI EndBlock cfiCond143
          CFI EndBlock cfiCond144
          CFI EndBlock cfiCond145
          CFI EndBlock cfiPicker146
// 2006 
// 2007 /***************************************************************************************************
// 2008  * @fn          MT_ZdoJoinCnfCB
// 2009  *
// 2010  * @brief       Handle the ZDO Join Confirm from ZDO
// 2011  *
// 2012  * @param       pStr - pointer to a parameter and a structure of parameters
// 2013  *
// 2014  * @return      void
// 2015  ***************************************************************************************************/

        RSEG BANKED_CODE:CODE:NOROOT(0)
// 2016 void *MT_ZdoJoinCnfCB ( void *pStr )
MT_ZdoJoinCnfCB:
          CFI Block cfiBlock147 Using cfiCommon0
          CFI Function MT_ZdoJoinCnfCB
        CODE
// 2017 {
        FUNCALL MT_ZdoJoinCnfCB, ZDO_DeregisterForZdoCB
        LOCFRAME ISTACK, 0, STACK
        LOCFRAME PSTACK, 0, STACK
        LOCFRAME XSTACK, 14, STACK
        LOCFRAME IOVERLAY, 0, STATIC
        LOCFRAME DOVERLAY, 0, STATIC
        ARGFRAME ISTACK, 0, STACK
        ARGFRAME PSTACK, 0, STACK
        ARGFRAME XSTACK, 14, STACK
        ARGFRAME IOVERLAY, 0, STATIC
        ARGFRAME DOVERLAY, 0, STATIC
        FUNCALL MT_ZdoJoinCnfCB, MT_BuildAndSendZToolResponse
        LOCFRAME ISTACK, 0, STACK
        LOCFRAME PSTACK, 0, STACK
        LOCFRAME XSTACK, 14, STACK
        LOCFRAME IOVERLAY, 0, STATIC
        LOCFRAME DOVERLAY, 0, STATIC
        ARGFRAME ISTACK, 0, STACK
        ARGFRAME PSTACK, 0, STACK
        ARGFRAME XSTACK, 14, STACK
        ARGFRAME IOVERLAY, 0, STATIC
        ARGFRAME DOVERLAY, 0, STATIC
        MOV     A,#-0x9
        LCALL   ?BANKED_ENTER_XDATA
          CFI DPH0 load(1, XDATA, add(CFA_XSP16, literal(-1)))
          CFI DPL0 load(1, XDATA, add(CFA_XSP16, literal(-2)))
          CFI ?BRET_EXT load(1, XDATA, add(CFA_XSP16, literal(-3)))
          CFI ?RET_HIGH load(1, XDATA, add(CFA_XSP16, literal(-4)))
          CFI ?RET_LOW load(1, XDATA, add(CFA_XSP16, literal(-5)))
          CFI R7 load(1, XDATA, add(CFA_XSP16, literal(-6)))
          CFI V0 load(1, XDATA, add(CFA_XSP16, literal(-7)))
          CFI VB load(1, XDATA, add(CFA_XSP16, literal(-8)))
          CFI R6 load(1, XDATA, add(CFA_XSP16, literal(-9)))
          CFI CFA_SP SP+0
          CFI CFA_XSP16 add(XSP16, 9)
        ; Saved register size: 9
        ; Auto size: 5
        MOV     A,#-0x5
        LCALL   ?ALLOC_XSTACK8
          CFI CFA_XSP16 add(XSP16, 14)
        MOV     A,R2
        MOV     R6,A
        MOV     A,R3
        MOV     R7,A
// 2018   /* pStr: zdoJoinCnf_t* */
// 2019   /* Packet Format */
// 2020   /* Status (1) | device addr (2) | parent addr (2) */
// 2021 
// 2022   uint8 buf[MT_ZDO_JOIN_CNF_LEN];
// 2023   zdoJoinCnf_t *joinCnf = pStr;
// 2024 
// 2025   /* Join Complete. De-register the callback with ZDO */
// 2026   ZDO_DeregisterForZdoCB( ZDO_JOIN_CNF_CBID );
        ; Setup parameters for call to function ZDO_DeregisterForZdoCB
        MOV     R1,#0x4
        LCALL   `??ZDO_DeregisterForZdoCB::?relay`; Banked call to: ZDO_DeregisterForZdoCB
// 2027 
// 2028   buf[0] = joinCnf->status;
        MOV     DPL,R6
        MOV     DPH,R7
        LCALL   ?Subroutine17 & 0xFFFF
// 2029   buf[1] = LO_UINT16( joinCnf->deviceAddr );
??CrossCallReturnLabel_29:
        MOV     DPL,R6
        MOV     DPH,R7
        INC     DPTR
        MOV     R0,DPL
        MOV     R1,DPH
        MOVX    A,@DPTR
        PUSH    A
          CFI CFA_SP SP+-1
        MOV     A,#0x1
        LCALL   ?XSTACK_DISP0_8
        POP     A
          CFI CFA_SP SP+0
        LCALL   ?Subroutine26 & 0xFFFF
// 2030   buf[2] = HI_UINT16( joinCnf->deviceAddr );
??CrossCallReturnLabel_57:
        MOVX    A,@DPTR
        PUSH    A
          CFI CFA_SP SP+-1
        MOV     A,#0x2
        LCALL   ?XSTACK_DISP0_8
        POP     A
          CFI CFA_SP SP+0
        MOVX    @DPTR,A
// 2031   buf[3] = LO_UINT16( joinCnf->parentAddr );
        MOV     A,R6
        ADD     A,#0x3
        LCALL   ?Subroutine28 & 0xFFFF
??CrossCallReturnLabel_61:
        MOVX    A,@DPTR
        PUSH    A
          CFI CFA_SP SP+-1
        MOV     A,#0x3
        LCALL   ?XSTACK_DISP0_8
        POP     A
          CFI CFA_SP SP+0
        LCALL   ?Subroutine26 & 0xFFFF
// 2032   buf[4] = HI_UINT16( joinCnf->parentAddr );
??CrossCallReturnLabel_58:
        MOVX    A,@DPTR
        PUSH    A
          CFI CFA_SP SP+-1
        MOV     A,#0x4
        LCALL   ?XSTACK_DISP0_8
        POP     A
          CFI CFA_SP SP+0
        MOVX    @DPTR,A
// 2033 
// 2034   MT_BuildAndSendZToolResponse(((uint8)MT_RPC_CMD_AREQ | (uint8)MT_RPC_SYS_ZDO),
// 2035                                MT_ZDO_JOIN_CNF, MT_ZDO_JOIN_CNF_LEN, buf);
        ; Setup parameters for call to function MT_BuildAndSendZToolResponse
        MOV     R4,?XSP + 0
        MOV     R5,?XSP + 1
        MOV     R3,#0x5
        MOV     R2,#-0x3a
        MOV     R1,#0x45
        LCALL   `??MT_BuildAndSendZToolResponse::?relay`; Banked call to: MT_BuildAndSendZToolResponse
// 2036 
// 2037   return NULL;
        MOV     R2,#0x0
        MOV     R3,#0x0
        MOV     A,#0x5
        LCALL   ?DEALLOC_XSTACK8
          CFI CFA_XSP16 add(XSP16, 9)
        LJMP    ?Subroutine2 & 0xFFFF
// 2038 }
          CFI EndBlock cfiBlock147

        RSEG BANKED_CODE:CODE:NOROOT(0)
?Subroutine26:
          CFI Block cfiCond148 Using cfiCommon0
          CFI Function MT_ZdoBeaconIndCB
          CFI Conditional ??CrossCallReturnLabel_56
          CFI R6 load(1, XDATA, add(CFA_XSP16, literal(-11)))
          CFI VB load(1, XDATA, add(CFA_XSP16, literal(-10)))
          CFI V0 load(1, XDATA, add(CFA_XSP16, literal(-9)))
          CFI V1 load(1, XDATA, add(CFA_XSP16, literal(-8)))
          CFI V2 load(1, XDATA, add(CFA_XSP16, literal(-7)))
          CFI R7 load(1, XDATA, add(CFA_XSP16, literal(-6)))
          CFI ?RET_LOW load(1, XDATA, add(CFA_XSP16, literal(-5)))
          CFI ?RET_HIGH load(1, XDATA, add(CFA_XSP16, literal(-4)))
          CFI ?BRET_EXT load(1, XDATA, add(CFA_XSP16, literal(-3)))
          CFI DPL0 load(1, XDATA, add(CFA_XSP16, literal(-2)))
          CFI DPH0 load(1, XDATA, add(CFA_XSP16, literal(-1)))
          CFI CFA_SP SP+-2
          CFI CFA_XSP16 add(XSP16, 11)
          CFI Block cfiCond149 Using cfiCommon0
          CFI (cfiCond149) Function MT_ZdoJoinCnfCB
          CFI (cfiCond149) Conditional ??CrossCallReturnLabel_57
          CFI (cfiCond149) R6 load(1, XDATA, add(CFA_XSP16, literal(-9)))
          CFI (cfiCond149) VB load(1, XDATA, add(CFA_XSP16, literal(-8)))
          CFI (cfiCond149) V0 load(1, XDATA, add(CFA_XSP16, literal(-7)))
          CFI (cfiCond149) R7 load(1, XDATA, add(CFA_XSP16, literal(-6)))
          CFI (cfiCond149) ?RET_LOW load(1, XDATA, add(CFA_XSP16, literal(-5)))
          CFI (cfiCond149) ?RET_HIGH load(1, XDATA, add(CFA_XSP16, literal(-4)))
          CFI (cfiCond149) ?BRET_EXT load(1, XDATA, add(CFA_XSP16, literal(-3)))
          CFI (cfiCond149) DPL0 load(1, XDATA, add(CFA_XSP16, literal(-2)))
          CFI (cfiCond149) DPH0 load(1, XDATA, add(CFA_XSP16, literal(-1)))
          CFI (cfiCond149) CFA_SP SP+-2
          CFI (cfiCond149) CFA_XSP16 add(XSP16, 14)
          CFI Block cfiCond150 Using cfiCommon0
          CFI (cfiCond150) Function MT_ZdoJoinCnfCB
          CFI (cfiCond150) Conditional ??CrossCallReturnLabel_58
          CFI (cfiCond150) R6 load(1, XDATA, add(CFA_XSP16, literal(-9)))
          CFI (cfiCond150) VB load(1, XDATA, add(CFA_XSP16, literal(-8)))
          CFI (cfiCond150) V0 load(1, XDATA, add(CFA_XSP16, literal(-7)))
          CFI (cfiCond150) R7 load(1, XDATA, add(CFA_XSP16, literal(-6)))
          CFI (cfiCond150) ?RET_LOW load(1, XDATA, add(CFA_XSP16, literal(-5)))
          CFI (cfiCond150) ?RET_HIGH load(1, XDATA, add(CFA_XSP16, literal(-4)))
          CFI (cfiCond150) ?BRET_EXT load(1, XDATA, add(CFA_XSP16, literal(-3)))
          CFI (cfiCond150) DPL0 load(1, XDATA, add(CFA_XSP16, literal(-2)))
          CFI (cfiCond150) DPH0 load(1, XDATA, add(CFA_XSP16, literal(-1)))
          CFI (cfiCond150) CFA_SP SP+-2
          CFI (cfiCond150) CFA_XSP16 add(XSP16, 14)
          CFI Block cfiPicker151 Using cfiCommon1
          CFI (cfiPicker151) NoFunction
          CFI (cfiPicker151) Picker
        MOVX    @DPTR,A
        MOV     DPL,R0
        MOV     DPH,R1
        INC     DPTR
        RET
          CFI EndBlock cfiCond148
          CFI EndBlock cfiCond149
          CFI EndBlock cfiCond150
          CFI EndBlock cfiPicker151

        RSEG BANKED_CODE:CODE:NOROOT(0)
?Subroutine17:
          CFI Block cfiCond152 Using cfiCommon0
          CFI Function MT_ZdoSendData
          CFI Conditional ??CrossCallReturnLabel_28
          CFI R6 load(1, XDATA, add(CFA_XSP16, literal(-14)))
          CFI VB load(1, XDATA, add(CFA_XSP16, literal(-13)))
          CFI V0 load(1, XDATA, add(CFA_XSP16, literal(-12)))
          CFI V1 load(1, XDATA, add(CFA_XSP16, literal(-11)))
          CFI V2 load(1, XDATA, add(CFA_XSP16, literal(-10)))
          CFI V3 load(1, XDATA, add(CFA_XSP16, literal(-9)))
          CFI V4 load(1, XDATA, add(CFA_XSP16, literal(-8)))
          CFI V5 load(1, XDATA, add(CFA_XSP16, literal(-7)))
          CFI R7 load(1, XDATA, add(CFA_XSP16, literal(-6)))
          CFI ?RET_LOW load(1, XDATA, add(CFA_XSP16, literal(-5)))
          CFI ?RET_HIGH load(1, XDATA, add(CFA_XSP16, literal(-4)))
          CFI ?BRET_EXT load(1, XDATA, add(CFA_XSP16, literal(-3)))
          CFI DPL0 load(1, XDATA, add(CFA_XSP16, literal(-2)))
          CFI DPH0 load(1, XDATA, add(CFA_XSP16, literal(-1)))
          CFI CFA_SP SP+-2
          CFI CFA_XSP16 add(XSP16, 25)
          CFI Block cfiCond153 Using cfiCommon0
          CFI (cfiCond153) Function MT_ZdoJoinCnfCB
          CFI (cfiCond153) Conditional ??CrossCallReturnLabel_29
          CFI (cfiCond153) R6 load(1, XDATA, add(CFA_XSP16, literal(-9)))
          CFI (cfiCond153) VB load(1, XDATA, add(CFA_XSP16, literal(-8)))
          CFI (cfiCond153) V0 load(1, XDATA, add(CFA_XSP16, literal(-7)))
          CFI (cfiCond153) R7 load(1, XDATA, add(CFA_XSP16, literal(-6)))
          CFI (cfiCond153) ?RET_LOW load(1, XDATA, add(CFA_XSP16, literal(-5)))
          CFI (cfiCond153) ?RET_HIGH load(1, XDATA, add(CFA_XSP16, literal(-4)))
          CFI (cfiCond153) ?BRET_EXT load(1, XDATA, add(CFA_XSP16, literal(-3)))
          CFI (cfiCond153) DPL0 load(1, XDATA, add(CFA_XSP16, literal(-2)))
          CFI (cfiCond153) DPH0 load(1, XDATA, add(CFA_XSP16, literal(-1)))
          CFI (cfiCond153) CFA_SP SP+-2
          CFI (cfiCond153) CFA_XSP16 add(XSP16, 14)
          CFI Block cfiPicker154 Using cfiCommon1
          CFI (cfiPicker154) NoFunction
          CFI (cfiPicker154) Picker
        MOVX    A,@DPTR
        MOV     DPL,?XSP + 0
        MOV     DPH,?XSP + 1
        MOVX    @DPTR,A
        RET
          CFI EndBlock cfiCond152
          CFI EndBlock cfiCond153
          CFI EndBlock cfiPicker154
// 2039 
// 2040 /*************************************************************************************************
// 2041  * @fn      MT_ZdoRegisterForZDOMsg(pBuf);
// 2042  *
// 2043  * @brief   MT proxy for ZDO_RegisterForZDOMsg.
// 2044  *
// 2045  * @param   pBuf  - MT message data
// 2046  *
// 2047  * @return  void
// 2048  *************************************************************************************************/
// 2049 void MT_ZdoRegisterForZDOMsg(uint8 *pBuf)
// 2050 {
// 2051   uint8 cmd0, cmd1, tmp;
// 2052   uint16 cId;
// 2053 
// 2054   /* parse header */
// 2055   cmd0 = pBuf[MT_RPC_POS_CMD0];
// 2056   cmd1 = pBuf[MT_RPC_POS_CMD1];
// 2057   pBuf += MT_RPC_FRAME_HDR_SZ;
// 2058 
// 2059   cId = osal_build_uint16( pBuf );
// 2060   tmp = ZDO_RegisterForZDOMsg(MT_TaskID, cId);
// 2061 
// 2062   if (MT_RPC_CMD_SREQ == (cmd0 & MT_RPC_CMD_TYPE_MASK))
// 2063   {
// 2064     MT_BuildAndSendZToolResponse(((uint8)MT_RPC_CMD_SRSP|(uint8)MT_RPC_SYS_ZDO), cmd1, 1, &tmp);
// 2065   }
// 2066 }
// 2067 
// 2068 /*************************************************************************************************
// 2069  * @fn      MT_ZdoRemoveRegisteredCB(pBuf);
// 2070  *
// 2071  * @brief   MT proxy for ZDO_RemoveRegisteredCB.
// 2072  *
// 2073  * @param   pBuf  - MT message data
// 2074  *
// 2075  * @return  void
// 2076  *************************************************************************************************/
// 2077 void MT_ZdoRemoveRegisteredCB(uint8 *pBuf)
// 2078 {
// 2079   uint8 cmd0, cmd1, tmp;
// 2080   uint16 cId;
// 2081 
// 2082   /* parse header */
// 2083   cmd0 = pBuf[MT_RPC_POS_CMD0];
// 2084   cmd1 = pBuf[MT_RPC_POS_CMD1];
// 2085   pBuf += MT_RPC_FRAME_HDR_SZ;
// 2086 
// 2087   cId = osal_build_uint16( pBuf );
// 2088   tmp = ZDO_RemoveRegisteredCB(MT_TaskID, cId);
// 2089 
// 2090   if (MT_RPC_CMD_SREQ == (cmd0 & MT_RPC_CMD_TYPE_MASK))
// 2091   {
// 2092     MT_BuildAndSendZToolResponse(((uint8)MT_RPC_CMD_SRSP|(uint8)MT_RPC_SYS_ZDO), cmd1, 1, &tmp);
// 2093   }
// 2094 }
// 2095 
// 2096 /*************************************************************************************************
// 2097  * @fn      MT_ZdoSetRejoinParameters(pBuf);
// 2098  *
// 2099  * @brief   Set Rejoin backoff and scan duration from MT
// 2100  *
// 2101  * @param   pBuf  - MT message data
// 2102  *
// 2103  * @return  void
// 2104  *************************************************************************************************/
// 2105 static void MT_ZdoSetRejoinParameters(uint8 *pBuf)
// 2106 {
// 2107   uint8 cmdId;
// 2108   uint8 retValue;
// 2109   uint32 rejoinBackoffDuration, rejoinScanDuration;
// 2110 
// 2111   // parse header
// 2112   cmdId = pBuf[MT_RPC_POS_CMD1];
// 2113   pBuf += MT_RPC_FRAME_HDR_SZ;
// 2114 
// 2115   //Rejoin Backoff Duration
// 2116   rejoinBackoffDuration = osal_build_uint32(pBuf, 4);
// 2117   pBuf += 4;
// 2118 
// 2119   //Rejoin Scan Duration
// 2120   rejoinScanDuration = osal_build_uint32(pBuf, 4);
// 2121 
// 2122   ZDApp_SetRejoinScanDuration(rejoinScanDuration);
// 2123   ZDApp_SetRejoinBackoffDuration(rejoinBackoffDuration);
// 2124 
// 2125   retValue = ZSuccess;
// 2126 
// 2127   MT_BuildAndSendZToolResponse(((uint8)MT_RPC_CMD_SRSP | (uint8)MT_RPC_SYS_ZDO), cmdId, 1, &retValue);
// 2128 
// 2129 }
// 2130 
// 2131 #endif /* MT_ZDO_FUNC */
// 2132 
// 2133 
// 2134 /***************************************************************************************************
// 2135  * Callback handling function
// 2136  ***************************************************************************************************/
// 2137 
// 2138 #if defined (MT_ZDO_CB_FUNC)
// 2139 
// 2140 /***************************************************************************************************
// 2141  * @fn      MT_ZdoStateChangeCB
// 2142  *
// 2143  * @brief   Handle state change OSAL message from ZDO.
// 2144  *
// 2145  * @param   pMsg  - Message data
// 2146  *
// 2147  * @return  void
// 2148  */
// 2149 void MT_ZdoStateChangeCB(osal_event_hdr_t *pMsg)
// 2150 {
// 2151   MT_BuildAndSendZToolResponse(((uint8)MT_RPC_CMD_AREQ | (uint8)MT_RPC_SYS_ZDO),
// 2152                                        MT_ZDO_STATE_CHANGE_IND, 1, &pMsg->status);
// 2153 }
// 2154 
// 2155 /***************************************************************************************************
// 2156  * @fn     MT_ZdoDirectCB()
// 2157  *
// 2158  * @brief  ZDO direct callback.  Build an MT message directly from the
// 2159  *         over-the-air ZDO message.
// 2160  *
// 2161  * @param  pData - Incoming AF frame.
// 2162  *
// 2163  * @return  none
// 2164  ***************************************************************************************************/
// 2165 void MT_ZdoDirectCB( afIncomingMSGPacket_t *pData, zdoIncomingMsg_t *inMsg )
// 2166 {
// 2167   uint8 len, *pBuf;
// 2168   uint16 origClusterId;
// 2169 
// 2170   // save original value because MT_ZdoHandleExceptions() function could modify pData->clusterId
// 2171   origClusterId = pData->clusterId;
// 2172 
// 2173   // Is the message an exception or not a response?
// 2174   if ( MT_ZdoHandleExceptions( pData, inMsg ) || ( (origClusterId & ZDO_RESPONSE_BIT) == 0 ) )
// 2175   {
// 2176     return;  // Handled somewhere else or not needed.
// 2177   }
// 2178 
// 2179   /* ZDO data starts after one-byte sequence number and the msg buffer length includes
// 2180    * two bytes for srcAddr.
// 2181    */
// 2182   len = pData->cmd.DataLength - 1 + sizeof(uint16);
// 2183 
// 2184   if (NULL != (pBuf = (uint8 *)osal_mem_alloc(len)))
// 2185   {
// 2186     uint8 id = MT_ZDO_CID_TO_AREQ_ID(pData->clusterId);
// 2187 
// 2188     pBuf[0] = LO_UINT16(pData->srcAddr.addr.shortAddr);
// 2189     pBuf[1] = HI_UINT16(pData->srcAddr.addr.shortAddr);
// 2190 
// 2191     /* copy ZDO data, skipping one-byte sequence number */
// 2192     osal_memcpy(pBuf+2, (pData->cmd.Data + 1), pData->cmd.DataLength-1);
// 2193 
// 2194     MT_BuildAndSendZToolResponse(((uint8)MT_RPC_CMD_AREQ | (uint8)MT_RPC_SYS_ZDO), id, len, pBuf);
// 2195     osal_mem_free(pBuf);
// 2196   }
// 2197 }
// 2198 
// 2199 /***************************************************************************************************
// 2200  * @fn     MT_ZdoHandleExceptions()
// 2201  *
// 2202  * @brief  Handles all messages that are an exception to the generic MT ZDO Response.
// 2203  *
// 2204  * @param  pData - Incoming AF frame.
// 2205  *
// 2206  * @return  TRUE if handled by this function, FALSE if not
// 2207  ***************************************************************************************************/
// 2208 static uint8 MT_ZdoHandleExceptions( afIncomingMSGPacket_t *pData, zdoIncomingMsg_t *inMsg )
// 2209 {
// 2210   uint8 ret = TRUE;
// 2211   ZDO_NwkIEEEAddrResp_t *nwkRsp;
// 2212   ZDO_DeviceAnnce_t devAnnce;
// 2213   uint8 doDefault = FALSE;
// 2214 
// 2215   switch ( inMsg->clusterID )
// 2216   {
// 2217     case NWK_addr_rsp:
// 2218     case IEEE_addr_rsp:
// 2219       if ( NULL != (nwkRsp = ZDO_ParseAddrRsp(inMsg)) )
// 2220       {
// 2221         if ( nwkRsp->status == ZDO_SUCCESS )
// 2222         {
// 2223           MT_ZdoAddrRspCB( nwkRsp, inMsg->clusterID );
// 2224         }
// 2225         osal_mem_free( nwkRsp );
// 2226       }
// 2227       break;
// 2228 
// 2229     case Device_annce:
// 2230       ZDO_ParseDeviceAnnce( inMsg, &devAnnce );
// 2231       MT_ZdoEndDevAnnceCB( &devAnnce, inMsg->srcAddr.addr.shortAddr );
// 2232       break;
// 2233 
// 2234     case Simple_Desc_rsp:
// 2235       if ( pData->cmd.DataLength > 5 )
// 2236       {
// 2237         ret = FALSE;
// 2238       }
// 2239       else
// 2240       {
// 2241         doDefault = TRUE;
// 2242       }
// 2243       break;
// 2244 
// 2245     default:
// 2246       ret = FALSE;
// 2247       break;
// 2248   }
// 2249 
// 2250   if ( doDefault )
// 2251   {
// 2252     ret = FALSE;
// 2253     pData->clusterId = MtZdoDef_rsp;
// 2254     pData->cmd.DataLength = 2;
// 2255   }
// 2256 
// 2257   return ( ret );
// 2258 }
// 2259 
// 2260 /***************************************************************************************************
// 2261  * @fn      MT_ZdoAddrRspCB
// 2262  *
// 2263  * @brief   Handle IEEE or nwk address response OSAL message from ZDO.
// 2264  *
// 2265  * @param   pMsg  - Message data
// 2266  *
// 2267  * @return  void
// 2268  */
// 2269 void MT_ZdoAddrRspCB( ZDO_NwkIEEEAddrResp_t *pMsg, uint16 clusterID )
// 2270 {
// 2271   uint8   listLen, len, *pBuf;
// 2272 
// 2273   /* both ZDO_NwkAddrResp_t and ZDO_IEEEAddrResp_t must be the same */
// 2274 
// 2275   /* get length, sanity check length */
// 2276   listLen = pMsg->numAssocDevs;
// 2277 
// 2278   /* calculate msg length */
// 2279   len = MT_ZDO_ADDR_RSP_LEN + (listLen * sizeof(uint16));
// 2280 
// 2281   /* get buffer */
// 2282   if (NULL != (pBuf = (uint8 *)osal_mem_alloc(len)))
// 2283   {
// 2284     uint8 id = MT_ZDO_CID_TO_AREQ_ID(clusterID);
// 2285     uint8 *pTmp = pBuf;
// 2286 
// 2287     *pTmp++ = pMsg->status;
// 2288 
// 2289     osal_cpyExtAddr(pTmp, pMsg->extAddr);
// 2290     pTmp += Z_EXTADDR_LEN;
// 2291 
// 2292     *pTmp++ = LO_UINT16(pMsg->nwkAddr);
// 2293     *pTmp++ = HI_UINT16(pMsg->nwkAddr);
// 2294 
// 2295     *pTmp++ = pMsg->startIndex;
// 2296     *pTmp++ = listLen;
// 2297 
// 2298     MT_Word2Buf(pTmp, pMsg->devList, listLen);
// 2299 
// 2300     MT_BuildAndSendZToolResponse(((uint8)MT_RPC_CMD_AREQ | (uint8)MT_RPC_SYS_ZDO), id, len, pBuf);
// 2301     osal_mem_free(pBuf);
// 2302   }
// 2303 }
// 2304 
// 2305 /***************************************************************************************************
// 2306  * @fn      MT_ZdoEndDevAnnceCB
// 2307  *
// 2308  * @brief   Handle end device announce OSAL message from ZDO.
// 2309  *
// 2310  * @param   pMsg  - Message data
// 2311  *
// 2312  * @return  void
// 2313  */
// 2314 void MT_ZdoEndDevAnnceCB( ZDO_DeviceAnnce_t *pMsg, uint16 srcAddr )
// 2315 {
// 2316   uint8 *pBuf;
// 2317 
// 2318   if (NULL != (pBuf = (uint8 *)osal_mem_alloc(MT_ZDO_END_DEVICE_ANNCE_IND_LEN)))
// 2319   {
// 2320     uint8 *pTmp = pBuf;
// 2321 
// 2322     *pTmp++ = LO_UINT16(srcAddr);
// 2323     *pTmp++ = HI_UINT16(srcAddr);
// 2324 
// 2325     *pTmp++ = LO_UINT16(pMsg->nwkAddr);
// 2326     *pTmp++ = HI_UINT16(pMsg->nwkAddr);
// 2327 
// 2328     osal_cpyExtAddr(pTmp, pMsg->extAddr);
// 2329     pTmp += Z_EXTADDR_LEN;
// 2330 
// 2331     *pTmp = pMsg->capabilities;
// 2332 
// 2333     MT_BuildAndSendZToolResponse(((uint8)MT_RPC_CMD_AREQ | (uint8)MT_RPC_SYS_ZDO),
// 2334                                          MT_ZDO_END_DEVICE_ANNCE_IND,
// 2335                                          MT_ZDO_END_DEVICE_ANNCE_IND_LEN, pBuf);
// 2336     osal_mem_free(pBuf);
// 2337   }
// 2338 }
// 2339 
// 2340 /***************************************************************************************************
// 2341  * @fn      MT_ZdoSrcRtgCB
// 2342  *
// 2343  * @brief   Handle Src Route from ZDO.
// 2344  *
// 2345  * @param   pStr  - pointer to the data structure for the src route
// 2346  *
// 2347  * @return  void*
// 2348  */
// 2349 void* MT_ZdoSrcRtgCB( void *pStr )
// 2350 {
// 2351   uint8 len, *pBuf;
// 2352   zdoSrcRtg_t *pSrcRtg = pStr;
// 2353 
// 2354   // srcAddr (2) + relayCnt (1) + relayList( relaycnt * 2 )
// 2355   len = 2 + 1 + pSrcRtg->relayCnt * sizeof(uint16);
// 2356 
// 2357   if (NULL != (pBuf = (uint8 *)osal_mem_alloc(len)))
// 2358   {
// 2359     uint8 idx, *pTmp = pBuf;
// 2360     uint16 *pRelay;
// 2361 
// 2362     // Packet payload
// 2363     *pTmp++ = LO_UINT16(pSrcRtg->srcAddr);
// 2364     *pTmp++ = HI_UINT16(pSrcRtg->srcAddr);
// 2365     *pTmp++ = pSrcRtg->relayCnt;
// 2366 
// 2367     // Relay List
// 2368     if( ( pRelay = pSrcRtg->pRelayList ) != NULL )
// 2369     {
// 2370       for( idx = 0; idx < pSrcRtg->relayCnt; idx ++ )
// 2371       {
// 2372         *pTmp++ = LO_UINT16(*pRelay);
// 2373         *pTmp++ = HI_UINT16(*pRelay);
// 2374         pRelay++;
// 2375       }
// 2376     }
// 2377     MT_BuildAndSendZToolResponse(((uint8)MT_RPC_CMD_AREQ | (uint8)MT_RPC_SYS_ZDO),
// 2378                                          MT_ZDO_SRC_RTG_IND, len, pBuf);
// 2379     osal_mem_free(pBuf);
// 2380   }
// 2381 
// 2382   return NULL;
// 2383 }
// 2384 
// 2385 /***************************************************************************************************
// 2386  * @fn          MT_ZdoConcentratorIndCB
// 2387  *
// 2388  * @brief       Handle the ZDO Concentrator Indication callback from the ZDO.
// 2389  *
// 2390  * @param       pStr - pointer to a parameter and a structure of parameters
// 2391  *
// 2392  * @return      NULL
// 2393  ***************************************************************************************************/
// 2394 void *MT_ZdoConcentratorIndCB(void *pStr)
// 2395 {
// 2396   uint8 buf[MT_ZDO_CONCENTRATOR_IND_LEN], *pTmp = buf;
// 2397   zdoConcentratorInd_t *pInd = (zdoConcentratorInd_t *)pStr;
// 2398 
// 2399   *pTmp++ = LO_UINT16(pInd->nwkAddr);
// 2400   *pTmp++ = HI_UINT16(pInd->nwkAddr);
// 2401   pTmp = osal_memcpy(pTmp, pInd->extAddr, Z_EXTADDR_LEN);
// 2402   *pTmp = pInd->pktCost;
// 2403 
// 2404   MT_BuildAndSendZToolResponse(((uint8)MT_RPC_CMD_AREQ | (uint8)MT_RPC_SYS_ZDO),
// 2405                                     MT_ZDO_CONCENTRATOR_IND_CB, MT_ZDO_CONCENTRATOR_IND_LEN, buf);
// 2406   return NULL;
// 2407 }
// 2408 
// 2409 /***************************************************************************************************
// 2410  * @fn          MT_ZdoLeaveInd
// 2411  *
// 2412  * @brief       Handle the ZDO Leave Indication callback from the ZDO.
// 2413  *
// 2414  * @param       vPtr - Pointer to the received Leave Indication message.
// 2415  *
// 2416  * @return      NULL
// 2417  ***************************************************************************************************/
// 2418 static void *MT_ZdoLeaveInd(void *vPtr)
// 2419 {
// 2420   NLME_LeaveInd_t *pInd = (NLME_LeaveInd_t *)vPtr;
// 2421   uint8 buf[sizeof(NLME_LeaveInd_t)];
// 2422 
// 2423   buf[0] = LO_UINT16(pInd->srcAddr);
// 2424   buf[1] = HI_UINT16(pInd->srcAddr);
// 2425   (void)osal_memcpy(buf+2, pInd->extAddr, Z_EXTADDR_LEN);
// 2426   buf[2+Z_EXTADDR_LEN] = pInd->request;
// 2427   buf[3+Z_EXTADDR_LEN] = pInd->removeChildren;
// 2428   buf[4+Z_EXTADDR_LEN] = pInd->rejoin;
// 2429 
// 2430   MT_BuildAndSendZToolResponse(((uint8)MT_RPC_CMD_AREQ | (uint8)MT_RPC_SYS_ZDO),
// 2431                                        MT_ZDO_LEAVE_IND, 5+Z_EXTADDR_LEN, buf);
// 2432   return NULL;
// 2433 }
// 2434 
// 2435 /***************************************************************************************************
// 2436  * @fn          MT_ZdoTcDeviceInd
// 2437  *
// 2438  * @brief       Handle the ZDO TC Device Indication callback from the ZDO.
// 2439  *
// 2440  * @param       params - pointer to Trust Center joining device information
// 2441  *
// 2442  * @return      NULL
// 2443  ***************************************************************************************************/
// 2444 void *MT_ZdoTcDeviceInd( void *params )
// 2445 {
// 2446   ZDO_TC_Device_t *pDev = (ZDO_TC_Device_t *)params;
// 2447   uint8 buf[12];
// 2448 
// 2449   buf[0] = LO_UINT16( pDev->nwkAddr );
// 2450   buf[1] = HI_UINT16( pDev->nwkAddr );
// 2451   (void)osal_memcpy( &buf[2], pDev->extAddr, Z_EXTADDR_LEN);
// 2452   buf[2+Z_EXTADDR_LEN] = LO_UINT16( pDev->parentAddr );
// 2453   buf[3+Z_EXTADDR_LEN] = HI_UINT16( pDev->parentAddr );
// 2454 
// 2455   MT_BuildAndSendZToolResponse( ((uint8)MT_RPC_CMD_AREQ | (uint8)MT_RPC_SYS_ZDO),
// 2456                                        MT_ZDO_TC_DEVICE_IND, 12, buf );
// 2457 
// 2458   return ( NULL );
// 2459 }
// 2460 
// 2461 /***************************************************************************************************
// 2462  * @fn          MT_ZdoPermitJoinInd
// 2463  *
// 2464  * @brief       Handle the ZDO Permit Join Indication callback from the ZDO.
// 2465  *
// 2466  * @param       duration - permit join duration
// 2467  *
// 2468  * @return      NULL
// 2469  ***************************************************************************************************/
// 2470 void *MT_ZdoPermitJoinInd( void *duration )
// 2471 {
// 2472   if ( ignoreIndication == FALSE )
// 2473   {
// 2474     MT_BuildAndSendZToolResponse( ((uint8)MT_RPC_CMD_AREQ | (uint8)MT_RPC_SYS_ZDO),
// 2475                                        MT_ZDO_PERMIT_JOIN_IND, 1, (uint8 *)duration );
// 2476   }
// 2477 
// 2478   return ( NULL );
// 2479 }
// 2480 #endif // MT_ZDO_CB_FUNC
// 2481 
// 2482 /***************************************************************************************************
// 2483  * @fn      MT_ZdoSendMsgCB
// 2484  *
// 2485  * @brief   Proxy the ZDO_SendMsgCBs one message at a time.
// 2486  *
// 2487  * @param   pMsg  - Message data
// 2488  *
// 2489  * @return  void
// 2490  */

        RSEG BANKED_CODE:CODE:NOROOT(0)
// 2491 void MT_ZdoSendMsgCB(zdoIncomingMsg_t *pMsg)
MT_ZdoSendMsgCB:
          CFI Block cfiBlock155 Using cfiCommon0
          CFI Function MT_ZdoSendMsgCB
        CODE
// 2492 {
        FUNCALL MT_ZdoSendMsgCB, osal_mem_alloc
        LOCFRAME ISTACK, 0, STACK
        LOCFRAME PSTACK, 0, STACK
        LOCFRAME XSTACK, 19, STACK
        LOCFRAME IOVERLAY, 0, STATIC
        LOCFRAME DOVERLAY, 0, STATIC
        ARGFRAME ISTACK, 0, STACK
        ARGFRAME PSTACK, 0, STACK
        ARGFRAME XSTACK, 19, STACK
        ARGFRAME IOVERLAY, 0, STATIC
        ARGFRAME DOVERLAY, 0, STATIC
        FUNCALL MT_ZdoSendMsgCB, osal_memcpy
        LOCFRAME ISTACK, 0, STACK
        LOCFRAME PSTACK, 0, STACK
        LOCFRAME XSTACK, 22, STACK
        LOCFRAME IOVERLAY, 0, STATIC
        LOCFRAME DOVERLAY, 0, STATIC
        ARGFRAME ISTACK, 0, STACK
        ARGFRAME PSTACK, 0, STACK
        ARGFRAME XSTACK, 22, STACK
        ARGFRAME IOVERLAY, 0, STATIC
        ARGFRAME DOVERLAY, 0, STATIC
        FUNCALL MT_ZdoSendMsgCB, MT_BuildAndSendZToolResponse
        LOCFRAME ISTACK, 0, STACK
        LOCFRAME PSTACK, 0, STACK
        LOCFRAME XSTACK, 19, STACK
        LOCFRAME IOVERLAY, 0, STATIC
        LOCFRAME DOVERLAY, 0, STATIC
        ARGFRAME ISTACK, 0, STACK
        ARGFRAME PSTACK, 0, STACK
        ARGFRAME XSTACK, 19, STACK
        ARGFRAME IOVERLAY, 0, STATIC
        ARGFRAME DOVERLAY, 0, STATIC
        FUNCALL MT_ZdoSendMsgCB, osal_mem_free
        LOCFRAME ISTACK, 0, STACK
        LOCFRAME PSTACK, 0, STACK
        LOCFRAME XSTACK, 19, STACK
        LOCFRAME IOVERLAY, 0, STATIC
        LOCFRAME DOVERLAY, 0, STATIC
        ARGFRAME ISTACK, 0, STACK
        ARGFRAME PSTACK, 0, STACK
        ARGFRAME XSTACK, 19, STACK
        ARGFRAME IOVERLAY, 0, STATIC
        ARGFRAME DOVERLAY, 0, STATIC
        REQUIRE ?V0
        REQUIRE ?V1
        REQUIRE ?V2
        REQUIRE ?V3
        REQUIRE ?V4
        REQUIRE ?V6
        REQUIRE ?V7
        REQUIRE ?V8
        REQUIRE ?V9
        REQUIRE ?V10
        MOV     A,#-0x13
        LCALL   ?BANKED_ENTER_XDATA
          CFI DPH0 load(1, XDATA, add(CFA_XSP16, literal(-1)))
          CFI DPL0 load(1, XDATA, add(CFA_XSP16, literal(-2)))
          CFI ?BRET_EXT load(1, XDATA, add(CFA_XSP16, literal(-3)))
          CFI ?RET_HIGH load(1, XDATA, add(CFA_XSP16, literal(-4)))
          CFI ?RET_LOW load(1, XDATA, add(CFA_XSP16, literal(-5)))
          CFI R7 load(1, XDATA, add(CFA_XSP16, literal(-6)))
          CFI V10 load(1, XDATA, add(CFA_XSP16, literal(-7)))
          CFI V9 load(1, XDATA, add(CFA_XSP16, literal(-8)))
          CFI V8 load(1, XDATA, add(CFA_XSP16, literal(-9)))
          CFI V7 load(1, XDATA, add(CFA_XSP16, literal(-10)))
          CFI V6 load(1, XDATA, add(CFA_XSP16, literal(-11)))
          CFI V5 load(1, XDATA, add(CFA_XSP16, literal(-12)))
          CFI V4 load(1, XDATA, add(CFA_XSP16, literal(-13)))
          CFI V3 load(1, XDATA, add(CFA_XSP16, literal(-14)))
          CFI V2 load(1, XDATA, add(CFA_XSP16, literal(-15)))
          CFI V1 load(1, XDATA, add(CFA_XSP16, literal(-16)))
          CFI V0 load(1, XDATA, add(CFA_XSP16, literal(-17)))
          CFI VB load(1, XDATA, add(CFA_XSP16, literal(-18)))
          CFI R6 load(1, XDATA, add(CFA_XSP16, literal(-19)))
          CFI CFA_SP SP+0
          CFI CFA_XSP16 add(XSP16, 19)
        ; Saved register size: 19
        ; Auto size: 0
        MOV     A,R2
        MOV     R6,A
        MOV     A,R3
        MOV     R7,A
// 2493   uint8 len = pMsg->asduLen + 9;
        MOV     A,R6
        ADD     A,#0x10
        MOV     R0,A
        CLR     A
        ADDC    A,R7
        MOV     R1,A
        MOV     ?V2,R0
        MOV     ?V3,R1
        MOV     DPL,R0
        MOV     DPH,A
        MOVX    A,@DPTR
        ADD     A,#0x9
        MOV     ?V4,A
// 2494   uint8 *pBuf = (uint8 *)osal_mem_alloc(len);
        ; Setup parameters for call to function osal_mem_alloc
        MOV     R2,A
        MOV     R3,#0x0
        LCALL   `??osal_mem_alloc::?relay`; Banked call to: osal_mem_alloc
        MOV     ?V0,R2
        MOV     ?V1,R3
// 2495 
// 2496   if (pBuf != NULL)
        MOV     A,R2
        ORL     A,?V1
        JNZ     $+5
        LJMP    ??MT_ZdoSendMsgCB_0 & 0xFFFF
// 2497   {
// 2498     uint8 *pTmp = pBuf;
// 2499 
// 2500     // Assuming exclusive use of network short addresses.
// 2501     *pTmp++ = LO_UINT16(pMsg->srcAddr.addr.shortAddr);
        LCALL   ?Subroutine4 & 0xFFFF
??CrossCallReturnLabel_3:
        MOVX    @DPTR,A
// 2502     *pTmp++ = HI_UINT16(pMsg->srcAddr.addr.shortAddr);
        MOV     DPL,R0
        MOV     DPH,R1
        LCALL   ?Subroutine15 & 0xFFFF
??CrossCallReturnLabel_99:
        LCALL   ?Subroutine22 & 0xFFFF
// 2503     *pTmp++ = pMsg->wasBroadcast;
??CrossCallReturnLabel_48:
        LCALL   ??Subroutine42_0 & 0xFFFF
??CrossCallReturnLabel_97:
        INC     DPTR
        MOVX    @DPTR,A
// 2504     *pTmp++ = LO_UINT16(pMsg->clusterID);
        MOV     A,R6
        ADD     A,#0xc
        LCALL   ?Subroutine28 & 0xFFFF
??CrossCallReturnLabel_62:
        LCALL   ?Subroutine14 & 0xFFFF
// 2505     *pTmp++ = HI_UINT16(pMsg->clusterID);
??CrossCallReturnLabel_25:
        MOV     DPL,R0
        MOV     DPH,R1
        LCALL   ?Subroutine13 & 0xFFFF
// 2506     *pTmp++ = pMsg->SecurityUse;
??CrossCallReturnLabel_23:
        MOV     A,R6
        ADD     A,#0xe
        MOV     DPL,A
        CLR     A
        ADDC    A,R7
        MOV     DPH,A
        LCALL   ?Subroutine12 & 0xFFFF
// 2507     *pTmp++ = pMsg->TransSeq;
??CrossCallReturnLabel_21:
        MOV     A,R6
        ADD     A,#0xf
        MOV     DPL,A
        CLR     A
        ADDC    A,R7
        MOV     DPH,A
        LCALL   ?Subroutine11 & 0xFFFF
// 2508     // Skipping asduLen since it can be deduced from the RPC packet length.
// 2509     *pTmp++ = LO_UINT16(pMsg->macDestAddr);
??CrossCallReturnLabel_19:
        MOV     A,R6
        ADD     A,#0x11
        LCALL   ?Subroutine28 & 0xFFFF
??CrossCallReturnLabel_63:
        LCALL   ?Subroutine10 & 0xFFFF
// 2510     *pTmp++ = HI_UINT16(pMsg->macDestAddr);
??CrossCallReturnLabel_17:
        MOV     DPL,R0
        MOV     DPH,R1
        LCALL   ?Subroutine8 & 0xFFFF
// 2511     (void)osal_memcpy(pTmp, pMsg->asdu, pMsg->asduLen);
??CrossCallReturnLabel_13:
        ; Setup parameters for call to function osal_memcpy
        MOV     A,R6
        ADD     A,#0x13
        MOV     DPL,A
        CLR     A
        ADDC    A,R7
        MOV     DPH,A
        MOVX    A,@DPTR
        MOV     ?V8,A
        INC     DPTR
        MOVX    A,@DPTR
        MOV     ?V9,A
        MOV     ?V10,#0x0
        MOV     R0,#?V8
        LCALL   ?PUSH_XSTACK_I_THREE
          CFI CFA_XSP16 add(XSP16, 22)
        MOV     DPL,?V2
        MOV     DPH,?V3
        MOVX    A,@DPTR
        MOV     R4,A
        MOV     R5,#0x0
        MOV     A,R2
        ADD     A,#0x9
        MOV     R2,A
        CLR     A
        ADDC    A,?V1
        MOV     R3,A
        LCALL   `??osal_memcpy::?relay`; Banked call to: osal_memcpy
        MOV     A,#0x3
        LCALL   ?DEALLOC_XSTACK8
          CFI CFA_XSP16 add(XSP16, 19)
// 2512 
// 2513     MT_BuildAndSendZToolResponse(((uint8)MT_RPC_CMD_AREQ | (uint8)MT_RPC_SYS_ZDO),
// 2514                                          MT_ZDO_MSG_CB_INCOMING, len, pBuf);
        ; Setup parameters for call to function MT_BuildAndSendZToolResponse
        MOV     R4,?V0
        MOV     R5,?V1
        MOV     R3,?V4
        MOV     R2,#-0x1
        MOV     R1,#0x45
        LCALL   `??MT_BuildAndSendZToolResponse::?relay`; Banked call to: MT_BuildAndSendZToolResponse
// 2515 
// 2516     osal_mem_free(pBuf);
        ; Setup parameters for call to function osal_mem_free
        MOV     R2,?V0
        MOV     R3,?V1
        LCALL   `??osal_mem_free::?relay`; Banked call to: osal_mem_free
// 2517   }
// 2518 }
??MT_ZdoSendMsgCB_0:
        MOV     R7,#0xb
        LJMP    ?BANKED_LEAVE_XDATA
          CFI EndBlock cfiBlock155

        RSEG BANKED_CODE:CODE:NOROOT(0)
?Subroutine28:
          CFI Block cfiCond156 Using cfiCommon0
          CFI Function MT_ZdoJoinCnfCB
          CFI Conditional ??CrossCallReturnLabel_61
          CFI R6 load(1, XDATA, add(CFA_XSP16, literal(-9)))
          CFI VB load(1, XDATA, add(CFA_XSP16, literal(-8)))
          CFI V0 load(1, XDATA, add(CFA_XSP16, literal(-7)))
          CFI R7 load(1, XDATA, add(CFA_XSP16, literal(-6)))
          CFI ?RET_LOW load(1, XDATA, add(CFA_XSP16, literal(-5)))
          CFI ?RET_HIGH load(1, XDATA, add(CFA_XSP16, literal(-4)))
          CFI ?BRET_EXT load(1, XDATA, add(CFA_XSP16, literal(-3)))
          CFI DPL0 load(1, XDATA, add(CFA_XSP16, literal(-2)))
          CFI DPH0 load(1, XDATA, add(CFA_XSP16, literal(-1)))
          CFI CFA_SP SP+-2
          CFI CFA_XSP16 add(XSP16, 14)
          CFI Block cfiCond157 Using cfiCommon0
          CFI (cfiCond157) Function MT_ZdoSendMsgCB
          CFI (cfiCond157) Conditional ??CrossCallReturnLabel_62
          CFI (cfiCond157) R6 load(1, XDATA, add(CFA_XSP16, literal(-19)))
          CFI (cfiCond157) VB load(1, XDATA, add(CFA_XSP16, literal(-18)))
          CFI (cfiCond157) V0 load(1, XDATA, add(CFA_XSP16, literal(-17)))
          CFI (cfiCond157) V1 load(1, XDATA, add(CFA_XSP16, literal(-16)))
          CFI (cfiCond157) V2 load(1, XDATA, add(CFA_XSP16, literal(-15)))
          CFI (cfiCond157) V3 load(1, XDATA, add(CFA_XSP16, literal(-14)))
          CFI (cfiCond157) V4 load(1, XDATA, add(CFA_XSP16, literal(-13)))
          CFI (cfiCond157) V5 load(1, XDATA, add(CFA_XSP16, literal(-12)))
          CFI (cfiCond157) V6 load(1, XDATA, add(CFA_XSP16, literal(-11)))
          CFI (cfiCond157) V7 load(1, XDATA, add(CFA_XSP16, literal(-10)))
          CFI (cfiCond157) V8 load(1, XDATA, add(CFA_XSP16, literal(-9)))
          CFI (cfiCond157) V9 load(1, XDATA, add(CFA_XSP16, literal(-8)))
          CFI (cfiCond157) V10 load(1, XDATA, add(CFA_XSP16, literal(-7)))
          CFI (cfiCond157) R7 load(1, XDATA, add(CFA_XSP16, literal(-6)))
          CFI (cfiCond157) ?RET_LOW load(1, XDATA, add(CFA_XSP16, literal(-5)))
          CFI (cfiCond157) ?RET_HIGH load(1, XDATA, add(CFA_XSP16, literal(-4)))
          CFI (cfiCond157) ?BRET_EXT load(1, XDATA, add(CFA_XSP16, literal(-3)))
          CFI (cfiCond157) DPL0 load(1, XDATA, add(CFA_XSP16, literal(-2)))
          CFI (cfiCond157) DPH0 load(1, XDATA, add(CFA_XSP16, literal(-1)))
          CFI (cfiCond157) CFA_SP SP+-2
          CFI (cfiCond157) CFA_XSP16 add(XSP16, 19)
          CFI Block cfiCond158 Using cfiCommon0
          CFI (cfiCond158) Function MT_ZdoSendMsgCB
          CFI (cfiCond158) Conditional ??CrossCallReturnLabel_63
          CFI (cfiCond158) R6 load(1, XDATA, add(CFA_XSP16, literal(-19)))
          CFI (cfiCond158) VB load(1, XDATA, add(CFA_XSP16, literal(-18)))
          CFI (cfiCond158) V0 load(1, XDATA, add(CFA_XSP16, literal(-17)))
          CFI (cfiCond158) V1 load(1, XDATA, add(CFA_XSP16, literal(-16)))
          CFI (cfiCond158) V2 load(1, XDATA, add(CFA_XSP16, literal(-15)))
          CFI (cfiCond158) V3 load(1, XDATA, add(CFA_XSP16, literal(-14)))
          CFI (cfiCond158) V4 load(1, XDATA, add(CFA_XSP16, literal(-13)))
          CFI (cfiCond158) V5 load(1, XDATA, add(CFA_XSP16, literal(-12)))
          CFI (cfiCond158) V6 load(1, XDATA, add(CFA_XSP16, literal(-11)))
          CFI (cfiCond158) V7 load(1, XDATA, add(CFA_XSP16, literal(-10)))
          CFI (cfiCond158) V8 load(1, XDATA, add(CFA_XSP16, literal(-9)))
          CFI (cfiCond158) V9 load(1, XDATA, add(CFA_XSP16, literal(-8)))
          CFI (cfiCond158) V10 load(1, XDATA, add(CFA_XSP16, literal(-7)))
          CFI (cfiCond158) R7 load(1, XDATA, add(CFA_XSP16, literal(-6)))
          CFI (cfiCond158) ?RET_LOW load(1, XDATA, add(CFA_XSP16, literal(-5)))
          CFI (cfiCond158) ?RET_HIGH load(1, XDATA, add(CFA_XSP16, literal(-4)))
          CFI (cfiCond158) ?BRET_EXT load(1, XDATA, add(CFA_XSP16, literal(-3)))
          CFI (cfiCond158) DPL0 load(1, XDATA, add(CFA_XSP16, literal(-2)))
          CFI (cfiCond158) DPH0 load(1, XDATA, add(CFA_XSP16, literal(-1)))
          CFI (cfiCond158) CFA_SP SP+-2
          CFI (cfiCond158) CFA_XSP16 add(XSP16, 19)
          CFI Block cfiPicker159 Using cfiCommon1
          CFI (cfiPicker159) NoFunction
          CFI (cfiPicker159) Picker
        MOV     R0,A
        CLR     A
        ADDC    A,R7
        MOV     R1,A
        MOV     DPL,R0
        MOV     DPH,R1
        RET
          CFI EndBlock cfiCond156
          CFI EndBlock cfiCond157
          CFI EndBlock cfiCond158
          CFI EndBlock cfiPicker159

        RSEG BANKED_CODE:CODE:NOROOT(0)
?Subroutine22:
          CFI Block cfiCond160 Using cfiCommon0
          CFI Function MT_ZdoBeaconIndCB
          CFI Conditional ??CrossCallReturnLabel_47
          CFI R6 load(1, XDATA, add(CFA_XSP16, literal(-11)))
          CFI VB load(1, XDATA, add(CFA_XSP16, literal(-10)))
          CFI V0 load(1, XDATA, add(CFA_XSP16, literal(-9)))
          CFI V1 load(1, XDATA, add(CFA_XSP16, literal(-8)))
          CFI V2 load(1, XDATA, add(CFA_XSP16, literal(-7)))
          CFI R7 load(1, XDATA, add(CFA_XSP16, literal(-6)))
          CFI ?RET_LOW load(1, XDATA, add(CFA_XSP16, literal(-5)))
          CFI ?RET_HIGH load(1, XDATA, add(CFA_XSP16, literal(-4)))
          CFI ?BRET_EXT load(1, XDATA, add(CFA_XSP16, literal(-3)))
          CFI DPL0 load(1, XDATA, add(CFA_XSP16, literal(-2)))
          CFI DPH0 load(1, XDATA, add(CFA_XSP16, literal(-1)))
          CFI CFA_SP SP+-2
          CFI CFA_XSP16 add(XSP16, 11)
          CFI Block cfiCond161 Using cfiCommon0
          CFI (cfiCond161) Function MT_ZdoSendMsgCB
          CFI (cfiCond161) Conditional ??CrossCallReturnLabel_48
          CFI (cfiCond161) R6 load(1, XDATA, add(CFA_XSP16, literal(-19)))
          CFI (cfiCond161) VB load(1, XDATA, add(CFA_XSP16, literal(-18)))
          CFI (cfiCond161) V0 load(1, XDATA, add(CFA_XSP16, literal(-17)))
          CFI (cfiCond161) V1 load(1, XDATA, add(CFA_XSP16, literal(-16)))
          CFI (cfiCond161) V2 load(1, XDATA, add(CFA_XSP16, literal(-15)))
          CFI (cfiCond161) V3 load(1, XDATA, add(CFA_XSP16, literal(-14)))
          CFI (cfiCond161) V4 load(1, XDATA, add(CFA_XSP16, literal(-13)))
          CFI (cfiCond161) V5 load(1, XDATA, add(CFA_XSP16, literal(-12)))
          CFI (cfiCond161) V6 load(1, XDATA, add(CFA_XSP16, literal(-11)))
          CFI (cfiCond161) V7 load(1, XDATA, add(CFA_XSP16, literal(-10)))
          CFI (cfiCond161) V8 load(1, XDATA, add(CFA_XSP16, literal(-9)))
          CFI (cfiCond161) V9 load(1, XDATA, add(CFA_XSP16, literal(-8)))
          CFI (cfiCond161) V10 load(1, XDATA, add(CFA_XSP16, literal(-7)))
          CFI (cfiCond161) R7 load(1, XDATA, add(CFA_XSP16, literal(-6)))
          CFI (cfiCond161) ?RET_LOW load(1, XDATA, add(CFA_XSP16, literal(-5)))
          CFI (cfiCond161) ?RET_HIGH load(1, XDATA, add(CFA_XSP16, literal(-4)))
          CFI (cfiCond161) ?BRET_EXT load(1, XDATA, add(CFA_XSP16, literal(-3)))
          CFI (cfiCond161) DPL0 load(1, XDATA, add(CFA_XSP16, literal(-2)))
          CFI (cfiCond161) DPH0 load(1, XDATA, add(CFA_XSP16, literal(-1)))
          CFI (cfiCond161) CFA_SP SP+-2
          CFI (cfiCond161) CFA_XSP16 add(XSP16, 19)
          CFI Block cfiPicker162 Using cfiCommon1
          CFI (cfiPicker162) NoFunction
          CFI (cfiPicker162) Picker
        MOVX    @DPTR,A
        MOV     A,R6
        ADD     A,#0xb
        MOV     DPL,A
        CLR     A
        ADDC    A,R7
        MOV     DPH,A
        RET
          CFI EndBlock cfiCond160
          CFI EndBlock cfiCond161
          CFI EndBlock cfiPicker162

        RSEG BANKED_CODE:CODE:NOROOT(0)
?Subroutine14:
          CFI Block cfiCond163 Using cfiCommon0
          CFI Function MT_ZdoBeaconIndCB
          CFI Conditional ??CrossCallReturnLabel_24
          CFI R6 load(1, XDATA, add(CFA_XSP16, literal(-11)))
          CFI VB load(1, XDATA, add(CFA_XSP16, literal(-10)))
          CFI V0 load(1, XDATA, add(CFA_XSP16, literal(-9)))
          CFI V1 load(1, XDATA, add(CFA_XSP16, literal(-8)))
          CFI V2 load(1, XDATA, add(CFA_XSP16, literal(-7)))
          CFI R7 load(1, XDATA, add(CFA_XSP16, literal(-6)))
          CFI ?RET_LOW load(1, XDATA, add(CFA_XSP16, literal(-5)))
          CFI ?RET_HIGH load(1, XDATA, add(CFA_XSP16, literal(-4)))
          CFI ?BRET_EXT load(1, XDATA, add(CFA_XSP16, literal(-3)))
          CFI DPL0 load(1, XDATA, add(CFA_XSP16, literal(-2)))
          CFI DPH0 load(1, XDATA, add(CFA_XSP16, literal(-1)))
          CFI CFA_SP SP+-2
          CFI CFA_XSP16 add(XSP16, 11)
          CFI Block cfiCond164 Using cfiCommon0
          CFI (cfiCond164) Function MT_ZdoSendMsgCB
          CFI (cfiCond164) Conditional ??CrossCallReturnLabel_25
          CFI (cfiCond164) R6 load(1, XDATA, add(CFA_XSP16, literal(-19)))
          CFI (cfiCond164) VB load(1, XDATA, add(CFA_XSP16, literal(-18)))
          CFI (cfiCond164) V0 load(1, XDATA, add(CFA_XSP16, literal(-17)))
          CFI (cfiCond164) V1 load(1, XDATA, add(CFA_XSP16, literal(-16)))
          CFI (cfiCond164) V2 load(1, XDATA, add(CFA_XSP16, literal(-15)))
          CFI (cfiCond164) V3 load(1, XDATA, add(CFA_XSP16, literal(-14)))
          CFI (cfiCond164) V4 load(1, XDATA, add(CFA_XSP16, literal(-13)))
          CFI (cfiCond164) V5 load(1, XDATA, add(CFA_XSP16, literal(-12)))
          CFI (cfiCond164) V6 load(1, XDATA, add(CFA_XSP16, literal(-11)))
          CFI (cfiCond164) V7 load(1, XDATA, add(CFA_XSP16, literal(-10)))
          CFI (cfiCond164) V8 load(1, XDATA, add(CFA_XSP16, literal(-9)))
          CFI (cfiCond164) V9 load(1, XDATA, add(CFA_XSP16, literal(-8)))
          CFI (cfiCond164) V10 load(1, XDATA, add(CFA_XSP16, literal(-7)))
          CFI (cfiCond164) R7 load(1, XDATA, add(CFA_XSP16, literal(-6)))
          CFI (cfiCond164) ?RET_LOW load(1, XDATA, add(CFA_XSP16, literal(-5)))
          CFI (cfiCond164) ?RET_HIGH load(1, XDATA, add(CFA_XSP16, literal(-4)))
          CFI (cfiCond164) ?BRET_EXT load(1, XDATA, add(CFA_XSP16, literal(-3)))
          CFI (cfiCond164) DPL0 load(1, XDATA, add(CFA_XSP16, literal(-2)))
          CFI (cfiCond164) DPH0 load(1, XDATA, add(CFA_XSP16, literal(-1)))
          CFI (cfiCond164) CFA_SP SP+-2
          CFI (cfiCond164) CFA_XSP16 add(XSP16, 19)
          CFI Block cfiPicker165 Using cfiCommon1
          CFI (cfiPicker165) NoFunction
          CFI (cfiPicker165) Picker
        LCALL   ?Subroutine35 & 0xFFFF
??CrossCallReturnLabel_102:
        INC     DPTR
        INC     DPTR
        INC     DPTR
        MOVX    @DPTR,A
        RET
          CFI EndBlock cfiCond163
          CFI EndBlock cfiCond164
          CFI EndBlock cfiPicker165

        RSEG BANKED_CODE:CODE:NOROOT(0)
?Subroutine13:
          CFI Block cfiCond166 Using cfiCommon0
          CFI Function MT_ZdoBeaconIndCB
          CFI Conditional ??CrossCallReturnLabel_22
          CFI R6 load(1, XDATA, add(CFA_XSP16, literal(-11)))
          CFI VB load(1, XDATA, add(CFA_XSP16, literal(-10)))
          CFI V0 load(1, XDATA, add(CFA_XSP16, literal(-9)))
          CFI V1 load(1, XDATA, add(CFA_XSP16, literal(-8)))
          CFI V2 load(1, XDATA, add(CFA_XSP16, literal(-7)))
          CFI R7 load(1, XDATA, add(CFA_XSP16, literal(-6)))
          CFI ?RET_LOW load(1, XDATA, add(CFA_XSP16, literal(-5)))
          CFI ?RET_HIGH load(1, XDATA, add(CFA_XSP16, literal(-4)))
          CFI ?BRET_EXT load(1, XDATA, add(CFA_XSP16, literal(-3)))
          CFI DPL0 load(1, XDATA, add(CFA_XSP16, literal(-2)))
          CFI DPH0 load(1, XDATA, add(CFA_XSP16, literal(-1)))
          CFI CFA_SP SP+-2
          CFI CFA_XSP16 add(XSP16, 11)
          CFI Block cfiCond167 Using cfiCommon0
          CFI (cfiCond167) Function MT_ZdoSendMsgCB
          CFI (cfiCond167) Conditional ??CrossCallReturnLabel_23
          CFI (cfiCond167) R6 load(1, XDATA, add(CFA_XSP16, literal(-19)))
          CFI (cfiCond167) VB load(1, XDATA, add(CFA_XSP16, literal(-18)))
          CFI (cfiCond167) V0 load(1, XDATA, add(CFA_XSP16, literal(-17)))
          CFI (cfiCond167) V1 load(1, XDATA, add(CFA_XSP16, literal(-16)))
          CFI (cfiCond167) V2 load(1, XDATA, add(CFA_XSP16, literal(-15)))
          CFI (cfiCond167) V3 load(1, XDATA, add(CFA_XSP16, literal(-14)))
          CFI (cfiCond167) V4 load(1, XDATA, add(CFA_XSP16, literal(-13)))
          CFI (cfiCond167) V5 load(1, XDATA, add(CFA_XSP16, literal(-12)))
          CFI (cfiCond167) V6 load(1, XDATA, add(CFA_XSP16, literal(-11)))
          CFI (cfiCond167) V7 load(1, XDATA, add(CFA_XSP16, literal(-10)))
          CFI (cfiCond167) V8 load(1, XDATA, add(CFA_XSP16, literal(-9)))
          CFI (cfiCond167) V9 load(1, XDATA, add(CFA_XSP16, literal(-8)))
          CFI (cfiCond167) V10 load(1, XDATA, add(CFA_XSP16, literal(-7)))
          CFI (cfiCond167) R7 load(1, XDATA, add(CFA_XSP16, literal(-6)))
          CFI (cfiCond167) ?RET_LOW load(1, XDATA, add(CFA_XSP16, literal(-5)))
          CFI (cfiCond167) ?RET_HIGH load(1, XDATA, add(CFA_XSP16, literal(-4)))
          CFI (cfiCond167) ?BRET_EXT load(1, XDATA, add(CFA_XSP16, literal(-3)))
          CFI (cfiCond167) DPL0 load(1, XDATA, add(CFA_XSP16, literal(-2)))
          CFI (cfiCond167) DPH0 load(1, XDATA, add(CFA_XSP16, literal(-1)))
          CFI (cfiCond167) CFA_SP SP+-2
          CFI (cfiCond167) CFA_XSP16 add(XSP16, 19)
          CFI Block cfiPicker168 Using cfiCommon1
          CFI (cfiPicker168) NoFunction
          CFI (cfiPicker168) Picker
        INC     DPTR
        LCALL   ?Subroutine34 & 0xFFFF
??CrossCallReturnLabel_71:
        MOVX    @DPTR,A
        RET
          CFI EndBlock cfiCond166
          CFI EndBlock cfiCond167
          CFI EndBlock cfiPicker168

        RSEG BANKED_CODE:CODE:NOROOT(0)
?Subroutine12:
          CFI Block cfiCond169 Using cfiCommon0
          CFI Function MT_ZdoBeaconIndCB
          CFI Conditional ??CrossCallReturnLabel_20
          CFI R6 load(1, XDATA, add(CFA_XSP16, literal(-11)))
          CFI VB load(1, XDATA, add(CFA_XSP16, literal(-10)))
          CFI V0 load(1, XDATA, add(CFA_XSP16, literal(-9)))
          CFI V1 load(1, XDATA, add(CFA_XSP16, literal(-8)))
          CFI V2 load(1, XDATA, add(CFA_XSP16, literal(-7)))
          CFI R7 load(1, XDATA, add(CFA_XSP16, literal(-6)))
          CFI ?RET_LOW load(1, XDATA, add(CFA_XSP16, literal(-5)))
          CFI ?RET_HIGH load(1, XDATA, add(CFA_XSP16, literal(-4)))
          CFI ?BRET_EXT load(1, XDATA, add(CFA_XSP16, literal(-3)))
          CFI DPL0 load(1, XDATA, add(CFA_XSP16, literal(-2)))
          CFI DPH0 load(1, XDATA, add(CFA_XSP16, literal(-1)))
          CFI CFA_SP SP+-2
          CFI CFA_XSP16 add(XSP16, 11)
          CFI Block cfiCond170 Using cfiCommon0
          CFI (cfiCond170) Function MT_ZdoSendMsgCB
          CFI (cfiCond170) Conditional ??CrossCallReturnLabel_21
          CFI (cfiCond170) R6 load(1, XDATA, add(CFA_XSP16, literal(-19)))
          CFI (cfiCond170) VB load(1, XDATA, add(CFA_XSP16, literal(-18)))
          CFI (cfiCond170) V0 load(1, XDATA, add(CFA_XSP16, literal(-17)))
          CFI (cfiCond170) V1 load(1, XDATA, add(CFA_XSP16, literal(-16)))
          CFI (cfiCond170) V2 load(1, XDATA, add(CFA_XSP16, literal(-15)))
          CFI (cfiCond170) V3 load(1, XDATA, add(CFA_XSP16, literal(-14)))
          CFI (cfiCond170) V4 load(1, XDATA, add(CFA_XSP16, literal(-13)))
          CFI (cfiCond170) V5 load(1, XDATA, add(CFA_XSP16, literal(-12)))
          CFI (cfiCond170) V6 load(1, XDATA, add(CFA_XSP16, literal(-11)))
          CFI (cfiCond170) V7 load(1, XDATA, add(CFA_XSP16, literal(-10)))
          CFI (cfiCond170) V8 load(1, XDATA, add(CFA_XSP16, literal(-9)))
          CFI (cfiCond170) V9 load(1, XDATA, add(CFA_XSP16, literal(-8)))
          CFI (cfiCond170) V10 load(1, XDATA, add(CFA_XSP16, literal(-7)))
          CFI (cfiCond170) R7 load(1, XDATA, add(CFA_XSP16, literal(-6)))
          CFI (cfiCond170) ?RET_LOW load(1, XDATA, add(CFA_XSP16, literal(-5)))
          CFI (cfiCond170) ?RET_HIGH load(1, XDATA, add(CFA_XSP16, literal(-4)))
          CFI (cfiCond170) ?BRET_EXT load(1, XDATA, add(CFA_XSP16, literal(-3)))
          CFI (cfiCond170) DPL0 load(1, XDATA, add(CFA_XSP16, literal(-2)))
          CFI (cfiCond170) DPH0 load(1, XDATA, add(CFA_XSP16, literal(-1)))
          CFI (cfiCond170) CFA_SP SP+-2
          CFI (cfiCond170) CFA_XSP16 add(XSP16, 19)
          CFI Block cfiPicker171 Using cfiCommon1
          CFI (cfiPicker171) NoFunction
          CFI (cfiPicker171) Picker
        LCALL   ?Subroutine34 & 0xFFFF
??CrossCallReturnLabel_70:
        INC     DPTR
        MOVX    @DPTR,A
        RET
          CFI EndBlock cfiCond169
          CFI EndBlock cfiCond170
          CFI EndBlock cfiPicker171

        RSEG BANKED_CODE:CODE:NOROOT(0)
?Subroutine34:
          CFI Block cfiCond172 Using cfiCommon0
          CFI Function MT_ZdoBeaconIndCB
          CFI Conditional ??CrossCallReturnLabel_71, ??CrossCallReturnLabel_22
          CFI R6 load(1, XDATA, add(CFA_XSP16, literal(-11)))
          CFI VB load(1, XDATA, add(CFA_XSP16, literal(-10)))
          CFI V0 load(1, XDATA, add(CFA_XSP16, literal(-9)))
          CFI V1 load(1, XDATA, add(CFA_XSP16, literal(-8)))
          CFI V2 load(1, XDATA, add(CFA_XSP16, literal(-7)))
          CFI R7 load(1, XDATA, add(CFA_XSP16, literal(-6)))
          CFI ?RET_LOW load(1, XDATA, add(CFA_XSP16, literal(-5)))
          CFI ?RET_HIGH load(1, XDATA, add(CFA_XSP16, literal(-4)))
          CFI ?BRET_EXT load(1, XDATA, add(CFA_XSP16, literal(-3)))
          CFI DPL0 load(1, XDATA, add(CFA_XSP16, literal(-2)))
          CFI DPH0 load(1, XDATA, add(CFA_XSP16, literal(-1)))
          CFI CFA_SP SP+-4
          CFI CFA_XSP16 add(XSP16, 11)
          CFI Block cfiCond173 Using cfiCommon0
          CFI (cfiCond173) Function MT_ZdoSendMsgCB
          CFI (cfiCond173) Conditional ??CrossCallReturnLabel_71, ??CrossCallReturnLabel_23
          CFI (cfiCond173) R6 load(1, XDATA, add(CFA_XSP16, literal(-19)))
          CFI (cfiCond173) VB load(1, XDATA, add(CFA_XSP16, literal(-18)))
          CFI (cfiCond173) V0 load(1, XDATA, add(CFA_XSP16, literal(-17)))
          CFI (cfiCond173) V1 load(1, XDATA, add(CFA_XSP16, literal(-16)))
          CFI (cfiCond173) V2 load(1, XDATA, add(CFA_XSP16, literal(-15)))
          CFI (cfiCond173) V3 load(1, XDATA, add(CFA_XSP16, literal(-14)))
          CFI (cfiCond173) V4 load(1, XDATA, add(CFA_XSP16, literal(-13)))
          CFI (cfiCond173) V5 load(1, XDATA, add(CFA_XSP16, literal(-12)))
          CFI (cfiCond173) V6 load(1, XDATA, add(CFA_XSP16, literal(-11)))
          CFI (cfiCond173) V7 load(1, XDATA, add(CFA_XSP16, literal(-10)))
          CFI (cfiCond173) V8 load(1, XDATA, add(CFA_XSP16, literal(-9)))
          CFI (cfiCond173) V9 load(1, XDATA, add(CFA_XSP16, literal(-8)))
          CFI (cfiCond173) V10 load(1, XDATA, add(CFA_XSP16, literal(-7)))
          CFI (cfiCond173) R7 load(1, XDATA, add(CFA_XSP16, literal(-6)))
          CFI (cfiCond173) ?RET_LOW load(1, XDATA, add(CFA_XSP16, literal(-5)))
          CFI (cfiCond173) ?RET_HIGH load(1, XDATA, add(CFA_XSP16, literal(-4)))
          CFI (cfiCond173) ?BRET_EXT load(1, XDATA, add(CFA_XSP16, literal(-3)))
          CFI (cfiCond173) DPL0 load(1, XDATA, add(CFA_XSP16, literal(-2)))
          CFI (cfiCond173) DPH0 load(1, XDATA, add(CFA_XSP16, literal(-1)))
          CFI (cfiCond173) CFA_SP SP+-4
          CFI (cfiCond173) CFA_XSP16 add(XSP16, 19)
          CFI Block cfiCond174 Using cfiCommon0
          CFI (cfiCond174) Function MT_ZdoBeaconIndCB
          CFI (cfiCond174) Conditional ??CrossCallReturnLabel_70, ??CrossCallReturnLabel_20
          CFI (cfiCond174) R6 load(1, XDATA, add(CFA_XSP16, literal(-11)))
          CFI (cfiCond174) VB load(1, XDATA, add(CFA_XSP16, literal(-10)))
          CFI (cfiCond174) V0 load(1, XDATA, add(CFA_XSP16, literal(-9)))
          CFI (cfiCond174) V1 load(1, XDATA, add(CFA_XSP16, literal(-8)))
          CFI (cfiCond174) V2 load(1, XDATA, add(CFA_XSP16, literal(-7)))
          CFI (cfiCond174) R7 load(1, XDATA, add(CFA_XSP16, literal(-6)))
          CFI (cfiCond174) ?RET_LOW load(1, XDATA, add(CFA_XSP16, literal(-5)))
          CFI (cfiCond174) ?RET_HIGH load(1, XDATA, add(CFA_XSP16, literal(-4)))
          CFI (cfiCond174) ?BRET_EXT load(1, XDATA, add(CFA_XSP16, literal(-3)))
          CFI (cfiCond174) DPL0 load(1, XDATA, add(CFA_XSP16, literal(-2)))
          CFI (cfiCond174) DPH0 load(1, XDATA, add(CFA_XSP16, literal(-1)))
          CFI (cfiCond174) CFA_SP SP+-4
          CFI (cfiCond174) CFA_XSP16 add(XSP16, 11)
          CFI Block cfiCond175 Using cfiCommon0
          CFI (cfiCond175) Function MT_ZdoSendMsgCB
          CFI (cfiCond175) Conditional ??CrossCallReturnLabel_70, ??CrossCallReturnLabel_21
          CFI (cfiCond175) R6 load(1, XDATA, add(CFA_XSP16, literal(-19)))
          CFI (cfiCond175) VB load(1, XDATA, add(CFA_XSP16, literal(-18)))
          CFI (cfiCond175) V0 load(1, XDATA, add(CFA_XSP16, literal(-17)))
          CFI (cfiCond175) V1 load(1, XDATA, add(CFA_XSP16, literal(-16)))
          CFI (cfiCond175) V2 load(1, XDATA, add(CFA_XSP16, literal(-15)))
          CFI (cfiCond175) V3 load(1, XDATA, add(CFA_XSP16, literal(-14)))
          CFI (cfiCond175) V4 load(1, XDATA, add(CFA_XSP16, literal(-13)))
          CFI (cfiCond175) V5 load(1, XDATA, add(CFA_XSP16, literal(-12)))
          CFI (cfiCond175) V6 load(1, XDATA, add(CFA_XSP16, literal(-11)))
          CFI (cfiCond175) V7 load(1, XDATA, add(CFA_XSP16, literal(-10)))
          CFI (cfiCond175) V8 load(1, XDATA, add(CFA_XSP16, literal(-9)))
          CFI (cfiCond175) V9 load(1, XDATA, add(CFA_XSP16, literal(-8)))
          CFI (cfiCond175) V10 load(1, XDATA, add(CFA_XSP16, literal(-7)))
          CFI (cfiCond175) R7 load(1, XDATA, add(CFA_XSP16, literal(-6)))
          CFI (cfiCond175) ?RET_LOW load(1, XDATA, add(CFA_XSP16, literal(-5)))
          CFI (cfiCond175) ?RET_HIGH load(1, XDATA, add(CFA_XSP16, literal(-4)))
          CFI (cfiCond175) ?BRET_EXT load(1, XDATA, add(CFA_XSP16, literal(-3)))
          CFI (cfiCond175) DPL0 load(1, XDATA, add(CFA_XSP16, literal(-2)))
          CFI (cfiCond175) DPH0 load(1, XDATA, add(CFA_XSP16, literal(-1)))
          CFI (cfiCond175) CFA_SP SP+-4
          CFI (cfiCond175) CFA_XSP16 add(XSP16, 19)
          CFI Block cfiPicker176 Using cfiCommon1
          CFI (cfiPicker176) NoFunction
          CFI (cfiPicker176) Picker
        LCALL   ?Subroutine38 & 0xFFFF
??CrossCallReturnLabel_74:
        RET
          CFI EndBlock cfiCond172
          CFI EndBlock cfiCond173
          CFI EndBlock cfiCond174
          CFI EndBlock cfiCond175
          CFI EndBlock cfiPicker176

        RSEG BANKED_CODE:CODE:NOROOT(0)
?Subroutine38:
          CFI Block cfiCond177 Using cfiCommon0
          CFI Function MT_ZdoBeaconIndCB
          CFI Conditional ??CrossCallReturnLabel_74, ??CrossCallReturnLabel_71, ??CrossCallReturnLabel_22
          CFI R6 load(1, XDATA, add(CFA_XSP16, literal(-11)))
          CFI VB load(1, XDATA, add(CFA_XSP16, literal(-10)))
          CFI V0 load(1, XDATA, add(CFA_XSP16, literal(-9)))
          CFI V1 load(1, XDATA, add(CFA_XSP16, literal(-8)))
          CFI V2 load(1, XDATA, add(CFA_XSP16, literal(-7)))
          CFI R7 load(1, XDATA, add(CFA_XSP16, literal(-6)))
          CFI ?RET_LOW load(1, XDATA, add(CFA_XSP16, literal(-5)))
          CFI ?RET_HIGH load(1, XDATA, add(CFA_XSP16, literal(-4)))
          CFI ?BRET_EXT load(1, XDATA, add(CFA_XSP16, literal(-3)))
          CFI DPL0 load(1, XDATA, add(CFA_XSP16, literal(-2)))
          CFI DPH0 load(1, XDATA, add(CFA_XSP16, literal(-1)))
          CFI CFA_SP SP+-6
          CFI CFA_XSP16 add(XSP16, 11)
          CFI Block cfiCond178 Using cfiCommon0
          CFI (cfiCond178) Function MT_ZdoSendMsgCB
          CFI (cfiCond178) Conditional ??CrossCallReturnLabel_74, ??CrossCallReturnLabel_71, ??CrossCallReturnLabel_23
          CFI (cfiCond178) R6 load(1, XDATA, add(CFA_XSP16, literal(-19)))
          CFI (cfiCond178) VB load(1, XDATA, add(CFA_XSP16, literal(-18)))
          CFI (cfiCond178) V0 load(1, XDATA, add(CFA_XSP16, literal(-17)))
          CFI (cfiCond178) V1 load(1, XDATA, add(CFA_XSP16, literal(-16)))
          CFI (cfiCond178) V2 load(1, XDATA, add(CFA_XSP16, literal(-15)))
          CFI (cfiCond178) V3 load(1, XDATA, add(CFA_XSP16, literal(-14)))
          CFI (cfiCond178) V4 load(1, XDATA, add(CFA_XSP16, literal(-13)))
          CFI (cfiCond178) V5 load(1, XDATA, add(CFA_XSP16, literal(-12)))
          CFI (cfiCond178) V6 load(1, XDATA, add(CFA_XSP16, literal(-11)))
          CFI (cfiCond178) V7 load(1, XDATA, add(CFA_XSP16, literal(-10)))
          CFI (cfiCond178) V8 load(1, XDATA, add(CFA_XSP16, literal(-9)))
          CFI (cfiCond178) V9 load(1, XDATA, add(CFA_XSP16, literal(-8)))
          CFI (cfiCond178) V10 load(1, XDATA, add(CFA_XSP16, literal(-7)))
          CFI (cfiCond178) R7 load(1, XDATA, add(CFA_XSP16, literal(-6)))
          CFI (cfiCond178) ?RET_LOW load(1, XDATA, add(CFA_XSP16, literal(-5)))
          CFI (cfiCond178) ?RET_HIGH load(1, XDATA, add(CFA_XSP16, literal(-4)))
          CFI (cfiCond178) ?BRET_EXT load(1, XDATA, add(CFA_XSP16, literal(-3)))
          CFI (cfiCond178) DPL0 load(1, XDATA, add(CFA_XSP16, literal(-2)))
          CFI (cfiCond178) DPH0 load(1, XDATA, add(CFA_XSP16, literal(-1)))
          CFI (cfiCond178) CFA_SP SP+-6
          CFI (cfiCond178) CFA_XSP16 add(XSP16, 19)
          CFI Block cfiCond179 Using cfiCommon0
          CFI (cfiCond179) Function MT_ZdoBeaconIndCB
          CFI (cfiCond179) Conditional ??CrossCallReturnLabel_74, ??CrossCallReturnLabel_70, ??CrossCallReturnLabel_20
          CFI (cfiCond179) R6 load(1, XDATA, add(CFA_XSP16, literal(-11)))
          CFI (cfiCond179) VB load(1, XDATA, add(CFA_XSP16, literal(-10)))
          CFI (cfiCond179) V0 load(1, XDATA, add(CFA_XSP16, literal(-9)))
          CFI (cfiCond179) V1 load(1, XDATA, add(CFA_XSP16, literal(-8)))
          CFI (cfiCond179) V2 load(1, XDATA, add(CFA_XSP16, literal(-7)))
          CFI (cfiCond179) R7 load(1, XDATA, add(CFA_XSP16, literal(-6)))
          CFI (cfiCond179) ?RET_LOW load(1, XDATA, add(CFA_XSP16, literal(-5)))
          CFI (cfiCond179) ?RET_HIGH load(1, XDATA, add(CFA_XSP16, literal(-4)))
          CFI (cfiCond179) ?BRET_EXT load(1, XDATA, add(CFA_XSP16, literal(-3)))
          CFI (cfiCond179) DPL0 load(1, XDATA, add(CFA_XSP16, literal(-2)))
          CFI (cfiCond179) DPH0 load(1, XDATA, add(CFA_XSP16, literal(-1)))
          CFI (cfiCond179) CFA_SP SP+-6
          CFI (cfiCond179) CFA_XSP16 add(XSP16, 11)
          CFI Block cfiCond180 Using cfiCommon0
          CFI (cfiCond180) Function MT_ZdoSendMsgCB
          CFI (cfiCond180) Conditional ??CrossCallReturnLabel_74, ??CrossCallReturnLabel_70, ??CrossCallReturnLabel_21
          CFI (cfiCond180) R6 load(1, XDATA, add(CFA_XSP16, literal(-19)))
          CFI (cfiCond180) VB load(1, XDATA, add(CFA_XSP16, literal(-18)))
          CFI (cfiCond180) V0 load(1, XDATA, add(CFA_XSP16, literal(-17)))
          CFI (cfiCond180) V1 load(1, XDATA, add(CFA_XSP16, literal(-16)))
          CFI (cfiCond180) V2 load(1, XDATA, add(CFA_XSP16, literal(-15)))
          CFI (cfiCond180) V3 load(1, XDATA, add(CFA_XSP16, literal(-14)))
          CFI (cfiCond180) V4 load(1, XDATA, add(CFA_XSP16, literal(-13)))
          CFI (cfiCond180) V5 load(1, XDATA, add(CFA_XSP16, literal(-12)))
          CFI (cfiCond180) V6 load(1, XDATA, add(CFA_XSP16, literal(-11)))
          CFI (cfiCond180) V7 load(1, XDATA, add(CFA_XSP16, literal(-10)))
          CFI (cfiCond180) V8 load(1, XDATA, add(CFA_XSP16, literal(-9)))
          CFI (cfiCond180) V9 load(1, XDATA, add(CFA_XSP16, literal(-8)))
          CFI (cfiCond180) V10 load(1, XDATA, add(CFA_XSP16, literal(-7)))
          CFI (cfiCond180) R7 load(1, XDATA, add(CFA_XSP16, literal(-6)))
          CFI (cfiCond180) ?RET_LOW load(1, XDATA, add(CFA_XSP16, literal(-5)))
          CFI (cfiCond180) ?RET_HIGH load(1, XDATA, add(CFA_XSP16, literal(-4)))
          CFI (cfiCond180) ?BRET_EXT load(1, XDATA, add(CFA_XSP16, literal(-3)))
          CFI (cfiCond180) DPL0 load(1, XDATA, add(CFA_XSP16, literal(-2)))
          CFI (cfiCond180) DPH0 load(1, XDATA, add(CFA_XSP16, literal(-1)))
          CFI (cfiCond180) CFA_SP SP+-6
          CFI (cfiCond180) CFA_XSP16 add(XSP16, 19)
          CFI Block cfiCond181 Using cfiCommon0
          CFI (cfiCond181) Function MT_ZdoBeaconIndCB
          CFI (cfiCond181) Conditional ??CrossCallReturnLabel_75, ??CrossCallReturnLabel_73, ??CrossCallReturnLabel_69, ??CrossCallReturnLabel_18
          CFI (cfiCond181) R6 load(1, XDATA, add(CFA_XSP16, literal(-11)))
          CFI (cfiCond181) VB load(1, XDATA, add(CFA_XSP16, literal(-10)))
          CFI (cfiCond181) V0 load(1, XDATA, add(CFA_XSP16, literal(-9)))
          CFI (cfiCond181) V1 load(1, XDATA, add(CFA_XSP16, literal(-8)))
          CFI (cfiCond181) V2 load(1, XDATA, add(CFA_XSP16, literal(-7)))
          CFI (cfiCond181) R7 load(1, XDATA, add(CFA_XSP16, literal(-6)))
          CFI (cfiCond181) ?RET_LOW load(1, XDATA, add(CFA_XSP16, literal(-5)))
          CFI (cfiCond181) ?RET_HIGH load(1, XDATA, add(CFA_XSP16, literal(-4)))
          CFI (cfiCond181) ?BRET_EXT load(1, XDATA, add(CFA_XSP16, literal(-3)))
          CFI (cfiCond181) DPL0 load(1, XDATA, add(CFA_XSP16, literal(-2)))
          CFI (cfiCond181) DPH0 load(1, XDATA, add(CFA_XSP16, literal(-1)))
          CFI (cfiCond181) CFA_SP SP+-8
          CFI (cfiCond181) CFA_XSP16 add(XSP16, 11)
          CFI Block cfiCond182 Using cfiCommon0
          CFI (cfiCond182) Function MT_ZdoSendMsgCB
          CFI (cfiCond182) Conditional ??CrossCallReturnLabel_75, ??CrossCallReturnLabel_73, ??CrossCallReturnLabel_69, ??CrossCallReturnLabel_19
          CFI (cfiCond182) R6 load(1, XDATA, add(CFA_XSP16, literal(-19)))
          CFI (cfiCond182) VB load(1, XDATA, add(CFA_XSP16, literal(-18)))
          CFI (cfiCond182) V0 load(1, XDATA, add(CFA_XSP16, literal(-17)))
          CFI (cfiCond182) V1 load(1, XDATA, add(CFA_XSP16, literal(-16)))
          CFI (cfiCond182) V2 load(1, XDATA, add(CFA_XSP16, literal(-15)))
          CFI (cfiCond182) V3 load(1, XDATA, add(CFA_XSP16, literal(-14)))
          CFI (cfiCond182) V4 load(1, XDATA, add(CFA_XSP16, literal(-13)))
          CFI (cfiCond182) V5 load(1, XDATA, add(CFA_XSP16, literal(-12)))
          CFI (cfiCond182) V6 load(1, XDATA, add(CFA_XSP16, literal(-11)))
          CFI (cfiCond182) V7 load(1, XDATA, add(CFA_XSP16, literal(-10)))
          CFI (cfiCond182) V8 load(1, XDATA, add(CFA_XSP16, literal(-9)))
          CFI (cfiCond182) V9 load(1, XDATA, add(CFA_XSP16, literal(-8)))
          CFI (cfiCond182) V10 load(1, XDATA, add(CFA_XSP16, literal(-7)))
          CFI (cfiCond182) R7 load(1, XDATA, add(CFA_XSP16, literal(-6)))
          CFI (cfiCond182) ?RET_LOW load(1, XDATA, add(CFA_XSP16, literal(-5)))
          CFI (cfiCond182) ?RET_HIGH load(1, XDATA, add(CFA_XSP16, literal(-4)))
          CFI (cfiCond182) ?BRET_EXT load(1, XDATA, add(CFA_XSP16, literal(-3)))
          CFI (cfiCond182) DPL0 load(1, XDATA, add(CFA_XSP16, literal(-2)))
          CFI (cfiCond182) DPH0 load(1, XDATA, add(CFA_XSP16, literal(-1)))
          CFI (cfiCond182) CFA_SP SP+-8
          CFI (cfiCond182) CFA_XSP16 add(XSP16, 19)
          CFI Block cfiCond183 Using cfiCommon0
          CFI (cfiCond183) Function MT_ZdoBeaconIndCB
          CFI (cfiCond183) Conditional ??CrossCallReturnLabel_75, ??CrossCallReturnLabel_73, ??CrossCallReturnLabel_68, ??CrossCallReturnLabel_16
          CFI (cfiCond183) R6 load(1, XDATA, add(CFA_XSP16, literal(-11)))
          CFI (cfiCond183) VB load(1, XDATA, add(CFA_XSP16, literal(-10)))
          CFI (cfiCond183) V0 load(1, XDATA, add(CFA_XSP16, literal(-9)))
          CFI (cfiCond183) V1 load(1, XDATA, add(CFA_XSP16, literal(-8)))
          CFI (cfiCond183) V2 load(1, XDATA, add(CFA_XSP16, literal(-7)))
          CFI (cfiCond183) R7 load(1, XDATA, add(CFA_XSP16, literal(-6)))
          CFI (cfiCond183) ?RET_LOW load(1, XDATA, add(CFA_XSP16, literal(-5)))
          CFI (cfiCond183) ?RET_HIGH load(1, XDATA, add(CFA_XSP16, literal(-4)))
          CFI (cfiCond183) ?BRET_EXT load(1, XDATA, add(CFA_XSP16, literal(-3)))
          CFI (cfiCond183) DPL0 load(1, XDATA, add(CFA_XSP16, literal(-2)))
          CFI (cfiCond183) DPH0 load(1, XDATA, add(CFA_XSP16, literal(-1)))
          CFI (cfiCond183) CFA_SP SP+-8
          CFI (cfiCond183) CFA_XSP16 add(XSP16, 11)
          CFI Block cfiCond184 Using cfiCommon0
          CFI (cfiCond184) Function MT_ZdoSendMsgCB
          CFI (cfiCond184) Conditional ??CrossCallReturnLabel_75, ??CrossCallReturnLabel_73, ??CrossCallReturnLabel_68, ??CrossCallReturnLabel_17
          CFI (cfiCond184) R6 load(1, XDATA, add(CFA_XSP16, literal(-19)))
          CFI (cfiCond184) VB load(1, XDATA, add(CFA_XSP16, literal(-18)))
          CFI (cfiCond184) V0 load(1, XDATA, add(CFA_XSP16, literal(-17)))
          CFI (cfiCond184) V1 load(1, XDATA, add(CFA_XSP16, literal(-16)))
          CFI (cfiCond184) V2 load(1, XDATA, add(CFA_XSP16, literal(-15)))
          CFI (cfiCond184) V3 load(1, XDATA, add(CFA_XSP16, literal(-14)))
          CFI (cfiCond184) V4 load(1, XDATA, add(CFA_XSP16, literal(-13)))
          CFI (cfiCond184) V5 load(1, XDATA, add(CFA_XSP16, literal(-12)))
          CFI (cfiCond184) V6 load(1, XDATA, add(CFA_XSP16, literal(-11)))
          CFI (cfiCond184) V7 load(1, XDATA, add(CFA_XSP16, literal(-10)))
          CFI (cfiCond184) V8 load(1, XDATA, add(CFA_XSP16, literal(-9)))
          CFI (cfiCond184) V9 load(1, XDATA, add(CFA_XSP16, literal(-8)))
          CFI (cfiCond184) V10 load(1, XDATA, add(CFA_XSP16, literal(-7)))
          CFI (cfiCond184) R7 load(1, XDATA, add(CFA_XSP16, literal(-6)))
          CFI (cfiCond184) ?RET_LOW load(1, XDATA, add(CFA_XSP16, literal(-5)))
          CFI (cfiCond184) ?RET_HIGH load(1, XDATA, add(CFA_XSP16, literal(-4)))
          CFI (cfiCond184) ?BRET_EXT load(1, XDATA, add(CFA_XSP16, literal(-3)))
          CFI (cfiCond184) DPL0 load(1, XDATA, add(CFA_XSP16, literal(-2)))
          CFI (cfiCond184) DPH0 load(1, XDATA, add(CFA_XSP16, literal(-1)))
          CFI (cfiCond184) CFA_SP SP+-8
          CFI (cfiCond184) CFA_XSP16 add(XSP16, 19)
          CFI Block cfiCond185 Using cfiCommon0
          CFI (cfiCond185) Function MT_ZdoBeaconIndCB
          CFI (cfiCond185) Conditional ??CrossCallReturnLabel_75, ??CrossCallReturnLabel_72, ??CrossCallReturnLabel_67, ??CrossCallReturnLabel_14
          CFI (cfiCond185) R6 load(1, XDATA, add(CFA_XSP16, literal(-11)))
          CFI (cfiCond185) VB load(1, XDATA, add(CFA_XSP16, literal(-10)))
          CFI (cfiCond185) V0 load(1, XDATA, add(CFA_XSP16, literal(-9)))
          CFI (cfiCond185) V1 load(1, XDATA, add(CFA_XSP16, literal(-8)))
          CFI (cfiCond185) V2 load(1, XDATA, add(CFA_XSP16, literal(-7)))
          CFI (cfiCond185) R7 load(1, XDATA, add(CFA_XSP16, literal(-6)))
          CFI (cfiCond185) ?RET_LOW load(1, XDATA, add(CFA_XSP16, literal(-5)))
          CFI (cfiCond185) ?RET_HIGH load(1, XDATA, add(CFA_XSP16, literal(-4)))
          CFI (cfiCond185) ?BRET_EXT load(1, XDATA, add(CFA_XSP16, literal(-3)))
          CFI (cfiCond185) DPL0 load(1, XDATA, add(CFA_XSP16, literal(-2)))
          CFI (cfiCond185) DPH0 load(1, XDATA, add(CFA_XSP16, literal(-1)))
          CFI (cfiCond185) CFA_SP SP+-8
          CFI (cfiCond185) CFA_XSP16 add(XSP16, 11)
          CFI Block cfiCond186 Using cfiCommon0
          CFI (cfiCond186) Function MT_ZdoBeaconIndCB
          CFI (cfiCond186) Conditional ??CrossCallReturnLabel_75, ??CrossCallReturnLabel_72, ??CrossCallReturnLabel_67, ??CrossCallReturnLabel_15
          CFI (cfiCond186) R6 load(1, XDATA, add(CFA_XSP16, literal(-11)))
          CFI (cfiCond186) VB load(1, XDATA, add(CFA_XSP16, literal(-10)))
          CFI (cfiCond186) V0 load(1, XDATA, add(CFA_XSP16, literal(-9)))
          CFI (cfiCond186) V1 load(1, XDATA, add(CFA_XSP16, literal(-8)))
          CFI (cfiCond186) V2 load(1, XDATA, add(CFA_XSP16, literal(-7)))
          CFI (cfiCond186) R7 load(1, XDATA, add(CFA_XSP16, literal(-6)))
          CFI (cfiCond186) ?RET_LOW load(1, XDATA, add(CFA_XSP16, literal(-5)))
          CFI (cfiCond186) ?RET_HIGH load(1, XDATA, add(CFA_XSP16, literal(-4)))
          CFI (cfiCond186) ?BRET_EXT load(1, XDATA, add(CFA_XSP16, literal(-3)))
          CFI (cfiCond186) DPL0 load(1, XDATA, add(CFA_XSP16, literal(-2)))
          CFI (cfiCond186) DPH0 load(1, XDATA, add(CFA_XSP16, literal(-1)))
          CFI (cfiCond186) CFA_SP SP+-8
          CFI (cfiCond186) CFA_XSP16 add(XSP16, 11)
          CFI Block cfiCond187 Using cfiCommon0
          CFI (cfiCond187) Function MT_ZdoBeaconIndCB
          CFI (cfiCond187) Conditional ??CrossCallReturnLabel_75, ??CrossCallReturnLabel_72, ??CrossCallReturnLabel_66, ??CrossCallReturnLabel_12
          CFI (cfiCond187) R6 load(1, XDATA, add(CFA_XSP16, literal(-11)))
          CFI (cfiCond187) VB load(1, XDATA, add(CFA_XSP16, literal(-10)))
          CFI (cfiCond187) V0 load(1, XDATA, add(CFA_XSP16, literal(-9)))
          CFI (cfiCond187) V1 load(1, XDATA, add(CFA_XSP16, literal(-8)))
          CFI (cfiCond187) V2 load(1, XDATA, add(CFA_XSP16, literal(-7)))
          CFI (cfiCond187) R7 load(1, XDATA, add(CFA_XSP16, literal(-6)))
          CFI (cfiCond187) ?RET_LOW load(1, XDATA, add(CFA_XSP16, literal(-5)))
          CFI (cfiCond187) ?RET_HIGH load(1, XDATA, add(CFA_XSP16, literal(-4)))
          CFI (cfiCond187) ?BRET_EXT load(1, XDATA, add(CFA_XSP16, literal(-3)))
          CFI (cfiCond187) DPL0 load(1, XDATA, add(CFA_XSP16, literal(-2)))
          CFI (cfiCond187) DPH0 load(1, XDATA, add(CFA_XSP16, literal(-1)))
          CFI (cfiCond187) CFA_SP SP+-8
          CFI (cfiCond187) CFA_XSP16 add(XSP16, 11)
          CFI Block cfiCond188 Using cfiCommon0
          CFI (cfiCond188) Function MT_ZdoSendMsgCB
          CFI (cfiCond188) Conditional ??CrossCallReturnLabel_75, ??CrossCallReturnLabel_72, ??CrossCallReturnLabel_66, ??CrossCallReturnLabel_13
          CFI (cfiCond188) R6 load(1, XDATA, add(CFA_XSP16, literal(-19)))
          CFI (cfiCond188) VB load(1, XDATA, add(CFA_XSP16, literal(-18)))
          CFI (cfiCond188) V0 load(1, XDATA, add(CFA_XSP16, literal(-17)))
          CFI (cfiCond188) V1 load(1, XDATA, add(CFA_XSP16, literal(-16)))
          CFI (cfiCond188) V2 load(1, XDATA, add(CFA_XSP16, literal(-15)))
          CFI (cfiCond188) V3 load(1, XDATA, add(CFA_XSP16, literal(-14)))
          CFI (cfiCond188) V4 load(1, XDATA, add(CFA_XSP16, literal(-13)))
          CFI (cfiCond188) V5 load(1, XDATA, add(CFA_XSP16, literal(-12)))
          CFI (cfiCond188) V6 load(1, XDATA, add(CFA_XSP16, literal(-11)))
          CFI (cfiCond188) V7 load(1, XDATA, add(CFA_XSP16, literal(-10)))
          CFI (cfiCond188) V8 load(1, XDATA, add(CFA_XSP16, literal(-9)))
          CFI (cfiCond188) V9 load(1, XDATA, add(CFA_XSP16, literal(-8)))
          CFI (cfiCond188) V10 load(1, XDATA, add(CFA_XSP16, literal(-7)))
          CFI (cfiCond188) R7 load(1, XDATA, add(CFA_XSP16, literal(-6)))
          CFI (cfiCond188) ?RET_LOW load(1, XDATA, add(CFA_XSP16, literal(-5)))
          CFI (cfiCond188) ?RET_HIGH load(1, XDATA, add(CFA_XSP16, literal(-4)))
          CFI (cfiCond188) ?BRET_EXT load(1, XDATA, add(CFA_XSP16, literal(-3)))
          CFI (cfiCond188) DPL0 load(1, XDATA, add(CFA_XSP16, literal(-2)))
          CFI (cfiCond188) DPH0 load(1, XDATA, add(CFA_XSP16, literal(-1)))
          CFI (cfiCond188) CFA_SP SP+-8
          CFI (cfiCond188) CFA_XSP16 add(XSP16, 19)
          CFI Block cfiPicker189 Using cfiCommon1
          CFI (cfiPicker189) NoFunction
          CFI (cfiPicker189) Picker
        MOVX    A,@DPTR
        MOV     DPL,R2
        MOV     DPH,R3
        INC     DPTR
        INC     DPTR
        INC     DPTR
        INC     DPTR
        RET
          CFI EndBlock cfiCond177
          CFI EndBlock cfiCond178
          CFI EndBlock cfiCond179
          CFI EndBlock cfiCond180
          CFI EndBlock cfiCond181
          CFI EndBlock cfiCond182
          CFI EndBlock cfiCond183
          CFI EndBlock cfiCond184
          CFI EndBlock cfiCond185
          CFI EndBlock cfiCond186
          CFI EndBlock cfiCond187
          CFI EndBlock cfiCond188
          CFI EndBlock cfiPicker189

        RSEG BANKED_CODE:CODE:NOROOT(0)
?Subroutine11:
          CFI Block cfiCond190 Using cfiCommon0
          CFI Function MT_ZdoBeaconIndCB
          CFI Conditional ??CrossCallReturnLabel_18
          CFI R6 load(1, XDATA, add(CFA_XSP16, literal(-11)))
          CFI VB load(1, XDATA, add(CFA_XSP16, literal(-10)))
          CFI V0 load(1, XDATA, add(CFA_XSP16, literal(-9)))
          CFI V1 load(1, XDATA, add(CFA_XSP16, literal(-8)))
          CFI V2 load(1, XDATA, add(CFA_XSP16, literal(-7)))
          CFI R7 load(1, XDATA, add(CFA_XSP16, literal(-6)))
          CFI ?RET_LOW load(1, XDATA, add(CFA_XSP16, literal(-5)))
          CFI ?RET_HIGH load(1, XDATA, add(CFA_XSP16, literal(-4)))
          CFI ?BRET_EXT load(1, XDATA, add(CFA_XSP16, literal(-3)))
          CFI DPL0 load(1, XDATA, add(CFA_XSP16, literal(-2)))
          CFI DPH0 load(1, XDATA, add(CFA_XSP16, literal(-1)))
          CFI CFA_SP SP+-2
          CFI CFA_XSP16 add(XSP16, 11)
          CFI Block cfiCond191 Using cfiCommon0
          CFI (cfiCond191) Function MT_ZdoSendMsgCB
          CFI (cfiCond191) Conditional ??CrossCallReturnLabel_19
          CFI (cfiCond191) R6 load(1, XDATA, add(CFA_XSP16, literal(-19)))
          CFI (cfiCond191) VB load(1, XDATA, add(CFA_XSP16, literal(-18)))
          CFI (cfiCond191) V0 load(1, XDATA, add(CFA_XSP16, literal(-17)))
          CFI (cfiCond191) V1 load(1, XDATA, add(CFA_XSP16, literal(-16)))
          CFI (cfiCond191) V2 load(1, XDATA, add(CFA_XSP16, literal(-15)))
          CFI (cfiCond191) V3 load(1, XDATA, add(CFA_XSP16, literal(-14)))
          CFI (cfiCond191) V4 load(1, XDATA, add(CFA_XSP16, literal(-13)))
          CFI (cfiCond191) V5 load(1, XDATA, add(CFA_XSP16, literal(-12)))
          CFI (cfiCond191) V6 load(1, XDATA, add(CFA_XSP16, literal(-11)))
          CFI (cfiCond191) V7 load(1, XDATA, add(CFA_XSP16, literal(-10)))
          CFI (cfiCond191) V8 load(1, XDATA, add(CFA_XSP16, literal(-9)))
          CFI (cfiCond191) V9 load(1, XDATA, add(CFA_XSP16, literal(-8)))
          CFI (cfiCond191) V10 load(1, XDATA, add(CFA_XSP16, literal(-7)))
          CFI (cfiCond191) R7 load(1, XDATA, add(CFA_XSP16, literal(-6)))
          CFI (cfiCond191) ?RET_LOW load(1, XDATA, add(CFA_XSP16, literal(-5)))
          CFI (cfiCond191) ?RET_HIGH load(1, XDATA, add(CFA_XSP16, literal(-4)))
          CFI (cfiCond191) ?BRET_EXT load(1, XDATA, add(CFA_XSP16, literal(-3)))
          CFI (cfiCond191) DPL0 load(1, XDATA, add(CFA_XSP16, literal(-2)))
          CFI (cfiCond191) DPH0 load(1, XDATA, add(CFA_XSP16, literal(-1)))
          CFI (cfiCond191) CFA_SP SP+-2
          CFI (cfiCond191) CFA_XSP16 add(XSP16, 19)
          CFI Block cfiPicker192 Using cfiCommon1
          CFI (cfiPicker192) NoFunction
          CFI (cfiPicker192) Picker
        LCALL   ?Subroutine32 & 0xFFFF
??CrossCallReturnLabel_69:
        MOVX    @DPTR,A
        RET
          CFI EndBlock cfiCond190
          CFI EndBlock cfiCond191
          CFI EndBlock cfiPicker192

        RSEG BANKED_CODE:CODE:NOROOT(0)
?Subroutine10:
          CFI Block cfiCond193 Using cfiCommon0
          CFI Function MT_ZdoBeaconIndCB
          CFI Conditional ??CrossCallReturnLabel_16
          CFI R6 load(1, XDATA, add(CFA_XSP16, literal(-11)))
          CFI VB load(1, XDATA, add(CFA_XSP16, literal(-10)))
          CFI V0 load(1, XDATA, add(CFA_XSP16, literal(-9)))
          CFI V1 load(1, XDATA, add(CFA_XSP16, literal(-8)))
          CFI V2 load(1, XDATA, add(CFA_XSP16, literal(-7)))
          CFI R7 load(1, XDATA, add(CFA_XSP16, literal(-6)))
          CFI ?RET_LOW load(1, XDATA, add(CFA_XSP16, literal(-5)))
          CFI ?RET_HIGH load(1, XDATA, add(CFA_XSP16, literal(-4)))
          CFI ?BRET_EXT load(1, XDATA, add(CFA_XSP16, literal(-3)))
          CFI DPL0 load(1, XDATA, add(CFA_XSP16, literal(-2)))
          CFI DPH0 load(1, XDATA, add(CFA_XSP16, literal(-1)))
          CFI CFA_SP SP+-2
          CFI CFA_XSP16 add(XSP16, 11)
          CFI Block cfiCond194 Using cfiCommon0
          CFI (cfiCond194) Function MT_ZdoSendMsgCB
          CFI (cfiCond194) Conditional ??CrossCallReturnLabel_17
          CFI (cfiCond194) R6 load(1, XDATA, add(CFA_XSP16, literal(-19)))
          CFI (cfiCond194) VB load(1, XDATA, add(CFA_XSP16, literal(-18)))
          CFI (cfiCond194) V0 load(1, XDATA, add(CFA_XSP16, literal(-17)))
          CFI (cfiCond194) V1 load(1, XDATA, add(CFA_XSP16, literal(-16)))
          CFI (cfiCond194) V2 load(1, XDATA, add(CFA_XSP16, literal(-15)))
          CFI (cfiCond194) V3 load(1, XDATA, add(CFA_XSP16, literal(-14)))
          CFI (cfiCond194) V4 load(1, XDATA, add(CFA_XSP16, literal(-13)))
          CFI (cfiCond194) V5 load(1, XDATA, add(CFA_XSP16, literal(-12)))
          CFI (cfiCond194) V6 load(1, XDATA, add(CFA_XSP16, literal(-11)))
          CFI (cfiCond194) V7 load(1, XDATA, add(CFA_XSP16, literal(-10)))
          CFI (cfiCond194) V8 load(1, XDATA, add(CFA_XSP16, literal(-9)))
          CFI (cfiCond194) V9 load(1, XDATA, add(CFA_XSP16, literal(-8)))
          CFI (cfiCond194) V10 load(1, XDATA, add(CFA_XSP16, literal(-7)))
          CFI (cfiCond194) R7 load(1, XDATA, add(CFA_XSP16, literal(-6)))
          CFI (cfiCond194) ?RET_LOW load(1, XDATA, add(CFA_XSP16, literal(-5)))
          CFI (cfiCond194) ?RET_HIGH load(1, XDATA, add(CFA_XSP16, literal(-4)))
          CFI (cfiCond194) ?BRET_EXT load(1, XDATA, add(CFA_XSP16, literal(-3)))
          CFI (cfiCond194) DPL0 load(1, XDATA, add(CFA_XSP16, literal(-2)))
          CFI (cfiCond194) DPH0 load(1, XDATA, add(CFA_XSP16, literal(-1)))
          CFI (cfiCond194) CFA_SP SP+-2
          CFI (cfiCond194) CFA_XSP16 add(XSP16, 19)
          CFI Block cfiPicker195 Using cfiCommon1
          CFI (cfiPicker195) NoFunction
          CFI (cfiPicker195) Picker
        LCALL   ?Subroutine32 & 0xFFFF
??CrossCallReturnLabel_68:
        INC     DPTR
        MOVX    @DPTR,A
        RET
          CFI EndBlock cfiCond193
          CFI EndBlock cfiCond194
          CFI EndBlock cfiPicker195

        RSEG BANKED_CODE:CODE:NOROOT(0)
?Subroutine32:
          CFI Block cfiCond196 Using cfiCommon0
          CFI Function MT_ZdoBeaconIndCB
          CFI Conditional ??CrossCallReturnLabel_69, ??CrossCallReturnLabel_18
          CFI R6 load(1, XDATA, add(CFA_XSP16, literal(-11)))
          CFI VB load(1, XDATA, add(CFA_XSP16, literal(-10)))
          CFI V0 load(1, XDATA, add(CFA_XSP16, literal(-9)))
          CFI V1 load(1, XDATA, add(CFA_XSP16, literal(-8)))
          CFI V2 load(1, XDATA, add(CFA_XSP16, literal(-7)))
          CFI R7 load(1, XDATA, add(CFA_XSP16, literal(-6)))
          CFI ?RET_LOW load(1, XDATA, add(CFA_XSP16, literal(-5)))
          CFI ?RET_HIGH load(1, XDATA, add(CFA_XSP16, literal(-4)))
          CFI ?BRET_EXT load(1, XDATA, add(CFA_XSP16, literal(-3)))
          CFI DPL0 load(1, XDATA, add(CFA_XSP16, literal(-2)))
          CFI DPH0 load(1, XDATA, add(CFA_XSP16, literal(-1)))
          CFI CFA_SP SP+-4
          CFI CFA_XSP16 add(XSP16, 11)
          CFI Block cfiCond197 Using cfiCommon0
          CFI (cfiCond197) Function MT_ZdoSendMsgCB
          CFI (cfiCond197) Conditional ??CrossCallReturnLabel_69, ??CrossCallReturnLabel_19
          CFI (cfiCond197) R6 load(1, XDATA, add(CFA_XSP16, literal(-19)))
          CFI (cfiCond197) VB load(1, XDATA, add(CFA_XSP16, literal(-18)))
          CFI (cfiCond197) V0 load(1, XDATA, add(CFA_XSP16, literal(-17)))
          CFI (cfiCond197) V1 load(1, XDATA, add(CFA_XSP16, literal(-16)))
          CFI (cfiCond197) V2 load(1, XDATA, add(CFA_XSP16, literal(-15)))
          CFI (cfiCond197) V3 load(1, XDATA, add(CFA_XSP16, literal(-14)))
          CFI (cfiCond197) V4 load(1, XDATA, add(CFA_XSP16, literal(-13)))
          CFI (cfiCond197) V5 load(1, XDATA, add(CFA_XSP16, literal(-12)))
          CFI (cfiCond197) V6 load(1, XDATA, add(CFA_XSP16, literal(-11)))
          CFI (cfiCond197) V7 load(1, XDATA, add(CFA_XSP16, literal(-10)))
          CFI (cfiCond197) V8 load(1, XDATA, add(CFA_XSP16, literal(-9)))
          CFI (cfiCond197) V9 load(1, XDATA, add(CFA_XSP16, literal(-8)))
          CFI (cfiCond197) V10 load(1, XDATA, add(CFA_XSP16, literal(-7)))
          CFI (cfiCond197) R7 load(1, XDATA, add(CFA_XSP16, literal(-6)))
          CFI (cfiCond197) ?RET_LOW load(1, XDATA, add(CFA_XSP16, literal(-5)))
          CFI (cfiCond197) ?RET_HIGH load(1, XDATA, add(CFA_XSP16, literal(-4)))
          CFI (cfiCond197) ?BRET_EXT load(1, XDATA, add(CFA_XSP16, literal(-3)))
          CFI (cfiCond197) DPL0 load(1, XDATA, add(CFA_XSP16, literal(-2)))
          CFI (cfiCond197) DPH0 load(1, XDATA, add(CFA_XSP16, literal(-1)))
          CFI (cfiCond197) CFA_SP SP+-4
          CFI (cfiCond197) CFA_XSP16 add(XSP16, 19)
          CFI Block cfiCond198 Using cfiCommon0
          CFI (cfiCond198) Function MT_ZdoBeaconIndCB
          CFI (cfiCond198) Conditional ??CrossCallReturnLabel_68, ??CrossCallReturnLabel_16
          CFI (cfiCond198) R6 load(1, XDATA, add(CFA_XSP16, literal(-11)))
          CFI (cfiCond198) VB load(1, XDATA, add(CFA_XSP16, literal(-10)))
          CFI (cfiCond198) V0 load(1, XDATA, add(CFA_XSP16, literal(-9)))
          CFI (cfiCond198) V1 load(1, XDATA, add(CFA_XSP16, literal(-8)))
          CFI (cfiCond198) V2 load(1, XDATA, add(CFA_XSP16, literal(-7)))
          CFI (cfiCond198) R7 load(1, XDATA, add(CFA_XSP16, literal(-6)))
          CFI (cfiCond198) ?RET_LOW load(1, XDATA, add(CFA_XSP16, literal(-5)))
          CFI (cfiCond198) ?RET_HIGH load(1, XDATA, add(CFA_XSP16, literal(-4)))
          CFI (cfiCond198) ?BRET_EXT load(1, XDATA, add(CFA_XSP16, literal(-3)))
          CFI (cfiCond198) DPL0 load(1, XDATA, add(CFA_XSP16, literal(-2)))
          CFI (cfiCond198) DPH0 load(1, XDATA, add(CFA_XSP16, literal(-1)))
          CFI (cfiCond198) CFA_SP SP+-4
          CFI (cfiCond198) CFA_XSP16 add(XSP16, 11)
          CFI Block cfiCond199 Using cfiCommon0
          CFI (cfiCond199) Function MT_ZdoSendMsgCB
          CFI (cfiCond199) Conditional ??CrossCallReturnLabel_68, ??CrossCallReturnLabel_17
          CFI (cfiCond199) R6 load(1, XDATA, add(CFA_XSP16, literal(-19)))
          CFI (cfiCond199) VB load(1, XDATA, add(CFA_XSP16, literal(-18)))
          CFI (cfiCond199) V0 load(1, XDATA, add(CFA_XSP16, literal(-17)))
          CFI (cfiCond199) V1 load(1, XDATA, add(CFA_XSP16, literal(-16)))
          CFI (cfiCond199) V2 load(1, XDATA, add(CFA_XSP16, literal(-15)))
          CFI (cfiCond199) V3 load(1, XDATA, add(CFA_XSP16, literal(-14)))
          CFI (cfiCond199) V4 load(1, XDATA, add(CFA_XSP16, literal(-13)))
          CFI (cfiCond199) V5 load(1, XDATA, add(CFA_XSP16, literal(-12)))
          CFI (cfiCond199) V6 load(1, XDATA, add(CFA_XSP16, literal(-11)))
          CFI (cfiCond199) V7 load(1, XDATA, add(CFA_XSP16, literal(-10)))
          CFI (cfiCond199) V8 load(1, XDATA, add(CFA_XSP16, literal(-9)))
          CFI (cfiCond199) V9 load(1, XDATA, add(CFA_XSP16, literal(-8)))
          CFI (cfiCond199) V10 load(1, XDATA, add(CFA_XSP16, literal(-7)))
          CFI (cfiCond199) R7 load(1, XDATA, add(CFA_XSP16, literal(-6)))
          CFI (cfiCond199) ?RET_LOW load(1, XDATA, add(CFA_XSP16, literal(-5)))
          CFI (cfiCond199) ?RET_HIGH load(1, XDATA, add(CFA_XSP16, literal(-4)))
          CFI (cfiCond199) ?BRET_EXT load(1, XDATA, add(CFA_XSP16, literal(-3)))
          CFI (cfiCond199) DPL0 load(1, XDATA, add(CFA_XSP16, literal(-2)))
          CFI (cfiCond199) DPH0 load(1, XDATA, add(CFA_XSP16, literal(-1)))
          CFI (cfiCond199) CFA_SP SP+-4
          CFI (cfiCond199) CFA_XSP16 add(XSP16, 19)
          CFI Block cfiPicker200 Using cfiCommon1
          CFI (cfiPicker200) NoFunction
          CFI (cfiPicker200) Picker
        LCALL   ?Subroutine37 & 0xFFFF
??CrossCallReturnLabel_73:
        RET
          CFI EndBlock cfiCond196
          CFI EndBlock cfiCond197
          CFI EndBlock cfiCond198
          CFI EndBlock cfiCond199
          CFI EndBlock cfiPicker200

        RSEG BANKED_CODE:CODE:NOROOT(0)
?Subroutine37:
          CFI Block cfiCond201 Using cfiCommon0
          CFI Function MT_ZdoBeaconIndCB
          CFI Conditional ??CrossCallReturnLabel_73, ??CrossCallReturnLabel_69, ??CrossCallReturnLabel_18
          CFI R6 load(1, XDATA, add(CFA_XSP16, literal(-11)))
          CFI VB load(1, XDATA, add(CFA_XSP16, literal(-10)))
          CFI V0 load(1, XDATA, add(CFA_XSP16, literal(-9)))
          CFI V1 load(1, XDATA, add(CFA_XSP16, literal(-8)))
          CFI V2 load(1, XDATA, add(CFA_XSP16, literal(-7)))
          CFI R7 load(1, XDATA, add(CFA_XSP16, literal(-6)))
          CFI ?RET_LOW load(1, XDATA, add(CFA_XSP16, literal(-5)))
          CFI ?RET_HIGH load(1, XDATA, add(CFA_XSP16, literal(-4)))
          CFI ?BRET_EXT load(1, XDATA, add(CFA_XSP16, literal(-3)))
          CFI DPL0 load(1, XDATA, add(CFA_XSP16, literal(-2)))
          CFI DPH0 load(1, XDATA, add(CFA_XSP16, literal(-1)))
          CFI CFA_SP SP+-6
          CFI CFA_XSP16 add(XSP16, 11)
          CFI Block cfiCond202 Using cfiCommon0
          CFI (cfiCond202) Function MT_ZdoSendMsgCB
          CFI (cfiCond202) Conditional ??CrossCallReturnLabel_73, ??CrossCallReturnLabel_69, ??CrossCallReturnLabel_19
          CFI (cfiCond202) R6 load(1, XDATA, add(CFA_XSP16, literal(-19)))
          CFI (cfiCond202) VB load(1, XDATA, add(CFA_XSP16, literal(-18)))
          CFI (cfiCond202) V0 load(1, XDATA, add(CFA_XSP16, literal(-17)))
          CFI (cfiCond202) V1 load(1, XDATA, add(CFA_XSP16, literal(-16)))
          CFI (cfiCond202) V2 load(1, XDATA, add(CFA_XSP16, literal(-15)))
          CFI (cfiCond202) V3 load(1, XDATA, add(CFA_XSP16, literal(-14)))
          CFI (cfiCond202) V4 load(1, XDATA, add(CFA_XSP16, literal(-13)))
          CFI (cfiCond202) V5 load(1, XDATA, add(CFA_XSP16, literal(-12)))
          CFI (cfiCond202) V6 load(1, XDATA, add(CFA_XSP16, literal(-11)))
          CFI (cfiCond202) V7 load(1, XDATA, add(CFA_XSP16, literal(-10)))
          CFI (cfiCond202) V8 load(1, XDATA, add(CFA_XSP16, literal(-9)))
          CFI (cfiCond202) V9 load(1, XDATA, add(CFA_XSP16, literal(-8)))
          CFI (cfiCond202) V10 load(1, XDATA, add(CFA_XSP16, literal(-7)))
          CFI (cfiCond202) R7 load(1, XDATA, add(CFA_XSP16, literal(-6)))
          CFI (cfiCond202) ?RET_LOW load(1, XDATA, add(CFA_XSP16, literal(-5)))
          CFI (cfiCond202) ?RET_HIGH load(1, XDATA, add(CFA_XSP16, literal(-4)))
          CFI (cfiCond202) ?BRET_EXT load(1, XDATA, add(CFA_XSP16, literal(-3)))
          CFI (cfiCond202) DPL0 load(1, XDATA, add(CFA_XSP16, literal(-2)))
          CFI (cfiCond202) DPH0 load(1, XDATA, add(CFA_XSP16, literal(-1)))
          CFI (cfiCond202) CFA_SP SP+-6
          CFI (cfiCond202) CFA_XSP16 add(XSP16, 19)
          CFI Block cfiCond203 Using cfiCommon0
          CFI (cfiCond203) Function MT_ZdoBeaconIndCB
          CFI (cfiCond203) Conditional ??CrossCallReturnLabel_73, ??CrossCallReturnLabel_68, ??CrossCallReturnLabel_16
          CFI (cfiCond203) R6 load(1, XDATA, add(CFA_XSP16, literal(-11)))
          CFI (cfiCond203) VB load(1, XDATA, add(CFA_XSP16, literal(-10)))
          CFI (cfiCond203) V0 load(1, XDATA, add(CFA_XSP16, literal(-9)))
          CFI (cfiCond203) V1 load(1, XDATA, add(CFA_XSP16, literal(-8)))
          CFI (cfiCond203) V2 load(1, XDATA, add(CFA_XSP16, literal(-7)))
          CFI (cfiCond203) R7 load(1, XDATA, add(CFA_XSP16, literal(-6)))
          CFI (cfiCond203) ?RET_LOW load(1, XDATA, add(CFA_XSP16, literal(-5)))
          CFI (cfiCond203) ?RET_HIGH load(1, XDATA, add(CFA_XSP16, literal(-4)))
          CFI (cfiCond203) ?BRET_EXT load(1, XDATA, add(CFA_XSP16, literal(-3)))
          CFI (cfiCond203) DPL0 load(1, XDATA, add(CFA_XSP16, literal(-2)))
          CFI (cfiCond203) DPH0 load(1, XDATA, add(CFA_XSP16, literal(-1)))
          CFI (cfiCond203) CFA_SP SP+-6
          CFI (cfiCond203) CFA_XSP16 add(XSP16, 11)
          CFI Block cfiCond204 Using cfiCommon0
          CFI (cfiCond204) Function MT_ZdoSendMsgCB
          CFI (cfiCond204) Conditional ??CrossCallReturnLabel_73, ??CrossCallReturnLabel_68, ??CrossCallReturnLabel_17
          CFI (cfiCond204) R6 load(1, XDATA, add(CFA_XSP16, literal(-19)))
          CFI (cfiCond204) VB load(1, XDATA, add(CFA_XSP16, literal(-18)))
          CFI (cfiCond204) V0 load(1, XDATA, add(CFA_XSP16, literal(-17)))
          CFI (cfiCond204) V1 load(1, XDATA, add(CFA_XSP16, literal(-16)))
          CFI (cfiCond204) V2 load(1, XDATA, add(CFA_XSP16, literal(-15)))
          CFI (cfiCond204) V3 load(1, XDATA, add(CFA_XSP16, literal(-14)))
          CFI (cfiCond204) V4 load(1, XDATA, add(CFA_XSP16, literal(-13)))
          CFI (cfiCond204) V5 load(1, XDATA, add(CFA_XSP16, literal(-12)))
          CFI (cfiCond204) V6 load(1, XDATA, add(CFA_XSP16, literal(-11)))
          CFI (cfiCond204) V7 load(1, XDATA, add(CFA_XSP16, literal(-10)))
          CFI (cfiCond204) V8 load(1, XDATA, add(CFA_XSP16, literal(-9)))
          CFI (cfiCond204) V9 load(1, XDATA, add(CFA_XSP16, literal(-8)))
          CFI (cfiCond204) V10 load(1, XDATA, add(CFA_XSP16, literal(-7)))
          CFI (cfiCond204) R7 load(1, XDATA, add(CFA_XSP16, literal(-6)))
          CFI (cfiCond204) ?RET_LOW load(1, XDATA, add(CFA_XSP16, literal(-5)))
          CFI (cfiCond204) ?RET_HIGH load(1, XDATA, add(CFA_XSP16, literal(-4)))
          CFI (cfiCond204) ?BRET_EXT load(1, XDATA, add(CFA_XSP16, literal(-3)))
          CFI (cfiCond204) DPL0 load(1, XDATA, add(CFA_XSP16, literal(-2)))
          CFI (cfiCond204) DPH0 load(1, XDATA, add(CFA_XSP16, literal(-1)))
          CFI (cfiCond204) CFA_SP SP+-6
          CFI (cfiCond204) CFA_XSP16 add(XSP16, 19)
          CFI Block cfiCond205 Using cfiCommon0
          CFI (cfiCond205) Function MT_ZdoBeaconIndCB
          CFI (cfiCond205) Conditional ??CrossCallReturnLabel_72, ??CrossCallReturnLabel_67, ??CrossCallReturnLabel_14
          CFI (cfiCond205) R6 load(1, XDATA, add(CFA_XSP16, literal(-11)))
          CFI (cfiCond205) VB load(1, XDATA, add(CFA_XSP16, literal(-10)))
          CFI (cfiCond205) V0 load(1, XDATA, add(CFA_XSP16, literal(-9)))
          CFI (cfiCond205) V1 load(1, XDATA, add(CFA_XSP16, literal(-8)))
          CFI (cfiCond205) V2 load(1, XDATA, add(CFA_XSP16, literal(-7)))
          CFI (cfiCond205) R7 load(1, XDATA, add(CFA_XSP16, literal(-6)))
          CFI (cfiCond205) ?RET_LOW load(1, XDATA, add(CFA_XSP16, literal(-5)))
          CFI (cfiCond205) ?RET_HIGH load(1, XDATA, add(CFA_XSP16, literal(-4)))
          CFI (cfiCond205) ?BRET_EXT load(1, XDATA, add(CFA_XSP16, literal(-3)))
          CFI (cfiCond205) DPL0 load(1, XDATA, add(CFA_XSP16, literal(-2)))
          CFI (cfiCond205) DPH0 load(1, XDATA, add(CFA_XSP16, literal(-1)))
          CFI (cfiCond205) CFA_SP SP+-6
          CFI (cfiCond205) CFA_XSP16 add(XSP16, 11)
          CFI Block cfiCond206 Using cfiCommon0
          CFI (cfiCond206) Function MT_ZdoBeaconIndCB
          CFI (cfiCond206) Conditional ??CrossCallReturnLabel_72, ??CrossCallReturnLabel_67, ??CrossCallReturnLabel_15
          CFI (cfiCond206) R6 load(1, XDATA, add(CFA_XSP16, literal(-11)))
          CFI (cfiCond206) VB load(1, XDATA, add(CFA_XSP16, literal(-10)))
          CFI (cfiCond206) V0 load(1, XDATA, add(CFA_XSP16, literal(-9)))
          CFI (cfiCond206) V1 load(1, XDATA, add(CFA_XSP16, literal(-8)))
          CFI (cfiCond206) V2 load(1, XDATA, add(CFA_XSP16, literal(-7)))
          CFI (cfiCond206) R7 load(1, XDATA, add(CFA_XSP16, literal(-6)))
          CFI (cfiCond206) ?RET_LOW load(1, XDATA, add(CFA_XSP16, literal(-5)))
          CFI (cfiCond206) ?RET_HIGH load(1, XDATA, add(CFA_XSP16, literal(-4)))
          CFI (cfiCond206) ?BRET_EXT load(1, XDATA, add(CFA_XSP16, literal(-3)))
          CFI (cfiCond206) DPL0 load(1, XDATA, add(CFA_XSP16, literal(-2)))
          CFI (cfiCond206) DPH0 load(1, XDATA, add(CFA_XSP16, literal(-1)))
          CFI (cfiCond206) CFA_SP SP+-6
          CFI (cfiCond206) CFA_XSP16 add(XSP16, 11)
          CFI Block cfiCond207 Using cfiCommon0
          CFI (cfiCond207) Function MT_ZdoBeaconIndCB
          CFI (cfiCond207) Conditional ??CrossCallReturnLabel_72, ??CrossCallReturnLabel_66, ??CrossCallReturnLabel_12
          CFI (cfiCond207) R6 load(1, XDATA, add(CFA_XSP16, literal(-11)))
          CFI (cfiCond207) VB load(1, XDATA, add(CFA_XSP16, literal(-10)))
          CFI (cfiCond207) V0 load(1, XDATA, add(CFA_XSP16, literal(-9)))
          CFI (cfiCond207) V1 load(1, XDATA, add(CFA_XSP16, literal(-8)))
          CFI (cfiCond207) V2 load(1, XDATA, add(CFA_XSP16, literal(-7)))
          CFI (cfiCond207) R7 load(1, XDATA, add(CFA_XSP16, literal(-6)))
          CFI (cfiCond207) ?RET_LOW load(1, XDATA, add(CFA_XSP16, literal(-5)))
          CFI (cfiCond207) ?RET_HIGH load(1, XDATA, add(CFA_XSP16, literal(-4)))
          CFI (cfiCond207) ?BRET_EXT load(1, XDATA, add(CFA_XSP16, literal(-3)))
          CFI (cfiCond207) DPL0 load(1, XDATA, add(CFA_XSP16, literal(-2)))
          CFI (cfiCond207) DPH0 load(1, XDATA, add(CFA_XSP16, literal(-1)))
          CFI (cfiCond207) CFA_SP SP+-6
          CFI (cfiCond207) CFA_XSP16 add(XSP16, 11)
          CFI Block cfiCond208 Using cfiCommon0
          CFI (cfiCond208) Function MT_ZdoSendMsgCB
          CFI (cfiCond208) Conditional ??CrossCallReturnLabel_72, ??CrossCallReturnLabel_66, ??CrossCallReturnLabel_13
          CFI (cfiCond208) R6 load(1, XDATA, add(CFA_XSP16, literal(-19)))
          CFI (cfiCond208) VB load(1, XDATA, add(CFA_XSP16, literal(-18)))
          CFI (cfiCond208) V0 load(1, XDATA, add(CFA_XSP16, literal(-17)))
          CFI (cfiCond208) V1 load(1, XDATA, add(CFA_XSP16, literal(-16)))
          CFI (cfiCond208) V2 load(1, XDATA, add(CFA_XSP16, literal(-15)))
          CFI (cfiCond208) V3 load(1, XDATA, add(CFA_XSP16, literal(-14)))
          CFI (cfiCond208) V4 load(1, XDATA, add(CFA_XSP16, literal(-13)))
          CFI (cfiCond208) V5 load(1, XDATA, add(CFA_XSP16, literal(-12)))
          CFI (cfiCond208) V6 load(1, XDATA, add(CFA_XSP16, literal(-11)))
          CFI (cfiCond208) V7 load(1, XDATA, add(CFA_XSP16, literal(-10)))
          CFI (cfiCond208) V8 load(1, XDATA, add(CFA_XSP16, literal(-9)))
          CFI (cfiCond208) V9 load(1, XDATA, add(CFA_XSP16, literal(-8)))
          CFI (cfiCond208) V10 load(1, XDATA, add(CFA_XSP16, literal(-7)))
          CFI (cfiCond208) R7 load(1, XDATA, add(CFA_XSP16, literal(-6)))
          CFI (cfiCond208) ?RET_LOW load(1, XDATA, add(CFA_XSP16, literal(-5)))
          CFI (cfiCond208) ?RET_HIGH load(1, XDATA, add(CFA_XSP16, literal(-4)))
          CFI (cfiCond208) ?BRET_EXT load(1, XDATA, add(CFA_XSP16, literal(-3)))
          CFI (cfiCond208) DPL0 load(1, XDATA, add(CFA_XSP16, literal(-2)))
          CFI (cfiCond208) DPH0 load(1, XDATA, add(CFA_XSP16, literal(-1)))
          CFI (cfiCond208) CFA_SP SP+-6
          CFI (cfiCond208) CFA_XSP16 add(XSP16, 19)
          CFI Block cfiPicker209 Using cfiCommon1
          CFI (cfiPicker209) NoFunction
          CFI (cfiPicker209) Picker
        LCALL   ?Subroutine38 & 0xFFFF
??CrossCallReturnLabel_75:
        INC     DPTR
        INC     DPTR
        RET
          CFI EndBlock cfiCond201
          CFI EndBlock cfiCond202
          CFI EndBlock cfiCond203
          CFI EndBlock cfiCond204
          CFI EndBlock cfiCond205
          CFI EndBlock cfiCond206
          CFI EndBlock cfiCond207
          CFI EndBlock cfiCond208
          CFI EndBlock cfiPicker209

        RSEG BANKED_CODE:CODE:NOROOT(0)
?Subroutine8:
          CFI Block cfiCond210 Using cfiCommon0
          CFI Function MT_ZdoBeaconIndCB
          CFI Conditional ??CrossCallReturnLabel_12
          CFI R6 load(1, XDATA, add(CFA_XSP16, literal(-11)))
          CFI VB load(1, XDATA, add(CFA_XSP16, literal(-10)))
          CFI V0 load(1, XDATA, add(CFA_XSP16, literal(-9)))
          CFI V1 load(1, XDATA, add(CFA_XSP16, literal(-8)))
          CFI V2 load(1, XDATA, add(CFA_XSP16, literal(-7)))
          CFI R7 load(1, XDATA, add(CFA_XSP16, literal(-6)))
          CFI ?RET_LOW load(1, XDATA, add(CFA_XSP16, literal(-5)))
          CFI ?RET_HIGH load(1, XDATA, add(CFA_XSP16, literal(-4)))
          CFI ?BRET_EXT load(1, XDATA, add(CFA_XSP16, literal(-3)))
          CFI DPL0 load(1, XDATA, add(CFA_XSP16, literal(-2)))
          CFI DPH0 load(1, XDATA, add(CFA_XSP16, literal(-1)))
          CFI CFA_SP SP+-2
          CFI CFA_XSP16 add(XSP16, 11)
          CFI Block cfiCond211 Using cfiCommon0
          CFI (cfiCond211) Function MT_ZdoSendMsgCB
          CFI (cfiCond211) Conditional ??CrossCallReturnLabel_13
          CFI (cfiCond211) R6 load(1, XDATA, add(CFA_XSP16, literal(-19)))
          CFI (cfiCond211) VB load(1, XDATA, add(CFA_XSP16, literal(-18)))
          CFI (cfiCond211) V0 load(1, XDATA, add(CFA_XSP16, literal(-17)))
          CFI (cfiCond211) V1 load(1, XDATA, add(CFA_XSP16, literal(-16)))
          CFI (cfiCond211) V2 load(1, XDATA, add(CFA_XSP16, literal(-15)))
          CFI (cfiCond211) V3 load(1, XDATA, add(CFA_XSP16, literal(-14)))
          CFI (cfiCond211) V4 load(1, XDATA, add(CFA_XSP16, literal(-13)))
          CFI (cfiCond211) V5 load(1, XDATA, add(CFA_XSP16, literal(-12)))
          CFI (cfiCond211) V6 load(1, XDATA, add(CFA_XSP16, literal(-11)))
          CFI (cfiCond211) V7 load(1, XDATA, add(CFA_XSP16, literal(-10)))
          CFI (cfiCond211) V8 load(1, XDATA, add(CFA_XSP16, literal(-9)))
          CFI (cfiCond211) V9 load(1, XDATA, add(CFA_XSP16, literal(-8)))
          CFI (cfiCond211) V10 load(1, XDATA, add(CFA_XSP16, literal(-7)))
          CFI (cfiCond211) R7 load(1, XDATA, add(CFA_XSP16, literal(-6)))
          CFI (cfiCond211) ?RET_LOW load(1, XDATA, add(CFA_XSP16, literal(-5)))
          CFI (cfiCond211) ?RET_HIGH load(1, XDATA, add(CFA_XSP16, literal(-4)))
          CFI (cfiCond211) ?BRET_EXT load(1, XDATA, add(CFA_XSP16, literal(-3)))
          CFI (cfiCond211) DPL0 load(1, XDATA, add(CFA_XSP16, literal(-2)))
          CFI (cfiCond211) DPH0 load(1, XDATA, add(CFA_XSP16, literal(-1)))
          CFI (cfiCond211) CFA_SP SP+-2
          CFI (cfiCond211) CFA_XSP16 add(XSP16, 19)
          CFI Block cfiPicker212 Using cfiCommon1
          CFI (cfiPicker212) NoFunction
          CFI (cfiPicker212) Picker
        LCALL   ?Subroutine31 & 0xFFFF
??CrossCallReturnLabel_66:
        MOVX    @DPTR,A
        RET
          CFI EndBlock cfiCond210
          CFI EndBlock cfiCond211
          CFI EndBlock cfiPicker212

        RSEG BANKED_CODE:CODE:NOROOT(0)
?Subroutine31:
          CFI Block cfiCond213 Using cfiCommon0
          CFI Function MT_ZdoBeaconIndCB
          CFI Conditional ??CrossCallReturnLabel_67, ??CrossCallReturnLabel_14
          CFI R6 load(1, XDATA, add(CFA_XSP16, literal(-11)))
          CFI VB load(1, XDATA, add(CFA_XSP16, literal(-10)))
          CFI V0 load(1, XDATA, add(CFA_XSP16, literal(-9)))
          CFI V1 load(1, XDATA, add(CFA_XSP16, literal(-8)))
          CFI V2 load(1, XDATA, add(CFA_XSP16, literal(-7)))
          CFI R7 load(1, XDATA, add(CFA_XSP16, literal(-6)))
          CFI ?RET_LOW load(1, XDATA, add(CFA_XSP16, literal(-5)))
          CFI ?RET_HIGH load(1, XDATA, add(CFA_XSP16, literal(-4)))
          CFI ?BRET_EXT load(1, XDATA, add(CFA_XSP16, literal(-3)))
          CFI DPL0 load(1, XDATA, add(CFA_XSP16, literal(-2)))
          CFI DPH0 load(1, XDATA, add(CFA_XSP16, literal(-1)))
          CFI CFA_SP SP+-4
          CFI CFA_XSP16 add(XSP16, 11)
          CFI Block cfiCond214 Using cfiCommon0
          CFI (cfiCond214) Function MT_ZdoBeaconIndCB
          CFI (cfiCond214) Conditional ??CrossCallReturnLabel_67, ??CrossCallReturnLabel_15
          CFI (cfiCond214) R6 load(1, XDATA, add(CFA_XSP16, literal(-11)))
          CFI (cfiCond214) VB load(1, XDATA, add(CFA_XSP16, literal(-10)))
          CFI (cfiCond214) V0 load(1, XDATA, add(CFA_XSP16, literal(-9)))
          CFI (cfiCond214) V1 load(1, XDATA, add(CFA_XSP16, literal(-8)))
          CFI (cfiCond214) V2 load(1, XDATA, add(CFA_XSP16, literal(-7)))
          CFI (cfiCond214) R7 load(1, XDATA, add(CFA_XSP16, literal(-6)))
          CFI (cfiCond214) ?RET_LOW load(1, XDATA, add(CFA_XSP16, literal(-5)))
          CFI (cfiCond214) ?RET_HIGH load(1, XDATA, add(CFA_XSP16, literal(-4)))
          CFI (cfiCond214) ?BRET_EXT load(1, XDATA, add(CFA_XSP16, literal(-3)))
          CFI (cfiCond214) DPL0 load(1, XDATA, add(CFA_XSP16, literal(-2)))
          CFI (cfiCond214) DPH0 load(1, XDATA, add(CFA_XSP16, literal(-1)))
          CFI (cfiCond214) CFA_SP SP+-4
          CFI (cfiCond214) CFA_XSP16 add(XSP16, 11)
          CFI Block cfiCond215 Using cfiCommon0
          CFI (cfiCond215) Function MT_ZdoBeaconIndCB
          CFI (cfiCond215) Conditional ??CrossCallReturnLabel_66, ??CrossCallReturnLabel_12
          CFI (cfiCond215) R6 load(1, XDATA, add(CFA_XSP16, literal(-11)))
          CFI (cfiCond215) VB load(1, XDATA, add(CFA_XSP16, literal(-10)))
          CFI (cfiCond215) V0 load(1, XDATA, add(CFA_XSP16, literal(-9)))
          CFI (cfiCond215) V1 load(1, XDATA, add(CFA_XSP16, literal(-8)))
          CFI (cfiCond215) V2 load(1, XDATA, add(CFA_XSP16, literal(-7)))
          CFI (cfiCond215) R7 load(1, XDATA, add(CFA_XSP16, literal(-6)))
          CFI (cfiCond215) ?RET_LOW load(1, XDATA, add(CFA_XSP16, literal(-5)))
          CFI (cfiCond215) ?RET_HIGH load(1, XDATA, add(CFA_XSP16, literal(-4)))
          CFI (cfiCond215) ?BRET_EXT load(1, XDATA, add(CFA_XSP16, literal(-3)))
          CFI (cfiCond215) DPL0 load(1, XDATA, add(CFA_XSP16, literal(-2)))
          CFI (cfiCond215) DPH0 load(1, XDATA, add(CFA_XSP16, literal(-1)))
          CFI (cfiCond215) CFA_SP SP+-4
          CFI (cfiCond215) CFA_XSP16 add(XSP16, 11)
          CFI Block cfiCond216 Using cfiCommon0
          CFI (cfiCond216) Function MT_ZdoSendMsgCB
          CFI (cfiCond216) Conditional ??CrossCallReturnLabel_66, ??CrossCallReturnLabel_13
          CFI (cfiCond216) R6 load(1, XDATA, add(CFA_XSP16, literal(-19)))
          CFI (cfiCond216) VB load(1, XDATA, add(CFA_XSP16, literal(-18)))
          CFI (cfiCond216) V0 load(1, XDATA, add(CFA_XSP16, literal(-17)))
          CFI (cfiCond216) V1 load(1, XDATA, add(CFA_XSP16, literal(-16)))
          CFI (cfiCond216) V2 load(1, XDATA, add(CFA_XSP16, literal(-15)))
          CFI (cfiCond216) V3 load(1, XDATA, add(CFA_XSP16, literal(-14)))
          CFI (cfiCond216) V4 load(1, XDATA, add(CFA_XSP16, literal(-13)))
          CFI (cfiCond216) V5 load(1, XDATA, add(CFA_XSP16, literal(-12)))
          CFI (cfiCond216) V6 load(1, XDATA, add(CFA_XSP16, literal(-11)))
          CFI (cfiCond216) V7 load(1, XDATA, add(CFA_XSP16, literal(-10)))
          CFI (cfiCond216) V8 load(1, XDATA, add(CFA_XSP16, literal(-9)))
          CFI (cfiCond216) V9 load(1, XDATA, add(CFA_XSP16, literal(-8)))
          CFI (cfiCond216) V10 load(1, XDATA, add(CFA_XSP16, literal(-7)))
          CFI (cfiCond216) R7 load(1, XDATA, add(CFA_XSP16, literal(-6)))
          CFI (cfiCond216) ?RET_LOW load(1, XDATA, add(CFA_XSP16, literal(-5)))
          CFI (cfiCond216) ?RET_HIGH load(1, XDATA, add(CFA_XSP16, literal(-4)))
          CFI (cfiCond216) ?BRET_EXT load(1, XDATA, add(CFA_XSP16, literal(-3)))
          CFI (cfiCond216) DPL0 load(1, XDATA, add(CFA_XSP16, literal(-2)))
          CFI (cfiCond216) DPH0 load(1, XDATA, add(CFA_XSP16, literal(-1)))
          CFI (cfiCond216) CFA_SP SP+-4
          CFI (cfiCond216) CFA_XSP16 add(XSP16, 19)
          CFI Block cfiPicker217 Using cfiCommon1
          CFI (cfiPicker217) NoFunction
          CFI (cfiPicker217) Picker
        INC     DPTR
        LCALL   ?Subroutine37 & 0xFFFF
??CrossCallReturnLabel_72:
        INC     DPTR
        INC     DPTR
        RET
          CFI EndBlock cfiCond213
          CFI EndBlock cfiCond214
          CFI EndBlock cfiCond215
          CFI EndBlock cfiCond216
          CFI EndBlock cfiPicker217

        RSEG BANKED_CODE:CODE:NOROOT(0)
?Subroutine4:
          CFI Block cfiCond218 Using cfiCommon0
          CFI Function MT_ZdoBeaconIndCB
          CFI Conditional ??CrossCallReturnLabel_2
          CFI R6 load(1, XDATA, add(CFA_XSP16, literal(-11)))
          CFI VB load(1, XDATA, add(CFA_XSP16, literal(-10)))
          CFI V0 load(1, XDATA, add(CFA_XSP16, literal(-9)))
          CFI V1 load(1, XDATA, add(CFA_XSP16, literal(-8)))
          CFI V2 load(1, XDATA, add(CFA_XSP16, literal(-7)))
          CFI R7 load(1, XDATA, add(CFA_XSP16, literal(-6)))
          CFI ?RET_LOW load(1, XDATA, add(CFA_XSP16, literal(-5)))
          CFI ?RET_HIGH load(1, XDATA, add(CFA_XSP16, literal(-4)))
          CFI ?BRET_EXT load(1, XDATA, add(CFA_XSP16, literal(-3)))
          CFI DPL0 load(1, XDATA, add(CFA_XSP16, literal(-2)))
          CFI DPH0 load(1, XDATA, add(CFA_XSP16, literal(-1)))
          CFI CFA_SP SP+-2
          CFI CFA_XSP16 add(XSP16, 11)
          CFI Block cfiCond219 Using cfiCommon0
          CFI (cfiCond219) Function MT_ZdoSendMsgCB
          CFI (cfiCond219) Conditional ??CrossCallReturnLabel_3
          CFI (cfiCond219) R6 load(1, XDATA, add(CFA_XSP16, literal(-19)))
          CFI (cfiCond219) VB load(1, XDATA, add(CFA_XSP16, literal(-18)))
          CFI (cfiCond219) V0 load(1, XDATA, add(CFA_XSP16, literal(-17)))
          CFI (cfiCond219) V1 load(1, XDATA, add(CFA_XSP16, literal(-16)))
          CFI (cfiCond219) V2 load(1, XDATA, add(CFA_XSP16, literal(-15)))
          CFI (cfiCond219) V3 load(1, XDATA, add(CFA_XSP16, literal(-14)))
          CFI (cfiCond219) V4 load(1, XDATA, add(CFA_XSP16, literal(-13)))
          CFI (cfiCond219) V5 load(1, XDATA, add(CFA_XSP16, literal(-12)))
          CFI (cfiCond219) V6 load(1, XDATA, add(CFA_XSP16, literal(-11)))
          CFI (cfiCond219) V7 load(1, XDATA, add(CFA_XSP16, literal(-10)))
          CFI (cfiCond219) V8 load(1, XDATA, add(CFA_XSP16, literal(-9)))
          CFI (cfiCond219) V9 load(1, XDATA, add(CFA_XSP16, literal(-8)))
          CFI (cfiCond219) V10 load(1, XDATA, add(CFA_XSP16, literal(-7)))
          CFI (cfiCond219) R7 load(1, XDATA, add(CFA_XSP16, literal(-6)))
          CFI (cfiCond219) ?RET_LOW load(1, XDATA, add(CFA_XSP16, literal(-5)))
          CFI (cfiCond219) ?RET_HIGH load(1, XDATA, add(CFA_XSP16, literal(-4)))
          CFI (cfiCond219) ?BRET_EXT load(1, XDATA, add(CFA_XSP16, literal(-3)))
          CFI (cfiCond219) DPL0 load(1, XDATA, add(CFA_XSP16, literal(-2)))
          CFI (cfiCond219) DPH0 load(1, XDATA, add(CFA_XSP16, literal(-1)))
          CFI (cfiCond219) CFA_SP SP+-2
          CFI (cfiCond219) CFA_XSP16 add(XSP16, 19)
          CFI Block cfiPicker220 Using cfiCommon1
          CFI (cfiPicker220) NoFunction
          CFI (cfiPicker220) Picker
        MOV     A,R6
        ADD     A,#0x2
        MOV     R0,A
        CLR     A
        ADDC    A,R7
        MOV     R1,A
        MOV     DPL,R0
        MOV     DPH,R1
        LCALL   ?Subroutine35 & 0xFFFF
??CrossCallReturnLabel_101:
        RET
          CFI EndBlock cfiCond218
          CFI EndBlock cfiCond219
          CFI EndBlock cfiPicker220

        RSEG BANKED_CODE:CODE:NOROOT(0)
?Subroutine35:
          CFI Block cfiCond221 Using cfiCommon0
          CFI Function MT_ZdoBeaconIndCB
          CFI Conditional ??CrossCallReturnLabel_100
          CFI R6 load(1, XDATA, add(CFA_XSP16, literal(-11)))
          CFI VB load(1, XDATA, add(CFA_XSP16, literal(-10)))
          CFI V0 load(1, XDATA, add(CFA_XSP16, literal(-9)))
          CFI V1 load(1, XDATA, add(CFA_XSP16, literal(-8)))
          CFI V2 load(1, XDATA, add(CFA_XSP16, literal(-7)))
          CFI R7 load(1, XDATA, add(CFA_XSP16, literal(-6)))
          CFI ?RET_LOW load(1, XDATA, add(CFA_XSP16, literal(-5)))
          CFI ?RET_HIGH load(1, XDATA, add(CFA_XSP16, literal(-4)))
          CFI ?BRET_EXT load(1, XDATA, add(CFA_XSP16, literal(-3)))
          CFI DPL0 load(1, XDATA, add(CFA_XSP16, literal(-2)))
          CFI DPH0 load(1, XDATA, add(CFA_XSP16, literal(-1)))
          CFI CFA_SP SP+-2
          CFI CFA_XSP16 add(XSP16, 11)
          CFI Block cfiCond222 Using cfiCommon0
          CFI (cfiCond222) Function MT_ZdoBeaconIndCB
          CFI (cfiCond222) Conditional ??CrossCallReturnLabel_103, ??CrossCallReturnLabel_98
          CFI (cfiCond222) R6 load(1, XDATA, add(CFA_XSP16, literal(-11)))
          CFI (cfiCond222) VB load(1, XDATA, add(CFA_XSP16, literal(-10)))
          CFI (cfiCond222) V0 load(1, XDATA, add(CFA_XSP16, literal(-9)))
          CFI (cfiCond222) V1 load(1, XDATA, add(CFA_XSP16, literal(-8)))
          CFI (cfiCond222) V2 load(1, XDATA, add(CFA_XSP16, literal(-7)))
          CFI (cfiCond222) R7 load(1, XDATA, add(CFA_XSP16, literal(-6)))
          CFI (cfiCond222) ?RET_LOW load(1, XDATA, add(CFA_XSP16, literal(-5)))
          CFI (cfiCond222) ?RET_HIGH load(1, XDATA, add(CFA_XSP16, literal(-4)))
          CFI (cfiCond222) ?BRET_EXT load(1, XDATA, add(CFA_XSP16, literal(-3)))
          CFI (cfiCond222) DPL0 load(1, XDATA, add(CFA_XSP16, literal(-2)))
          CFI (cfiCond222) DPH0 load(1, XDATA, add(CFA_XSP16, literal(-1)))
          CFI (cfiCond222) CFA_SP SP+-4
          CFI (cfiCond222) CFA_XSP16 add(XSP16, 11)
          CFI Block cfiCond223 Using cfiCommon0
          CFI (cfiCond223) Function MT_ZdoSendMsgCB
          CFI (cfiCond223) Conditional ??CrossCallReturnLabel_103, ??CrossCallReturnLabel_99
          CFI (cfiCond223) R6 load(1, XDATA, add(CFA_XSP16, literal(-19)))
          CFI (cfiCond223) VB load(1, XDATA, add(CFA_XSP16, literal(-18)))
          CFI (cfiCond223) V0 load(1, XDATA, add(CFA_XSP16, literal(-17)))
          CFI (cfiCond223) V1 load(1, XDATA, add(CFA_XSP16, literal(-16)))
          CFI (cfiCond223) V2 load(1, XDATA, add(CFA_XSP16, literal(-15)))
          CFI (cfiCond223) V3 load(1, XDATA, add(CFA_XSP16, literal(-14)))
          CFI (cfiCond223) V4 load(1, XDATA, add(CFA_XSP16, literal(-13)))
          CFI (cfiCond223) V5 load(1, XDATA, add(CFA_XSP16, literal(-12)))
          CFI (cfiCond223) V6 load(1, XDATA, add(CFA_XSP16, literal(-11)))
          CFI (cfiCond223) V7 load(1, XDATA, add(CFA_XSP16, literal(-10)))
          CFI (cfiCond223) V8 load(1, XDATA, add(CFA_XSP16, literal(-9)))
          CFI (cfiCond223) V9 load(1, XDATA, add(CFA_XSP16, literal(-8)))
          CFI (cfiCond223) V10 load(1, XDATA, add(CFA_XSP16, literal(-7)))
          CFI (cfiCond223) R7 load(1, XDATA, add(CFA_XSP16, literal(-6)))
          CFI (cfiCond223) ?RET_LOW load(1, XDATA, add(CFA_XSP16, literal(-5)))
          CFI (cfiCond223) ?RET_HIGH load(1, XDATA, add(CFA_XSP16, literal(-4)))
          CFI (cfiCond223) ?BRET_EXT load(1, XDATA, add(CFA_XSP16, literal(-3)))
          CFI (cfiCond223) DPL0 load(1, XDATA, add(CFA_XSP16, literal(-2)))
          CFI (cfiCond223) DPH0 load(1, XDATA, add(CFA_XSP16, literal(-1)))
          CFI (cfiCond223) CFA_SP SP+-4
          CFI (cfiCond223) CFA_XSP16 add(XSP16, 19)
          CFI Block cfiCond224 Using cfiCommon0
          CFI (cfiCond224) Function MT_ZdoSendMsgCB
          CFI (cfiCond224) Conditional ??CrossCallReturnLabel_103, ??CrossCallReturnLabel_97
          CFI (cfiCond224) R6 load(1, XDATA, add(CFA_XSP16, literal(-19)))
          CFI (cfiCond224) VB load(1, XDATA, add(CFA_XSP16, literal(-18)))
          CFI (cfiCond224) V0 load(1, XDATA, add(CFA_XSP16, literal(-17)))
          CFI (cfiCond224) V1 load(1, XDATA, add(CFA_XSP16, literal(-16)))
          CFI (cfiCond224) V2 load(1, XDATA, add(CFA_XSP16, literal(-15)))
          CFI (cfiCond224) V3 load(1, XDATA, add(CFA_XSP16, literal(-14)))
          CFI (cfiCond224) V4 load(1, XDATA, add(CFA_XSP16, literal(-13)))
          CFI (cfiCond224) V5 load(1, XDATA, add(CFA_XSP16, literal(-12)))
          CFI (cfiCond224) V6 load(1, XDATA, add(CFA_XSP16, literal(-11)))
          CFI (cfiCond224) V7 load(1, XDATA, add(CFA_XSP16, literal(-10)))
          CFI (cfiCond224) V8 load(1, XDATA, add(CFA_XSP16, literal(-9)))
          CFI (cfiCond224) V9 load(1, XDATA, add(CFA_XSP16, literal(-8)))
          CFI (cfiCond224) V10 load(1, XDATA, add(CFA_XSP16, literal(-7)))
          CFI (cfiCond224) R7 load(1, XDATA, add(CFA_XSP16, literal(-6)))
          CFI (cfiCond224) ?RET_LOW load(1, XDATA, add(CFA_XSP16, literal(-5)))
          CFI (cfiCond224) ?RET_HIGH load(1, XDATA, add(CFA_XSP16, literal(-4)))
          CFI (cfiCond224) ?BRET_EXT load(1, XDATA, add(CFA_XSP16, literal(-3)))
          CFI (cfiCond224) DPL0 load(1, XDATA, add(CFA_XSP16, literal(-2)))
          CFI (cfiCond224) DPH0 load(1, XDATA, add(CFA_XSP16, literal(-1)))
          CFI (cfiCond224) CFA_SP SP+-4
          CFI (cfiCond224) CFA_XSP16 add(XSP16, 19)
          CFI Block cfiCond225 Using cfiCommon0
          CFI (cfiCond225) Function MT_ZdoBeaconIndCB
          CFI (cfiCond225) Conditional ??CrossCallReturnLabel_102, ??CrossCallReturnLabel_24
          CFI (cfiCond225) R6 load(1, XDATA, add(CFA_XSP16, literal(-11)))
          CFI (cfiCond225) VB load(1, XDATA, add(CFA_XSP16, literal(-10)))
          CFI (cfiCond225) V0 load(1, XDATA, add(CFA_XSP16, literal(-9)))
          CFI (cfiCond225) V1 load(1, XDATA, add(CFA_XSP16, literal(-8)))
          CFI (cfiCond225) V2 load(1, XDATA, add(CFA_XSP16, literal(-7)))
          CFI (cfiCond225) R7 load(1, XDATA, add(CFA_XSP16, literal(-6)))
          CFI (cfiCond225) ?RET_LOW load(1, XDATA, add(CFA_XSP16, literal(-5)))
          CFI (cfiCond225) ?RET_HIGH load(1, XDATA, add(CFA_XSP16, literal(-4)))
          CFI (cfiCond225) ?BRET_EXT load(1, XDATA, add(CFA_XSP16, literal(-3)))
          CFI (cfiCond225) DPL0 load(1, XDATA, add(CFA_XSP16, literal(-2)))
          CFI (cfiCond225) DPH0 load(1, XDATA, add(CFA_XSP16, literal(-1)))
          CFI (cfiCond225) CFA_SP SP+-4
          CFI (cfiCond225) CFA_XSP16 add(XSP16, 11)
          CFI Block cfiCond226 Using cfiCommon0
          CFI (cfiCond226) Function MT_ZdoSendMsgCB
          CFI (cfiCond226) Conditional ??CrossCallReturnLabel_102, ??CrossCallReturnLabel_25
          CFI (cfiCond226) R6 load(1, XDATA, add(CFA_XSP16, literal(-19)))
          CFI (cfiCond226) VB load(1, XDATA, add(CFA_XSP16, literal(-18)))
          CFI (cfiCond226) V0 load(1, XDATA, add(CFA_XSP16, literal(-17)))
          CFI (cfiCond226) V1 load(1, XDATA, add(CFA_XSP16, literal(-16)))
          CFI (cfiCond226) V2 load(1, XDATA, add(CFA_XSP16, literal(-15)))
          CFI (cfiCond226) V3 load(1, XDATA, add(CFA_XSP16, literal(-14)))
          CFI (cfiCond226) V4 load(1, XDATA, add(CFA_XSP16, literal(-13)))
          CFI (cfiCond226) V5 load(1, XDATA, add(CFA_XSP16, literal(-12)))
          CFI (cfiCond226) V6 load(1, XDATA, add(CFA_XSP16, literal(-11)))
          CFI (cfiCond226) V7 load(1, XDATA, add(CFA_XSP16, literal(-10)))
          CFI (cfiCond226) V8 load(1, XDATA, add(CFA_XSP16, literal(-9)))
          CFI (cfiCond226) V9 load(1, XDATA, add(CFA_XSP16, literal(-8)))
          CFI (cfiCond226) V10 load(1, XDATA, add(CFA_XSP16, literal(-7)))
          CFI (cfiCond226) R7 load(1, XDATA, add(CFA_XSP16, literal(-6)))
          CFI (cfiCond226) ?RET_LOW load(1, XDATA, add(CFA_XSP16, literal(-5)))
          CFI (cfiCond226) ?RET_HIGH load(1, XDATA, add(CFA_XSP16, literal(-4)))
          CFI (cfiCond226) ?BRET_EXT load(1, XDATA, add(CFA_XSP16, literal(-3)))
          CFI (cfiCond226) DPL0 load(1, XDATA, add(CFA_XSP16, literal(-2)))
          CFI (cfiCond226) DPH0 load(1, XDATA, add(CFA_XSP16, literal(-1)))
          CFI (cfiCond226) CFA_SP SP+-4
          CFI (cfiCond226) CFA_XSP16 add(XSP16, 19)
          CFI Block cfiCond227 Using cfiCommon0
          CFI (cfiCond227) Function MT_ZdoBeaconIndCB
          CFI (cfiCond227) Conditional ??CrossCallReturnLabel_101, ??CrossCallReturnLabel_2
          CFI (cfiCond227) R6 load(1, XDATA, add(CFA_XSP16, literal(-11)))
          CFI (cfiCond227) VB load(1, XDATA, add(CFA_XSP16, literal(-10)))
          CFI (cfiCond227) V0 load(1, XDATA, add(CFA_XSP16, literal(-9)))
          CFI (cfiCond227) V1 load(1, XDATA, add(CFA_XSP16, literal(-8)))
          CFI (cfiCond227) V2 load(1, XDATA, add(CFA_XSP16, literal(-7)))
          CFI (cfiCond227) R7 load(1, XDATA, add(CFA_XSP16, literal(-6)))
          CFI (cfiCond227) ?RET_LOW load(1, XDATA, add(CFA_XSP16, literal(-5)))
          CFI (cfiCond227) ?RET_HIGH load(1, XDATA, add(CFA_XSP16, literal(-4)))
          CFI (cfiCond227) ?BRET_EXT load(1, XDATA, add(CFA_XSP16, literal(-3)))
          CFI (cfiCond227) DPL0 load(1, XDATA, add(CFA_XSP16, literal(-2)))
          CFI (cfiCond227) DPH0 load(1, XDATA, add(CFA_XSP16, literal(-1)))
          CFI (cfiCond227) CFA_SP SP+-4
          CFI (cfiCond227) CFA_XSP16 add(XSP16, 11)
          CFI Block cfiCond228 Using cfiCommon0
          CFI (cfiCond228) Function MT_ZdoSendMsgCB
          CFI (cfiCond228) Conditional ??CrossCallReturnLabel_101, ??CrossCallReturnLabel_3
          CFI (cfiCond228) R6 load(1, XDATA, add(CFA_XSP16, literal(-19)))
          CFI (cfiCond228) VB load(1, XDATA, add(CFA_XSP16, literal(-18)))
          CFI (cfiCond228) V0 load(1, XDATA, add(CFA_XSP16, literal(-17)))
          CFI (cfiCond228) V1 load(1, XDATA, add(CFA_XSP16, literal(-16)))
          CFI (cfiCond228) V2 load(1, XDATA, add(CFA_XSP16, literal(-15)))
          CFI (cfiCond228) V3 load(1, XDATA, add(CFA_XSP16, literal(-14)))
          CFI (cfiCond228) V4 load(1, XDATA, add(CFA_XSP16, literal(-13)))
          CFI (cfiCond228) V5 load(1, XDATA, add(CFA_XSP16, literal(-12)))
          CFI (cfiCond228) V6 load(1, XDATA, add(CFA_XSP16, literal(-11)))
          CFI (cfiCond228) V7 load(1, XDATA, add(CFA_XSP16, literal(-10)))
          CFI (cfiCond228) V8 load(1, XDATA, add(CFA_XSP16, literal(-9)))
          CFI (cfiCond228) V9 load(1, XDATA, add(CFA_XSP16, literal(-8)))
          CFI (cfiCond228) V10 load(1, XDATA, add(CFA_XSP16, literal(-7)))
          CFI (cfiCond228) R7 load(1, XDATA, add(CFA_XSP16, literal(-6)))
          CFI (cfiCond228) ?RET_LOW load(1, XDATA, add(CFA_XSP16, literal(-5)))
          CFI (cfiCond228) ?RET_HIGH load(1, XDATA, add(CFA_XSP16, literal(-4)))
          CFI (cfiCond228) ?BRET_EXT load(1, XDATA, add(CFA_XSP16, literal(-3)))
          CFI (cfiCond228) DPL0 load(1, XDATA, add(CFA_XSP16, literal(-2)))
          CFI (cfiCond228) DPH0 load(1, XDATA, add(CFA_XSP16, literal(-1)))
          CFI (cfiCond228) CFA_SP SP+-4
          CFI (cfiCond228) CFA_XSP16 add(XSP16, 19)
          CFI Block cfiPicker229 Using cfiCommon1
          CFI (cfiPicker229) NoFunction
          CFI (cfiPicker229) Picker
        MOVX    A,@DPTR
        MOV     DPL,R2
        MOV     DPH,R3
        RET
          CFI EndBlock cfiCond221
          CFI EndBlock cfiCond222
          CFI EndBlock cfiCond223
          CFI EndBlock cfiCond224
          CFI EndBlock cfiCond225
          CFI EndBlock cfiCond226
          CFI EndBlock cfiCond227
          CFI EndBlock cfiCond228
          CFI EndBlock cfiPicker229

        RSEG BANK_RELAYS:CODE:REORDER:NOROOT(0)
`??MT_ZdoInit::?relay`:
        CODE
        LCALL   ?BDISPATCH
        DATA24
        DC24    MT_ZdoInit

        RSEG BANK_RELAYS:CODE:REORDER:NOROOT(0)
`??MT_ZdoCommandProcessing::?relay`:
        CODE
        LCALL   ?BDISPATCH
        DATA24
        DC24    MT_ZdoCommandProcessing

        RSEG BANK_RELAYS:CODE:REORDER:NOROOT(0)
`??MT_ZdoMatchDescRequest::?relay`:
        CODE
        LCALL   ?BDISPATCH
        DATA24
        DC24    MT_ZdoMatchDescRequest

        RSEG BANK_RELAYS:CODE:REORDER:NOROOT(0)
`??MT_ZdoEndDevBindRequest::?relay`:
        CODE
        LCALL   ?BDISPATCH
        DATA24
        DC24    MT_ZdoEndDevBindRequest

        RSEG BANK_RELAYS:CODE:REORDER:NOROOT(0)
`??MT_ZdoBindRequest::?relay`:
        CODE
        LCALL   ?BDISPATCH
        DATA24
        DC24    MT_ZdoBindRequest

        RSEG BANK_RELAYS:CODE:REORDER:NOROOT(0)
`??MT_ZdoUnbindRequest::?relay`:
        CODE
        LCALL   ?BDISPATCH
        DATA24
        DC24    MT_ZdoUnbindRequest

        RSEG BANK_RELAYS:CODE:REORDER:NOROOT(0)
`??MT_ZdoSendData::?relay`:
        CODE
        LCALL   ?BDISPATCH
        DATA24
        DC24    MT_ZdoSendData

        RSEG BANK_RELAYS:CODE:REORDER:NOROOT(0)
`??MT_ZdoNwkAddrOfInterestReq::?relay`:
        CODE
        LCALL   ?BDISPATCH
        DATA24
        DC24    MT_ZdoNwkAddrOfInterestReq

        RSEG BANK_RELAYS:CODE:REORDER:NOROOT(0)
`??MT_ZdoNwkDiscoveryCnfCB::?relay`:
        CODE
        LCALL   ?BDISPATCH
        DATA24
        DC24    MT_ZdoNwkDiscoveryCnfCB

        RSEG BANK_RELAYS:CODE:REORDER:NOROOT(0)
`??MT_ZdoBeaconIndCB::?relay`:
        CODE
        LCALL   ?BDISPATCH
        DATA24
        DC24    MT_ZdoBeaconIndCB

        RSEG BANK_RELAYS:CODE:REORDER:NOROOT(0)
`??MT_ZdoJoinCnfCB::?relay`:
        CODE
        LCALL   ?BDISPATCH
        DATA24
        DC24    MT_ZdoJoinCnfCB

        RSEG BANK_RELAYS:CODE:REORDER:NOROOT(0)
`??MT_ZdoSendMsgCB::?relay`:
        CODE
        LCALL   ?BDISPATCH
        DATA24
        DC24    MT_ZdoSendMsgCB

        END
// 2519 
// 2520 
// 2521 #if defined ( MT_ZDO_EXTENSIONS )
// 2522 #if ( ZG_BUILD_COORDINATOR_TYPE )
// 2523 /***************************************************************************************************
// 2524  * @fn          MT_ZdoSecUpdateNwkKey
// 2525  *
// 2526  * @brief       Handle the ZDO Security Update Network Key extension message
// 2527  *
// 2528  * @param       pBuf - Pointer to the received message data.
// 2529  *
// 2530  * @return      NULL
// 2531  ***************************************************************************************************/
// 2532 static void MT_ZdoSecUpdateNwkKey( uint8 *pBuf )
// 2533 {
// 2534   uint16 dstAddr;
// 2535   uint8 keySeqNum;
// 2536   uint8 status;
// 2537 
// 2538   pBuf += MT_RPC_FRAME_HDR_SZ;
// 2539 
// 2540   dstAddr = osal_build_uint16( pBuf );
// 2541   pBuf += 2;
// 2542   keySeqNum = *pBuf++;
// 2543 
// 2544   status = ZDSecMgrUpdateNwkKey( pBuf, keySeqNum, dstAddr );
// 2545 
// 2546   MT_BuildAndSendZToolResponse(((uint8)MT_RPC_CMD_SRSP | (uint8)MT_RPC_SYS_ZDO),
// 2547                                        MT_ZDO_EXT_UPDATE_NWK_KEY, 1, &status );
// 2548 }
// 2549 
// 2550 /***************************************************************************************************
// 2551  * @fn          MT_ZdoSecSwitchNwkKey
// 2552  *
// 2553  * @brief       Handle the ZDO Security Switch Network Key extension message
// 2554  *
// 2555  * @param       pBuf - Pointer to the received message data.
// 2556  *
// 2557  * @return      NULL
// 2558  ***************************************************************************************************/
// 2559 static void MT_ZdoSecSwitchNwkKey( uint8 *pBuf )
// 2560 {
// 2561   uint16 dstAddr;
// 2562   uint8 keySeqNum;
// 2563   uint8 status;
// 2564 
// 2565   pBuf += MT_RPC_FRAME_HDR_SZ;
// 2566 
// 2567   dstAddr = osal_build_uint16( pBuf );
// 2568   pBuf += 2;
// 2569   keySeqNum = *pBuf++;
// 2570 
// 2571   status = ZDSecMgrSwitchNwkKey( keySeqNum, dstAddr );
// 2572 
// 2573   MT_BuildAndSendZToolResponse(((uint8)MT_RPC_CMD_SRSP | (uint8)MT_RPC_SYS_ZDO),
// 2574                                        MT_ZDO_EXT_SWITCH_NWK_KEY, 1, &status );
// 2575 }
// 2576 #endif // ZG_BUILD_COORDINATOR_TYPE
// 2577 
// 2578 /***************************************************************************************************
// 2579  * @fn          MT_ZdoSecAddLinkKey
// 2580  *
// 2581  * @brief       Handle the ZDO Security Add Link Key extension message
// 2582  *
// 2583  * @param       pBuf - Pointer to the received message data.
// 2584  *
// 2585  * @return      NULL
// 2586  ***************************************************************************************************/
// 2587 static void MT_ZdoSecAddLinkKey( uint8 *pBuf )
// 2588 {
// 2589   uint16 shortAddr;
// 2590   uint8 *pExtAddr;
// 2591   uint8 status;
// 2592 
// 2593   pBuf += MT_RPC_FRAME_HDR_SZ;
// 2594 
// 2595   shortAddr = osal_build_uint16( pBuf );
// 2596   pBuf += 2;
// 2597   pExtAddr = pBuf;
// 2598   pBuf += Z_EXTADDR_LEN;
// 2599 
// 2600   status = ZDSecMgrAddLinkKey( shortAddr, pExtAddr, pBuf );
// 2601 
// 2602   MT_BuildAndSendZToolResponse(((uint8)MT_RPC_CMD_SRSP | (uint8)MT_RPC_SYS_ZDO),
// 2603                                        MT_ZDO_SEC_ADD_LINK_KEY, 1, &status );
// 2604 }
// 2605 
// 2606 /***************************************************************************************************
// 2607  * @fn          MT_ZdoSecEntryLookupExt
// 2608  *
// 2609  * @brief       Handle the ZDO Security Entry Lookup Extended extension message
// 2610  *
// 2611  * @param       pBuf - Pointer to the received message data.
// 2612  *
// 2613  * @return      NULL
// 2614  ***************************************************************************************************/
// 2615 static void MT_ZdoSecEntryLookupExt( uint8 *pBuf )
// 2616 {
// 2617   ZDSecMgrEntry_t *pEntry = NULL;
// 2618   uint8 buf[6] = {0};
// 2619 
// 2620   pBuf += MT_RPC_FRAME_HDR_SZ;
// 2621 
// 2622   // lookup entry index for specified EXT address
// 2623   buf[0] = ZDSecMgrEntryLookupExt( pBuf, &pEntry );
// 2624   if ( pEntry )
// 2625   {
// 2626     buf[1] = LO_UINT16( pEntry->ami );
// 2627     buf[2] = HI_UINT16( pEntry->ami );
// 2628     buf[3] = LO_UINT16( pEntry->keyNvId );
// 2629     buf[4] = HI_UINT16( pEntry->keyNvId );
// 2630     buf[5] = (uint8)pEntry->authenticateOption;
// 2631   }
// 2632 
// 2633   MT_BuildAndSendZToolResponse(((uint8)MT_RPC_CMD_SRSP | (uint8)MT_RPC_SYS_ZDO),
// 2634                                        MT_ZDO_SEC_ENTRY_LOOKUP_EXT, 6, buf );
// 2635 }
// 2636 
// 2637 /***************************************************************************************************
// 2638  * @fn          MT_ZdoSecDeviceRemove
// 2639  *
// 2640  * @brief       Handle the ZDO Security Remove Device extension message
// 2641  *
// 2642  * @param       pBuf - Pointer to the received message data.
// 2643  *
// 2644  * @return      NULL
// 2645  ***************************************************************************************************/
// 2646 static void MT_ZdoSecDeviceRemove( uint8 *pBuf )
// 2647 {
// 2648   ZStatus_t status;
// 2649 
// 2650   pBuf += MT_RPC_FRAME_HDR_SZ;
// 2651 
// 2652   // lookup entry index for specified EXT address
// 2653   status = ZDSecMgrDeviceRemoveByExtAddr( pBuf );
// 2654 
// 2655   MT_BuildAndSendZToolResponse(((uint8)MT_RPC_CMD_SRSP | (uint8)MT_RPC_SYS_ZDO),
// 2656                                        MT_ZDO_SEC_DEVICE_REMOVE, 1, &status );
// 2657 }
// 2658 
// 2659 /***************************************************************************************************
// 2660  * @fn          MT_ZdoExtRouteDisc
// 2661  *
// 2662  * @brief       Handle the ZDO Route Discovery extension message
// 2663  *
// 2664  * @param       pBuf - Pointer to the received message data.
// 2665  *
// 2666  * @return      NULL
// 2667  ***************************************************************************************************/
// 2668 static void MT_ZdoExtRouteDisc( uint8 *pBuf )
// 2669 {
// 2670   ZStatus_t status;
// 2671   uint16 dstAddr;
// 2672 
// 2673   pBuf += MT_RPC_FRAME_HDR_SZ;
// 2674 
// 2675   dstAddr = osal_build_uint16( pBuf );
// 2676 
// 2677   status = NLME_RouteDiscoveryRequest( dstAddr, pBuf[2], pBuf[3] );
// 2678 
// 2679 
// 2680   MT_BuildAndSendZToolResponse(((uint8)MT_RPC_CMD_SRSP | (uint8)MT_RPC_SYS_ZDO),
// 2681                                        MT_ZDO_EXT_ROUTE_DISC, 1, &status );
// 2682 }
// 2683 
// 2684 /***************************************************************************************************
// 2685  * @fn          MT_ZdoExtRouteCheck
// 2686  *
// 2687  * @brief       Handle the ZDO Route Check extension message
// 2688  *
// 2689  * @param       pBuf - Pointer to the received message data.
// 2690  *
// 2691  * @return      NULL
// 2692  ***************************************************************************************************/
// 2693 static void MT_ZdoExtRouteCheck( uint8 *pBuf )
// 2694 {
// 2695   ZStatus_t status;
// 2696   uint16 dstAddr;
// 2697 
// 2698   pBuf += MT_RPC_FRAME_HDR_SZ;
// 2699 
// 2700   dstAddr = osal_build_uint16( pBuf );
// 2701 
// 2702   status = RTG_CheckRtStatus( dstAddr, pBuf[2], pBuf[3] );
// 2703 
// 2704   MT_BuildAndSendZToolResponse(((uint8)MT_RPC_CMD_SRSP | (uint8)MT_RPC_SYS_ZDO),
// 2705                                        MT_ZDO_EXT_ROUTE_CHECK, 1, &status );
// 2706 }
// 2707 
// 2708 /***************************************************************************************************
// 2709  * @fn          MT_ZdoExtRemoveGroup
// 2710  *
// 2711  * @brief       Handle the ZDO extension Remove Group message
// 2712  *
// 2713  * @param       pBuf - Pointer to the received message data.
// 2714  *
// 2715  * @return      NULL
// 2716  ***************************************************************************************************/
// 2717 static void MT_ZdoExtRemoveGroup( uint8 *pBuf )
// 2718 {
// 2719   ZStatus_t status;
// 2720   uint8 endpoint;
// 2721   uint16 groupID;
// 2722 
// 2723   pBuf += MT_RPC_FRAME_HDR_SZ;
// 2724 
// 2725   endpoint = *pBuf++;
// 2726   groupID = osal_build_uint16( pBuf );
// 2727 
// 2728   if ( aps_RemoveGroup( endpoint, groupID ) )
// 2729   {
// 2730     status = ZSuccess;
// 2731   }
// 2732   else
// 2733   {
// 2734     status = ZFailure;
// 2735   }
// 2736 
// 2737   MT_BuildAndSendZToolResponse(((uint8)MT_RPC_CMD_SRSP | (uint8)MT_RPC_SYS_ZDO),
// 2738                                        MT_ZDO_EXT_REMOVE_GROUP, 1, &status );
// 2739 }
// 2740 
// 2741 /***************************************************************************************************
// 2742  * @fn          MT_ZdoExtRemoveAllGroup
// 2743  *
// 2744  * @brief       Handle the ZDO extension Remove All Groups message
// 2745  *
// 2746  * @param       pBuf - Pointer to the received message data.
// 2747  *
// 2748  * @return      NULL
// 2749  ***************************************************************************************************/
// 2750 static void MT_ZdoExtRemoveAllGroup( uint8 *pBuf )
// 2751 {
// 2752   ZStatus_t status = ZSuccess;
// 2753 
// 2754   pBuf += MT_RPC_FRAME_HDR_SZ;
// 2755 
// 2756   aps_RemoveAllGroup( *pBuf );
// 2757 
// 2758   MT_BuildAndSendZToolResponse(((uint8)MT_RPC_CMD_SRSP | (uint8)MT_RPC_SYS_ZDO),
// 2759                                        MT_ZDO_EXT_REMOVE_GROUP, 1, &status );
// 2760 }
// 2761 
// 2762 /***************************************************************************************************
// 2763  * @fn          MT_ZdoExtFindAllGroupsEndpoint
// 2764  *
// 2765  * @brief       Handle the ZDO extension Find All Groups for Endpoint message
// 2766  *
// 2767  * @param       pBuf - Pointer to the received message data.
// 2768  *
// 2769  * @return      NULL
// 2770  ***************************************************************************************************/
// 2771 static void MT_ZdoExtFindAllGroupsEndpoint( uint8 *pBuf )
// 2772 {
// 2773   uint16 groupList[ APS_MAX_GROUPS ];
// 2774   uint8 groups;
// 2775   uint8 msgLen;
// 2776   uint8 *pMsg;
// 2777 
// 2778   pBuf += MT_RPC_FRAME_HDR_SZ;
// 2779 
// 2780   groups = aps_FindAllGroupsForEndpoint( *pBuf, groupList );
// 2781 
// 2782   msgLen = 1 + (2 * groups);
// 2783   pMsg = osal_mem_alloc( msgLen );
// 2784   if ( pMsg )
// 2785   {
// 2786     uint8 x;
// 2787     uint8 *pBuf = pMsg;
// 2788 
// 2789     *pBuf++ = groups;
// 2790     for ( x = 0; x < groups; x++ )
// 2791     {
// 2792       *pBuf++ = LO_UINT16( groupList[x] );
// 2793       *pBuf++ = HI_UINT16( groupList[x] );
// 2794     }
// 2795 
// 2796     MT_BuildAndSendZToolResponse(((uint8)MT_RPC_CMD_SRSP | (uint8)MT_RPC_SYS_ZDO),
// 2797                                        MT_ZDO_EXT_FIND_ALL_GROUPS_ENDPOINT, msgLen, pMsg );
// 2798     osal_mem_free( pMsg );
// 2799   }
// 2800   else
// 2801   {
// 2802     groups = 0;
// 2803     MT_BuildAndSendZToolResponse(((uint8)MT_RPC_CMD_SRSP | (uint8)MT_RPC_SYS_ZDO),
// 2804                                        MT_ZDO_EXT_FIND_ALL_GROUPS_ENDPOINT, 1, &groups );
// 2805   }
// 2806 }
// 2807 
// 2808 /***************************************************************************************************
// 2809  * @fn          MT_ZdoExtFindGroup
// 2810  *
// 2811  * @brief       Handle the ZDO extension Find Group message
// 2812  *
// 2813  * @param       pBuf - Pointer to the received message data.
// 2814  *
// 2815  * @return      NULL
// 2816  ***************************************************************************************************/
// 2817 static void MT_ZdoExtFindGroup( uint8 *pBuf )
// 2818 {
// 2819   uint8 endpoint;
// 2820   uint16 groupID;
// 2821   aps_Group_t *pGroup;
// 2822   uint8 buf[1+2+APS_GROUP_NAME_LEN] = {0};
// 2823 
// 2824   pBuf += MT_RPC_FRAME_HDR_SZ;
// 2825 
// 2826   endpoint = *pBuf++;
// 2827   groupID = osal_build_uint16( pBuf );
// 2828 
// 2829   pGroup = aps_FindGroup( endpoint, groupID );
// 2830   if ( pGroup  )
// 2831   {
// 2832     buf[0] = ZSuccess;
// 2833     buf[1] = LO_UINT16( pGroup->ID );
// 2834     buf[2] = HI_UINT16( pGroup->ID );
// 2835     buf[3] = pGroup->name[0];
// 2836     osal_memcpy( &buf[4], &pGroup->name[1], buf[3] );
// 2837   }
// 2838   else
// 2839   {
// 2840     buf[0] = ZFailure;
// 2841   }
// 2842 
// 2843   MT_BuildAndSendZToolResponse(((uint8)MT_RPC_CMD_SRSP | (uint8)MT_RPC_SYS_ZDO),
// 2844                       MT_ZDO_EXT_FIND_GROUP, (1+2+APS_GROUP_NAME_LEN), buf );
// 2845 }
// 2846 
// 2847 /***************************************************************************************************
// 2848  * @fn          MT_ZdoExtAddGroup
// 2849  *
// 2850  * @brief       Handle the ZDO extension Add Group message
// 2851  *
// 2852  * @param       pBuf - Pointer to the received message data.
// 2853  *
// 2854  * @return      NULL
// 2855  ***************************************************************************************************/
// 2856 static void MT_ZdoExtAddGroup( uint8 *pBuf )
// 2857 {
// 2858   ZStatus_t status = ZSuccess;
// 2859   aps_Group_t group = {0};
// 2860   uint8 endpoint;
// 2861 
// 2862   pBuf += MT_RPC_FRAME_HDR_SZ;
// 2863 
// 2864   endpoint = *pBuf++;
// 2865   group.ID = osal_build_uint16( pBuf );
// 2866   group.name[0] = pBuf[2];
// 2867   if ( group.name[0] > (APS_GROUP_NAME_LEN-1) )
// 2868   {
// 2869     group.name[0] = (APS_GROUP_NAME_LEN-1);
// 2870   }
// 2871 
// 2872   if (group.name[0] > 0 )
// 2873   {
// 2874     osal_memcpy( &group.name[1], &pBuf[3], group.name[0] );
// 2875   }
// 2876 
// 2877   status = aps_AddGroup( endpoint, &group );
// 2878 
// 2879   MT_BuildAndSendZToolResponse(((uint8)MT_RPC_CMD_SRSP | (uint8)MT_RPC_SYS_ZDO),
// 2880                                        MT_ZDO_EXT_ADD_GROUP, 1, &status );
// 2881 }
// 2882 
// 2883 /***************************************************************************************************
// 2884  * @fn          MT_ZdoExtCountAllGroups
// 2885  *
// 2886  * @brief       Handle the ZDO extension Count All Groups message
// 2887  *
// 2888  * @param       pBuf - Pointer to the received message data.
// 2889  *
// 2890  * @return      NULL
// 2891  ***************************************************************************************************/
// 2892 static void MT_ZdoExtCountAllGroups( uint8 *pBuf )
// 2893 {
// 2894   ZStatus_t status = 0;
// 2895 
// 2896   pBuf += MT_RPC_FRAME_HDR_SZ;
// 2897 
// 2898   status = (ZStatus_t)aps_CountAllGroups();
// 2899 
// 2900   MT_BuildAndSendZToolResponse(((uint8)MT_RPC_CMD_SRSP | (uint8)MT_RPC_SYS_ZDO),
// 2901                                        MT_ZDO_EXT_COUNT_ALL_GROUPS, 1, &status );
// 2902 }
// 2903 
// 2904 
// 2905 /***************************************************************************************************
// 2906  * @fn          MT_ZdoExtRxIdle
// 2907  *
// 2908  * @brief       Handle the ZDO extension Get/Set RxOnIdle to ZMac message
// 2909  *
// 2910  * @param       pBuf - Pointer to the received message data.
// 2911  *
// 2912  * @return      NULL
// 2913  ***************************************************************************************************/
// 2914 static void MT_ZdoExtRxIdle( uint8 *pBuf )
// 2915 {
// 2916   uint8 setFlag;
// 2917   uint8 setValue;
// 2918 
// 2919   pBuf += MT_RPC_FRAME_HDR_SZ;
// 2920 
// 2921   setFlag = *pBuf++;
// 2922   setValue = *pBuf++;
// 2923 
// 2924   if ( setFlag )
// 2925   {
// 2926     ZMacSetReq( ZMacRxOnIdle, &setValue );
// 2927   }
// 2928   else
// 2929   {
// 2930     ZMacGetReq( ZMacRxOnIdle, &setValue );
// 2931   }
// 2932 
// 2933   MT_BuildAndSendZToolResponse(((uint8)MT_RPC_CMD_SRSP | (uint8)MT_RPC_SYS_ZDO),
// 2934                                        MT_ZDO_EXT_RX_IDLE, 1, &setValue );
// 2935 }
// 2936 
// 2937 /***************************************************************************************************
// 2938  * @fn          MT_ZdoExtNwkInfo
// 2939  *
// 2940  * @brief       Handle the ZDO extension Network Info Request message
// 2941  *
// 2942  * @param       pBuf - Pointer to the received message data.
// 2943  *
// 2944  * @return      NULL
// 2945  ***************************************************************************************************/
// 2946 static void MT_ZdoExtNwkInfo( uint8 *pBuf )
// 2947 {
// 2948   uint8 buf[24];
// 2949   uint8 *pMsg;
// 2950 
// 2951   pMsg = buf;
// 2952 
// 2953   *pMsg++ = LO_UINT16( _NIB.nwkDevAddress );
// 2954   *pMsg++ = HI_UINT16( _NIB.nwkDevAddress );
// 2955 
// 2956   *pMsg++ = devState;
// 2957   *pMsg++ = LO_UINT16( _NIB.nwkPanId );
// 2958   *pMsg++ = HI_UINT16( _NIB.nwkPanId );
// 2959   *pMsg++ = LO_UINT16( _NIB.nwkCoordAddress );
// 2960   *pMsg++ = HI_UINT16( _NIB.nwkCoordAddress );
// 2961   osal_memcpy( pMsg, _NIB.extendedPANID, 8 );
// 2962   pMsg += 8;
// 2963   osal_memcpy( pMsg, _NIB.nwkCoordExtAddress, 8 );
// 2964   pMsg += 8;
// 2965   *pMsg++ = _NIB.nwkLogicalChannel;
// 2966 
// 2967   MT_BuildAndSendZToolResponse(((uint8)MT_RPC_CMD_SRSP | (uint8)MT_RPC_SYS_ZDO),
// 2968                                        MT_ZDO_EXT_NWK_INFO, 24, buf );
// 2969 }
// 2970 
// 2971 /***************************************************************************************************
// 2972  * @fn          MT_ZdoExtSecApsRemoveReq
// 2973  *
// 2974  * @brief       Handle the ZDO extension Security Manager APS Remove Request message
// 2975  *
// 2976  * @param       pBuf - Pointer to the received message data.
// 2977  *
// 2978  * @return      NULL
// 2979  ***************************************************************************************************/
// 2980 static void MT_ZdoExtSecApsRemoveReq( uint8 *pBuf )
// 2981 {
// 2982   ZStatus_t status = 0;
// 2983   uint16 parentAddr;
// 2984   uint16 nwkAddr;
// 2985 
// 2986   pBuf += MT_RPC_FRAME_HDR_SZ;
// 2987 
// 2988   if ( ZG_SECURE_ENABLED && ZG_BUILD_COORDINATOR_TYPE && ZG_DEVICE_COORDINATOR_TYPE )
// 2989   {
// 2990     parentAddr = osal_build_uint16( pBuf );
// 2991     pBuf += 2;
// 2992 
// 2993     nwkAddr = osal_build_uint16( pBuf );
// 2994     pBuf += 2;
// 2995 
// 2996     status = ZDSecMgrAPSRemove( nwkAddr, pBuf, parentAddr );
// 2997   }
// 2998   else
// 2999   {
// 3000     status = ZUnsupportedMode;
// 3001   }
// 3002 
// 3003   MT_BuildAndSendZToolResponse(((uint8)MT_RPC_CMD_SRSP | (uint8)MT_RPC_SYS_ZDO),
// 3004                                        MT_ZDO_EXT_SEC_APS_REMOVE_REQ, 1, &status );
// 3005 }
// 3006 
// 3007 /***************************************************************************************************
// 3008  * @fn          MT_ZdoExtSetParams
// 3009  *
// 3010  * @brief       Set Parameters not settable through NV.
// 3011  *
// 3012  * @param       pBuf - Pointer to the received message data.
// 3013  *
// 3014  * @return      NULL
// 3015  ***************************************************************************************************/
// 3016 static void MT_ZdoExtSetParams( uint8 *pBuf )
// 3017 {
// 3018   ZStatus_t status = ZSuccess;
// 3019   uint8 useMultiCast;
// 3020 
// 3021   pBuf += MT_RPC_FRAME_HDR_SZ;
// 3022 
// 3023   // Is the useMulticast in this message
// 3024   useMultiCast = *pBuf++;
// 3025   if ( useMultiCast & 0x80 )
// 3026   {
// 3027     if ( useMultiCast & 0x7F )
// 3028     {
// 3029       _NIB.nwkUseMultiCast = TRUE;
// 3030     }
// 3031     else
// 3032     {
// 3033       _NIB.nwkUseMultiCast = FALSE;
// 3034     }
// 3035   }
// 3036 
// 3037   MT_BuildAndSendZToolResponse(((uint8)MT_RPC_CMD_SRSP | (uint8)MT_RPC_SYS_ZDO),
// 3038                                        MT_ZDO_EXT_SET_PARAMS, 1, &status );
// 3039 }
// 3040 #endif // MT_ZDO_EXTENSIONS
// 3041 
// 3042 #endif   /*ZDO Command Processing in MT*/
// 3043 /***************************************************************************************************
// 3044 ***************************************************************************************************/
// 
// 3 820 bytes in segment BANKED_CODE
//    72 bytes in segment BANK_RELAYS
//     7 bytes in segment XDATA_Z
// 
// 3 892 bytes of CODE  memory
//     7 bytes of XDATA memory
//
//Errors: none
//Warnings: none
