///////////////////////////////////////////////////////////////////////////////
//
// IAR C/C++ Compiler V9.30.1.3056 for 8051               24/Aug/2016  23:14:20
// Copyright 2004-2015 IAR Systems AB.
//
//    Core               =  plain
//    Code model         =  banked
//    Data model         =  large
//    Calling convention =  xdata reentrant
//    Constant location  =  data_rom
//    Dptr setup         =  1,16
//                          
//    Source file        =  
//        C:\Texas Instruments\Z-Stack Home
//        1.2.2a.44539\Components\stack\zdo\ZDProfile.c
//    Command line       =  
//        -f "C:\Texas Instruments\Z-Stack Home
//        1.2.2a.44539\Projects\zstack\HomeAutomation\Zigbee-HomeAutomatic\CC2530DB\..\..\..\Tools\CC2530DB\f8wCoord.cfg"
//        (-DCPU32MHZ -DROOT=__near_func -DMAC_CFG_APP_PENDING_QUEUE=TRUE
//        -DMAC_CFG_TX_DATA_MAX=5 -DMAC_CFG_TX_MAX=8 -DMAC_CFG_RX_MAX=5
//        -DZDO_COORDINATOR -DRTR_NWK) -f "C:\Texas Instruments\Z-Stack Home
//        1.2.2a.44539\Projects\zstack\HomeAutomation\Zigbee-HomeAutomatic\CC2530DB\..\..\..\Tools\CC2530DB\f8wConfig.cfg"
//        (-DZIGBEEPRO -DSECURE=1 -DZG_SECURE_DYNAMIC=0 -DREFLECTOR
//        -DDEFAULT_CHANLIST=0x00000800 -DZDAPP_CONFIG_PAN_ID=0xFFFF
//        -DNWK_START_DELAY=100 -DEXTENDED_JOINING_RANDOM_MASK=0x007F
//        -DBEACON_REQUEST_DELAY=100 -DBEACON_REQ_DELAY_MASK=0x00FF
//        -DLINK_STATUS_JITTER_MASK=0x007F -DROUTE_EXPIRY_TIME=30
//        -DAPSC_ACK_WAIT_DURATION_POLLED=3000 -DNWK_INDIRECT_MSG_TIMEOUT=7
//        -DMAX_RREQ_ENTRIES=8 -DAPSC_MAX_FRAME_RETRIES=3
//        -DNWK_MAX_DATA_RETRIES=2 -DMAX_POLL_FAILURE_RETRIES=2 -DMAX_BCAST=9
//        -DAPS_MAX_GROUPS=16 -DMAX_RTG_ENTRIES=40 -DNWK_MAX_BINDING_ENTRIES=4
//        -DMAX_BINDING_CLUSTER_IDS=4 "-DDEFAULT_KEY={0x01, 0x03, 0x05, 0x07,
//        0x09, 0x0B, 0x0D, 0x0F, 0x00, 0x02, 0x04, 0x06, 0x08, 0x0A, 0x0C,
//        0x0D}" -DMAC_MAX_FRAME_SIZE=116 -DZDNWKMGR_MIN_TRANSMISSIONS=20
//        "-DCONST=const __code" -DGENERIC=__generic -DRFD_RCVC_ALWAYS_ON=FALSE
//        -DPOLL_RATE=1000 -DQUEUED_POLL_RATE=100 -DRESPONSE_POLL_RATE=100
//        -DREJOIN_POLL_RATE=440 -DREJOIN_BACKOFF=900000 -DREJOIN_SCAN=900000)
//        -f "C:\Texas Instruments\Z-Stack Home
//        1.2.2a.44539\Projects\zstack\HomeAutomation\Zigbee-HomeAutomatic\CC2530DB\..\..\..\Tools\CC2530DB\f8wZCL.cfg"
//        "C:\Texas Instruments\Z-Stack Home
//        1.2.2a.44539\Components\stack\zdo\ZDProfile.c" -D SECURE=1 -D
//        TC_LINKKEY_JOIN -D NV_INIT -D xNV_RESTORE -D xHOLD_AUTO_START -D
//        ZTOOL_P1 -D MT_TASK -D MT_APP_FUNC -D MT_SYS_FUNC -D MT_ZDO_FUNC -D
//        xLCD_SUPPORTED=DEBUG -D MULTICAST_ENABLED=FALSE -D ZCL_READ -D
//        ZCL_WRITE -D ZCL_REPORT -D ZCL_EZMODE -D ZCL_BASIC -D ZCL_IDENTIFY -D
//        ZCL_ON_OFF -D ZCL_SCENES -D ZCL_GROUPS -D xZCL_LEVEL_CTRL -D
//        ZCL_DIAGNOSTIC -D FEATURE_SYSTEM_STATS -lC "C:\Texas
//        Instruments\Z-Stack Home
//        1.2.2a.44539\Projects\zstack\HomeAutomation\Zigbee-HomeAutomatic\CC2530DB\CoordinatorEB\List"
//        -lA "C:\Texas Instruments\Z-Stack Home
//        1.2.2a.44539\Projects\zstack\HomeAutomation\Zigbee-HomeAutomatic\CC2530DB\CoordinatorEB\List"
//        --diag_suppress Pe001,Pa010 -o "C:\Texas Instruments\Z-Stack Home
//        1.2.2a.44539\Projects\zstack\HomeAutomation\Zigbee-HomeAutomatic\CC2530DB\CoordinatorEB\Obj"
//        -e --debug --core=plain --dptr=16,1 --data_model=large
//        --code_model=banked --calling_convention=xdata_reentrant
//        --place_constants=data_rom --nr_virtual_regs 16 -I "C:\Texas
//        Instruments\Z-Stack Home
//        1.2.2a.44539\Projects\zstack\HomeAutomation\Zigbee-HomeAutomatic\CC2530DB\"
//        -I "C:\Texas Instruments\Z-Stack Home
//        1.2.2a.44539\Projects\zstack\HomeAutomation\Zigbee-HomeAutomatic\CC2530DB\..\Source\"
//        -I "C:\Texas Instruments\Z-Stack Home
//        1.2.2a.44539\Projects\zstack\HomeAutomation\Zigbee-HomeAutomatic\CC2530DB\..\..\Source\"
//        -I "C:\Texas Instruments\Z-Stack Home
//        1.2.2a.44539\Projects\zstack\HomeAutomation\Zigbee-HomeAutomatic\CC2530DB\..\..\..\ZMain\TI2530DB\"
//        -I "C:\Texas Instruments\Z-Stack Home
//        1.2.2a.44539\Projects\zstack\HomeAutomation\Zigbee-HomeAutomatic\CC2530DB\..\..\..\..\..\Components\hal\include\"
//        -I "C:\Texas Instruments\Z-Stack Home
//        1.2.2a.44539\Projects\zstack\HomeAutomation\Zigbee-HomeAutomatic\CC2530DB\..\..\..\..\..\Components\hal\target\CC2530EB\"
//        -I "C:\Texas Instruments\Z-Stack Home
//        1.2.2a.44539\Projects\zstack\HomeAutomation\Zigbee-HomeAutomatic\CC2530DB\..\..\..\..\..\Components\mac\include\"
//        -I "C:\Texas Instruments\Z-Stack Home
//        1.2.2a.44539\Projects\zstack\HomeAutomation\Zigbee-HomeAutomatic\CC2530DB\..\..\..\..\..\Components\mac\high_level\"
//        -I "C:\Texas Instruments\Z-Stack Home
//        1.2.2a.44539\Projects\zstack\HomeAutomation\Zigbee-HomeAutomatic\CC2530DB\..\..\..\..\..\Components\mac\low_level\srf04\"
//        -I "C:\Texas Instruments\Z-Stack Home
//        1.2.2a.44539\Projects\zstack\HomeAutomation\Zigbee-HomeAutomatic\CC2530DB\..\..\..\..\..\Components\mac\low_level\srf04\single_chip\"
//        -I "C:\Texas Instruments\Z-Stack Home
//        1.2.2a.44539\Projects\zstack\HomeAutomation\Zigbee-HomeAutomatic\CC2530DB\..\..\..\..\..\Components\mt\"
//        -I "C:\Texas Instruments\Z-Stack Home
//        1.2.2a.44539\Projects\zstack\HomeAutomation\Zigbee-HomeAutomatic\CC2530DB\..\..\..\..\..\Components\osal\include\"
//        -I "C:\Texas Instruments\Z-Stack Home
//        1.2.2a.44539\Projects\zstack\HomeAutomation\Zigbee-HomeAutomatic\CC2530DB\..\..\..\..\..\Components\services\saddr\"
//        -I "C:\Texas Instruments\Z-Stack Home
//        1.2.2a.44539\Projects\zstack\HomeAutomation\Zigbee-HomeAutomatic\CC2530DB\..\..\..\..\..\Components\services\sdata\"
//        -I "C:\Texas Instruments\Z-Stack Home
//        1.2.2a.44539\Projects\zstack\HomeAutomation\Zigbee-HomeAutomatic\CC2530DB\..\..\..\..\..\Components\stack\af\"
//        -I "C:\Texas Instruments\Z-Stack Home
//        1.2.2a.44539\Projects\zstack\HomeAutomation\Zigbee-HomeAutomatic\CC2530DB\..\..\..\..\..\Components\stack\nwk\"
//        -I "C:\Texas Instruments\Z-Stack Home
//        1.2.2a.44539\Projects\zstack\HomeAutomation\Zigbee-HomeAutomatic\CC2530DB\..\..\..\..\..\Components\stack\sapi\"
//        -I "C:\Texas Instruments\Z-Stack Home
//        1.2.2a.44539\Projects\zstack\HomeAutomation\Zigbee-HomeAutomatic\CC2530DB\..\..\..\..\..\Components\stack\sec\"
//        -I "C:\Texas Instruments\Z-Stack Home
//        1.2.2a.44539\Projects\zstack\HomeAutomation\Zigbee-HomeAutomatic\CC2530DB\..\..\..\..\..\Components\stack\sys\"
//        -I "C:\Texas Instruments\Z-Stack Home
//        1.2.2a.44539\Projects\zstack\HomeAutomation\Zigbee-HomeAutomatic\CC2530DB\..\..\..\..\..\Components\stack\zcl\"
//        -I "C:\Texas Instruments\Z-Stack Home
//        1.2.2a.44539\Projects\zstack\HomeAutomation\Zigbee-HomeAutomatic\CC2530DB\..\..\..\..\..\Components\stack\zdo\"
//        -I "C:\Texas Instruments\Z-Stack Home
//        1.2.2a.44539\Projects\zstack\HomeAutomation\Zigbee-HomeAutomatic\CC2530DB\..\..\..\..\..\Components\zmac\"
//        -I "C:\Texas Instruments\Z-Stack Home
//        1.2.2a.44539\Projects\zstack\HomeAutomation\Zigbee-HomeAutomatic\CC2530DB\..\..\..\..\..\Components\zmac\f8w\"
//        -Ohz --require_prototypes
//    List file          =  
//        C:\Texas Instruments\Z-Stack Home
//        1.2.2a.44539\Projects\zstack\HomeAutomation\Zigbee-HomeAutomatic\CC2530DB\CoordinatorEB\List\ZDProfile.s51
//
///////////////////////////////////////////////////////////////////////////////

        NAME ZDProfile

        RTMODEL "__SystemLibrary", "CLib"
        RTMODEL "__calling_convention", "xdata_reentrant"
        RTMODEL "__code_model", "banked"
        RTMODEL "__core", "plain"
        RTMODEL "__data_model", "large"
        RTMODEL "__dptr_size", "16"
        RTMODEL "__extended_stack", "disabled"
        RTMODEL "__location_for_constants", "data"
        RTMODEL "__number_of_dptrs", "1"
        RTMODEL "__rt_version", "1"

        RSEG DOVERLAY:DATA:NOROOT(0)
        RSEG IOVERLAY:IDATA:NOROOT(0)
        RSEG ISTACK:IDATA:NOROOT(0)
        RSEG PSTACK:XDATA:NOROOT(0)
        RSEG XSTACK:XDATA:NOROOT(0)

        EXTERN ?V0
        EXTERN ?V1
        EXTERN ?V2
        EXTERN ?V3
        EXTERN ?V4
        EXTERN ?V5
        EXTERN ?V6
        EXTERN ?V7
        EXTERN ?V8
        EXTERN ?V10
        EXTERN ?V11
        EXTERN ?V9
        EXTERN ?V12
        EXTERN ?V13
        EXTERN ?ALLOC_XSTACK8
        EXTERN ?BANKED_ENTER_XDATA
        EXTERN ?BANKED_LEAVE_XDATA
        EXTERN ?BDISPATCH
        EXTERN ?CALL_IND
        EXTERN ?DEALLOC_XSTACK8
        EXTERN ?PUSH_XSTACK8_X_FOUR
        EXTERN ?PUSH_XSTACK8_X_TWO
        EXTERN ?PUSH_XSTACK_I_ONE
        EXTERN ?PUSH_XSTACK_I_THREE
        EXTERN ?PUSH_XSTACK_I_TWO
        EXTERN ?S_SHL
        EXTERN ?US_SHR
        EXTERN ?XSP
        EXTERN ?XSTACK_DISP0_8
        EXTERN ?XSTACK_DISP101_8
        EXTERN ?XSTACK_DISP102_8
        EXTERN __INIT_XDATA_I
        EXTERN __INIT_XDATA_Z

        PUBLIC `??ZDO_RegisterForZDOMsg::?relay`
        FUNCTION `??ZDO_RegisterForZDOMsg::?relay`,0203H
        PUBLIC `??ZDO_RemoveRegisteredCB::?relay`
        FUNCTION `??ZDO_RemoveRegisteredCB::?relay`,0203H
        PUBLIC `??ZDO_SendMsgCBs::?relay`
        FUNCTION `??ZDO_SendMsgCBs::?relay`,0203H
        PUBLIC `??ZDP_BindUnbindReq::?relay`
        FUNCTION `??ZDP_BindUnbindReq::?relay`,0203H
        PUBLIC `??ZDP_DeviceAnnce::?relay`
        FUNCTION `??ZDP_DeviceAnnce::?relay`,0203H
        PUBLIC `??ZDP_EPRsp::?relay`
        FUNCTION `??ZDP_EPRsp::?relay`,0203H
        PUBLIC `??ZDP_EndDeviceBindReq::?relay`
        FUNCTION `??ZDP_EndDeviceBindReq::?relay`,0203H
        PUBLIC `??ZDP_GenericRsp::?relay`
        FUNCTION `??ZDP_GenericRsp::?relay`,0203H
        PUBLIC `??ZDP_IEEEAddrReq::?relay`
        FUNCTION `??ZDP_IEEEAddrReq::?relay`,0203H
        PUBLIC `??ZDP_IncomingData::?relay`
        FUNCTION `??ZDP_IncomingData::?relay`,0203H
        PUBLIC `??ZDP_MatchDescReq::?relay`
        FUNCTION `??ZDP_MatchDescReq::?relay`,0203H
        PUBLIC `??ZDP_MgmtBindRsp::?relay`
        FUNCTION `??ZDP_MgmtBindRsp::?relay`,0203H
        PUBLIC `??ZDP_MgmtDirectJoinReq::?relay`
        FUNCTION `??ZDP_MgmtDirectJoinReq::?relay`,0203H
        PUBLIC `??ZDP_MgmtLeaveReq::?relay`
        FUNCTION `??ZDP_MgmtLeaveReq::?relay`,0203H
        PUBLIC `??ZDP_MgmtLqiRsp::?relay`
        FUNCTION `??ZDP_MgmtLqiRsp::?relay`,0203H
        PUBLIC `??ZDP_MgmtNwkDiscReq::?relay`
        FUNCTION `??ZDP_MgmtNwkDiscReq::?relay`,0203H
        PUBLIC `??ZDP_MgmtNwkDiscRsp::?relay`
        FUNCTION `??ZDP_MgmtNwkDiscRsp::?relay`,0203H
        PUBLIC `??ZDP_MgmtNwkUpdateNotify::?relay`
        FUNCTION `??ZDP_MgmtNwkUpdateNotify::?relay`,0203H
        PUBLIC `??ZDP_MgmtNwkUpdateReq::?relay`
        FUNCTION `??ZDP_MgmtNwkUpdateReq::?relay`,0203H
        PUBLIC `??ZDP_MgmtPermitJoinReq::?relay`
        FUNCTION `??ZDP_MgmtPermitJoinReq::?relay`,0203H
        PUBLIC `??ZDP_MgmtRtgRsp::?relay`
        FUNCTION `??ZDP_MgmtRtgRsp::?relay`,0203H
        PUBLIC `??ZDP_NWKAddrOfInterestReq::?relay`
        FUNCTION `??ZDP_NWKAddrOfInterestReq::?relay`,0203H
        PUBLIC `??ZDP_NodeDescMsg::?relay`
        FUNCTION `??ZDP_NodeDescMsg::?relay`,0203H
        PUBLIC `??ZDP_NwkAddrReq::?relay`
        FUNCTION `??ZDP_NwkAddrReq::?relay`,0203H
        PUBLIC `??ZDP_ParentAnnce::?relay`
        FUNCTION `??ZDP_ParentAnnce::?relay`,0203H
        PUBLIC `??ZDP_PowerDescMsg::?relay`
        FUNCTION `??ZDP_PowerDescMsg::?relay`,0203H
        PUBLIC `??ZDP_SendData::?relay`
        FUNCTION `??ZDP_SendData::?relay`,0203H
        PUBLIC `??ZDP_ServerDiscReq::?relay`
        FUNCTION `??ZDP_ServerDiscReq::?relay`,0203H
        PUBLIC `??ZDP_ServerDiscRsp::?relay`
        FUNCTION `??ZDP_ServerDiscRsp::?relay`,0203H
        PUBLIC `??ZDP_SimpleDescMsg::?relay`
        FUNCTION `??ZDP_SimpleDescMsg::?relay`,0203H
        PUBLIC `??ZDP_SimpleDescReq::?relay`
        FUNCTION `??ZDP_SimpleDescReq::?relay`,0203H
        PUBLIC `??ZDP_UserDescRsp::?relay`
        FUNCTION `??ZDP_UserDescRsp::?relay`,0203H
        PUBLIC `??ZDP_UserDescSet::?relay`
        FUNCTION `??ZDP_UserDescSet::?relay`,0203H
        FUNCTION `??fillAndSend::?relay`,0203H
        PUBLIC `??zdpProcessAddrReq::?relay`
        FUNCTION `??zdpProcessAddrReq::?relay`,0203H
        PUBLIC ZDO_RegisterForZDOMsg
        FUNCTION ZDO_RegisterForZDOMsg,0a1203H
        ARGFRAME XSTACK, 0, STACK
        LOCFRAME ISTACK, 1, STACK
        LOCFRAME XSTACK, 14, STACK
        PUBLIC ZDO_RemoveRegisteredCB
        FUNCTION ZDO_RemoveRegisteredCB,021203H
        ARGFRAME XSTACK, 0, STACK
        LOCFRAME XSTACK, 9, STACK
        PUBLIC ZDO_SendMsgCBs
        FUNCTION ZDO_SendMsgCBs,0a1203H
        ARGFRAME XSTACK, 33, STACK
        ARGFRAME IOVERLAY, 0, STATIC
        ARGFRAME DOVERLAY, 0, STATIC
        LOCFRAME XSTACK, 21, STACK
        PUBLIC ZDP_AF_ENDPOINT
        PUBLIC ZDP_BindUnbindReq
        FUNCTION ZDP_BindUnbindReq,0a1203H
        ARGFRAME XSTACK, 8, STACK
        LOCFRAME ISTACK, 1, STACK
        LOCFRAME XSTACK, 20, STACK
        PUBLIC ZDP_DeviceAnnce
        FUNCTION ZDP_DeviceAnnce,0a1203H
        ARGFRAME XSTACK, 1, STACK
        LOCFRAME ISTACK, 1, STACK
        LOCFRAME XSTACK, 21, STACK
        PUBLIC ZDP_EPRsp
        FUNCTION ZDP_EPRsp,0a1203H
        ARGFRAME XSTACK, 7, STACK
        LOCFRAME ISTACK, 1, STACK
        LOCFRAME XSTACK, 19, STACK
        PUBLIC ZDP_EndDeviceBindReq
        FUNCTION ZDP_EndDeviceBindReq,0a1203H
        ARGFRAME XSTACK, 9, STACK
        LOCFRAME ISTACK, 1, STACK
        LOCFRAME XSTACK, 20, STACK
        PUBLIC ZDP_GenericRsp
        FUNCTION ZDP_GenericRsp,021203H
        ARGFRAME XSTACK, 4, STACK
        LOCFRAME ISTACK, 1, STACK
        LOCFRAME XSTACK, 12, STACK
        PUBLIC ZDP_IEEEAddrReq
        FUNCTION ZDP_IEEEAddrReq,0a1203H
        ARGFRAME XSTACK, 0, STACK
        LOCFRAME ISTACK, 1, STACK
        LOCFRAME XSTACK, 21, STACK
        PUBLIC ZDP_IncomingData
        FUNCTION ZDP_IncomingData,0a1203H
        ARGFRAME XSTACK, 0, STACK
        LOCFRAME ISTACK, 1, STACK
        LOCFRAME XSTACK, 33, STACK
        PUBLIC ZDP_MatchDescReq
        FUNCTION ZDP_MatchDescReq,0a1203H
        ARGFRAME XSTACK, 8, STACK
        LOCFRAME ISTACK, 1, STACK
        LOCFRAME XSTACK, 16, STACK
        PUBLIC ZDP_MgmtBindRsp
        FUNCTION ZDP_MgmtBindRsp,0a1203H
        ARGFRAME XSTACK, 5, STACK
        LOCFRAME ISTACK, 1, STACK
        LOCFRAME XSTACK, 25, STACK
        PUBLIC ZDP_MgmtDirectJoinReq
        FUNCTION ZDP_MgmtDirectJoinReq,0a1203H
        ARGFRAME XSTACK, 1, STACK
        LOCFRAME ISTACK, 1, STACK
        LOCFRAME XSTACK, 14, STACK
        PUBLIC ZDP_MgmtLeaveReq
        FUNCTION ZDP_MgmtLeaveReq,0a1203H
        ARGFRAME XSTACK, 2, STACK
        LOCFRAME XSTACK, 14, STACK
        PUBLIC ZDP_MgmtLqiRsp
        FUNCTION ZDP_MgmtLqiRsp,0a1203H
        ARGFRAME XSTACK, 5, STACK
        LOCFRAME ISTACK, 1, STACK
        LOCFRAME XSTACK, 24, STACK
        PUBLIC ZDP_MgmtNwkDiscReq
        FUNCTION ZDP_MgmtNwkDiscReq,0a1203H
        ARGFRAME XSTACK, 4, STACK
        LOCFRAME ISTACK, 1, STACK
        LOCFRAME XSTACK, 16, STACK
        PUBLIC ZDP_MgmtNwkDiscRsp
        FUNCTION ZDP_MgmtNwkDiscRsp,0a1203H
        ARGFRAME XSTACK, 5, STACK
        LOCFRAME ISTACK, 1, STACK
        LOCFRAME XSTACK, 25, STACK
        PUBLIC ZDP_MgmtNwkUpdateNotify
        FUNCTION ZDP_MgmtNwkUpdateNotify,0a1203H
        ARGFRAME XSTACK, 12, STACK
        LOCFRAME ISTACK, 1, STACK
        LOCFRAME XSTACK, 23, STACK
        PUBLIC ZDP_MgmtNwkUpdateReq
        FUNCTION ZDP_MgmtNwkUpdateReq,0a1203H
        ARGFRAME XSTACK, 6, STACK
        LOCFRAME ISTACK, 1, STACK
        LOCFRAME XSTACK, 18, STACK
        PUBLIC ZDP_MgmtPermitJoinReq
        FUNCTION ZDP_MgmtPermitJoinReq,0a1203H
        ARGFRAME XSTACK, 0, STACK
        LOCFRAME ISTACK, 1, STACK
        LOCFRAME XSTACK, 23, STACK
        PUBLIC ZDP_MgmtRtgRsp
        FUNCTION ZDP_MgmtRtgRsp,0a1203H
        ARGFRAME XSTACK, 5, STACK
        LOCFRAME ISTACK, 1, STACK
        LOCFRAME XSTACK, 23, STACK
        PUBLIC ZDP_NWKAddrOfInterestReq
        FUNCTION ZDP_NWKAddrOfInterestReq,0a1203H
        ARGFRAME XSTACK, 1, STACK
        LOCFRAME ISTACK, 1, STACK
        LOCFRAME XSTACK, 12, STACK
        PUBLIC ZDP_NodeDescMsg
        FUNCTION ZDP_NodeDescMsg,0a1203H
        ARGFRAME XSTACK, 2, STACK
        LOCFRAME ISTACK, 1, STACK
        LOCFRAME XSTACK, 12, STACK
        PUBLIC ZDP_NwkAddrReq
        FUNCTION ZDP_NwkAddrReq,0a1203H
        ARGFRAME XSTACK, 0, STACK
        LOCFRAME ISTACK, 1, STACK
        LOCFRAME XSTACK, 23, STACK
        PUBLIC ZDP_ParentAnnce
        FUNCTION ZDP_ParentAnnce,0a1203H
        ARGFRAME XSTACK, 5, STACK
        LOCFRAME ISTACK, 1, STACK
        LOCFRAME XSTACK, 24, STACK
        PUBLIC ZDP_PowerDescMsg
        FUNCTION ZDP_PowerDescMsg,0a1203H
        ARGFRAME XSTACK, 2, STACK
        LOCFRAME ISTACK, 1, STACK
        LOCFRAME XSTACK, 12, STACK
        PUBLIC ZDP_SendData
        FUNCTION ZDP_SendData,0a1203H
        ARGFRAME XSTACK, 5, STACK
        LOCFRAME ISTACK, 1, STACK
        LOCFRAME XSTACK, 14, STACK
        PUBLIC ZDP_ServerDiscReq
        FUNCTION ZDP_ServerDiscReq,0a1203H
        ARGFRAME XSTACK, 0, STACK
        LOCFRAME ISTACK, 1, STACK
        LOCFRAME XSTACK, 21, STACK
        PUBLIC ZDP_ServerDiscRsp
        FUNCTION ZDP_ServerDiscRsp,0a1203H
        ARGFRAME XSTACK, 4, STACK
        LOCFRAME ISTACK, 1, STACK
        LOCFRAME XSTACK, 13, STACK
        PUBLIC ZDP_SimpleDescMsg
        FUNCTION ZDP_SimpleDescMsg,0a1203H
        ARGFRAME XSTACK, 0, STACK
        LOCFRAME ISTACK, 1, STACK
        LOCFRAME XSTACK, 22, STACK
        PUBLIC ZDP_SimpleDescReq
        FUNCTION ZDP_SimpleDescReq,0a1203H
        ARGFRAME XSTACK, 1, STACK
        LOCFRAME ISTACK, 1, STACK
        LOCFRAME XSTACK, 12, STACK
        PUBLIC ZDP_TransID
        PUBLIC ZDP_TxOptions
        PUBLIC ZDP_UserDescRsp
        FUNCTION ZDP_UserDescRsp,0a1203H
        ARGFRAME XSTACK, 3, STACK
        LOCFRAME ISTACK, 1, STACK
        LOCFRAME XSTACK, 22, STACK
        PUBLIC ZDP_UserDescSet
        FUNCTION ZDP_UserDescSet,0a1203H
        ARGFRAME XSTACK, 2, STACK
        LOCFRAME ISTACK, 1, STACK
        LOCFRAME XSTACK, 18, STACK
        FUNCTION fillAndSend,0a1203H
        ARGFRAME XSTACK, 38, STACK
        ARGFRAME IOVERLAY, 0, STATIC
        ARGFRAME DOVERLAY, 0, STATIC
        LOCFRAME ISTACK, 1, STACK
        LOCFRAME XSTACK, 35, STACK
        PUBLIC zdoMsgCBs
        PUBLIC zdpMsgProcs
        PUBLIC zdpProcessAddrReq
        FUNCTION zdpProcessAddrReq,0a1603H
        ARGFRAME XSTACK, 0, STACK
        LOCFRAME ISTACK, 1, STACK
        LOCFRAME XSTACK, 38, STACK
        
          CFI Names cfiNames0
          CFI StackFrame CFA_SP SP IDATA
          CFI StackFrame CFA_PSP16 PSP16 XDATA
          CFI StackFrame CFA_XSP16 XSP16 XDATA
          CFI StaticOverlayFrame CFA_IOVERLAY IOVERLAY
          CFI StaticOverlayFrame CFA_DOVERLAY DOVERLAY
          CFI Resource `PSW.CY`:1, `B.BR0`:1, `B.BR1`:1, `B.BR2`:1, `B.BR3`:1
          CFI Resource `B.BR4`:1, `B.BR5`:1, `B.BR6`:1, `B.BR7`:1, `VB.BR8`:1
          CFI Resource `VB.BR9`:1, `VB.BR10`:1, `VB.BR11`:1, `VB.BR12`:1
          CFI Resource `VB.BR13`:1, `VB.BR14`:1, `VB.BR15`:1, VB:8, B:8, A:8
          CFI Resource PSW:8, DPL0:8, DPH0:8, R0:8, R1:8, R2:8, R3:8, R4:8, R5:8
          CFI Resource R6:8, R7:8, V0:8, V1:8, V2:8, V3:8, V4:8, V5:8, V6:8, V7:8
          CFI Resource V8:8, V9:8, V10:8, V11:8, V12:8, V13:8, V14:8, V15:8, SP:8
          CFI Resource PSPH:8, PSPL:8, PSP16:16, XSPH:8, XSPL:8, XSP16:16
          CFI VirtualResource ?RET:24
          CFI Resource ?BRET_EXT:8
          CFI VirtualResource ?RET_HIGH:8, ?RET_LOW:8
          CFI ResourceParts PSP16 PSPH, PSPL
          CFI ResourceParts XSP16 XSPH, XSPL
          CFI ResourceParts ?RET ?BRET_EXT, ?RET_HIGH, ?RET_LOW
          CFI EndNames cfiNames0
        
          CFI Common cfiCommon0 Using cfiNames0
          CFI CodeAlign 1
          CFI DataAlign -1
          CFI ReturnAddress ?RET CODE
          CFI CFA_DOVERLAY Used
          CFI CFA_IOVERLAY Used
          CFI CFA_SP SP+-3
          CFI CFA_PSP16 PSP16+0
          CFI CFA_XSP16 XSP16+0
          CFI `PSW.CY` SameValue
          CFI `B.BR0` SameValue
          CFI `B.BR1` SameValue
          CFI `B.BR2` SameValue
          CFI `B.BR3` SameValue
          CFI `B.BR4` SameValue
          CFI `B.BR5` SameValue
          CFI `B.BR6` SameValue
          CFI `B.BR7` SameValue
          CFI `VB.BR8` SameValue
          CFI `VB.BR9` SameValue
          CFI `VB.BR10` SameValue
          CFI `VB.BR11` SameValue
          CFI `VB.BR12` SameValue
          CFI `VB.BR13` SameValue
          CFI `VB.BR14` SameValue
          CFI `VB.BR15` SameValue
          CFI VB SameValue
          CFI B Undefined
          CFI A Undefined
          CFI PSW SameValue
          CFI DPL0 SameValue
          CFI DPH0 SameValue
          CFI R0 Undefined
          CFI R1 Undefined
          CFI R2 Undefined
          CFI R3 Undefined
          CFI R4 Undefined
          CFI R5 Undefined
          CFI R6 SameValue
          CFI R7 SameValue
          CFI V0 SameValue
          CFI V1 SameValue
          CFI V2 SameValue
          CFI V3 SameValue
          CFI V4 SameValue
          CFI V5 SameValue
          CFI V6 SameValue
          CFI V7 SameValue
          CFI V8 SameValue
          CFI V9 SameValue
          CFI V10 SameValue
          CFI V11 SameValue
          CFI V12 SameValue
          CFI V13 SameValue
          CFI V14 SameValue
          CFI V15 SameValue
          CFI PSPH Undefined
          CFI PSPL Undefined
          CFI XSPH Undefined
          CFI XSPL Undefined
          CFI ?RET Concat
          CFI ?BRET_EXT Frame(CFA_SP, 3)
          CFI ?RET_HIGH Frame(CFA_SP, 2)
          CFI ?RET_LOW Frame(CFA_SP, 1)
          CFI EndCommon cfiCommon0
        
        
          CFI Common cfiCommon1 Using cfiNames0
          CFI CodeAlign 1
          CFI DataAlign -1
          CFI ReturnAddress ?RET CODE
          CFI CFA_DOVERLAY Used
          CFI CFA_IOVERLAY Used
          CFI CFA_SP SP+-2
          CFI CFA_PSP16 PSP16+0
          CFI CFA_XSP16 XSP16+0
          CFI `PSW.CY` SameValue
          CFI `B.BR0` SameValue
          CFI `B.BR1` SameValue
          CFI `B.BR2` SameValue
          CFI `B.BR3` SameValue
          CFI `B.BR4` SameValue
          CFI `B.BR5` SameValue
          CFI `B.BR6` SameValue
          CFI `B.BR7` SameValue
          CFI `VB.BR8` SameValue
          CFI `VB.BR9` SameValue
          CFI `VB.BR10` SameValue
          CFI `VB.BR11` SameValue
          CFI `VB.BR12` SameValue
          CFI `VB.BR13` SameValue
          CFI `VB.BR14` SameValue
          CFI `VB.BR15` SameValue
          CFI VB SameValue
          CFI B SameValue
          CFI A SameValue
          CFI PSW SameValue
          CFI DPL0 SameValue
          CFI DPH0 SameValue
          CFI R0 SameValue
          CFI R1 SameValue
          CFI R2 SameValue
          CFI R3 SameValue
          CFI R4 SameValue
          CFI R5 SameValue
          CFI R6 SameValue
          CFI R7 SameValue
          CFI V0 SameValue
          CFI V1 SameValue
          CFI V2 SameValue
          CFI V3 SameValue
          CFI V4 SameValue
          CFI V5 SameValue
          CFI V6 SameValue
          CFI V7 SameValue
          CFI V8 SameValue
          CFI V9 SameValue
          CFI V10 SameValue
          CFI V11 SameValue
          CFI V12 SameValue
          CFI V13 SameValue
          CFI V14 SameValue
          CFI V15 SameValue
          CFI PSPH Undefined
          CFI PSPL Undefined
          CFI XSPH Undefined
          CFI XSPL Undefined
          CFI ?RET Concat
          CFI ?BRET_EXT SameValue
          CFI ?RET_HIGH Frame(CFA_SP, 2)
          CFI ?RET_LOW Frame(CFA_SP, 1)
          CFI EndCommon cfiCommon1
        
AF_DataRequest      SYMBOL "AF_DataRequest"
`??AF_DataRequest::?relay` SYMBOL "?relay", AF_DataRequest
AddrMgrEntryGet     SYMBOL "AddrMgrEntryGet"
`??AddrMgrEntryGet::?relay` SYMBOL "?relay", AddrMgrEntryGet
AssocGetWithExt     SYMBOL "AssocGetWithExt"
`??AssocGetWithExt::?relay` SYMBOL "?relay", AssocGetWithExt
AssocGetWithShort   SYMBOL "AssocGetWithShort"
`??AssocGetWithShort::?relay` SYMBOL "?relay", AssocGetWithShort
AssocMakeList       SYMBOL "AssocMakeList"
`??AssocMakeList::?relay` SYMBOL "?relay", AssocMakeList
NLME_GetExtAddr     SYMBOL "NLME_GetExtAddr"
`??NLME_GetExtAddr::?relay` SYMBOL "?relay", NLME_GetExtAddr
NLME_GetShortAddr   SYMBOL "NLME_GetShortAddr"
`??NLME_GetShortAddr::?relay` SYMBOL "?relay", NLME_GetShortAddr
ZDApp_InMsgCB       SYMBOL "ZDApp_InMsgCB"
`??ZDApp_InMsgCB::?relay` SYMBOL "?relay", ZDApp_InMsgCB
`?<Name ZDO_ProcessActiveEPR 16>` SYMBOL "ZDO_ProcessActiveEPReq"
`??ZDO_ProcessActiveEPReq::?relay` SYMBOL "?relay", `?<Name ZDO_ProcessActiveEPR 16>`
`?<Name ZDO_ProcessDeviceAnn 18>` SYMBOL "ZDO_ProcessDeviceAnnce"
`??ZDO_ProcessDeviceAnnce::?relay` SYMBOL "?relay", `?<Name ZDO_ProcessDeviceAnn 18>`
`?<Name ZDO_ProcessMatchDesc 20>` SYMBOL "ZDO_ProcessMatchDescReq"
`??ZDO_ProcessMatchDescReq::?relay` SYMBOL "?relay", `?<Name ZDO_ProcessMatchDesc 20>`
`?<Name ZDO_ProcessNodeDescR 22>` SYMBOL "ZDO_ProcessNodeDescReq"
`??ZDO_ProcessNodeDescReq::?relay` SYMBOL "?relay", `?<Name ZDO_ProcessNodeDescR 22>`
`?<Name ZDO_ProcessParentAnn 24>` SYMBOL "ZDO_ProcessParentAnnce"
`??ZDO_ProcessParentAnnce::?relay` SYMBOL "?relay", `?<Name ZDO_ProcessParentAnn 24>`
`?<Name ZDO_ProcessParentAnn 26>` SYMBOL "ZDO_ProcessParentAnnceRsp"
`??ZDO_ProcessParentAnnceRsp::?relay` SYMBOL "?relay", `?<Name ZDO_ProcessParentAnn 26>`
`?<Name ZDO_ProcessPowerDesc 28>` SYMBOL "ZDO_ProcessPowerDescReq"
`??ZDO_ProcessPowerDescReq::?relay` SYMBOL "?relay", `?<Name ZDO_ProcessPowerDesc 28>`
`?<Name ZDO_ProcessServerDis 30>` SYMBOL "ZDO_ProcessServerDiscReq"
`??ZDO_ProcessServerDiscReq::?relay` SYMBOL "?relay", `?<Name ZDO_ProcessServerDis 30>`
`?<Name ZDO_ProcessSimpleDes 32>` SYMBOL "ZDO_ProcessSimpleDescReq"
`??ZDO_ProcessSimpleDescReq::?relay` SYMBOL "?relay", `?<Name ZDO_ProcessSimpleDes 32>`
`?<Name ZDO_ProcessUserDescR 34>` SYMBOL "ZDO_ProcessUserDescReq"
`??ZDO_ProcessUserDescReq::?relay` SYMBOL "?relay", `?<Name ZDO_ProcessUserDescR 34>`
`?<Name ZDO_ProcessUserDescS 36>` SYMBOL "ZDO_ProcessUserDescSet"
`??ZDO_ProcessUserDescSet::?relay` SYMBOL "?relay", `?<Name ZDO_ProcessUserDescS 36>`
osal_buffer_uint32  SYMBOL "osal_buffer_uint32"
`??osal_buffer_uint32::?relay` SYMBOL "?relay", osal_buffer_uint32
osal_mem_alloc      SYMBOL "osal_mem_alloc"
`??osal_mem_alloc::?relay` SYMBOL "?relay", osal_mem_alloc
osal_mem_free       SYMBOL "osal_mem_free"
`??osal_mem_free::?relay` SYMBOL "?relay", osal_mem_free
osal_memcpy         SYMBOL "osal_memcpy"
`??osal_memcpy::?relay` SYMBOL "?relay", osal_memcpy
osal_memset         SYMBOL "osal_memset"
`??osal_memset::?relay` SYMBOL "?relay", osal_memset
osal_msg_allocate   SYMBOL "osal_msg_allocate"
`??osal_msg_allocate::?relay` SYMBOL "?relay", osal_msg_allocate
osal_msg_send       SYMBOL "osal_msg_send"
`??osal_msg_send::?relay` SYMBOL "?relay", osal_msg_send
sAddrExtCmp         SYMBOL "sAddrExtCmp"
`??sAddrExtCmp::?relay` SYMBOL "?relay", sAddrExtCmp
sAddrExtCpy         SYMBOL "sAddrExtCpy"
`??sAddrExtCpy::?relay` SYMBOL "?relay", sAddrExtCpy
ZDO_RegisterForZDOMsg SYMBOL "ZDO_RegisterForZDOMsg"
`??ZDO_RegisterForZDOMsg::?relay` SYMBOL "?relay", ZDO_RegisterForZDOMsg
ZDO_RemoveRegisteredCB SYMBOL "ZDO_RemoveRegisteredCB"
`??ZDO_RemoveRegisteredCB::?relay` SYMBOL "?relay", ZDO_RemoveRegisteredCB
ZDO_SendMsgCBs      SYMBOL "ZDO_SendMsgCBs"
`??ZDO_SendMsgCBs::?relay` SYMBOL "?relay", ZDO_SendMsgCBs
ZDP_BindUnbindReq   SYMBOL "ZDP_BindUnbindReq"
`??ZDP_BindUnbindReq::?relay` SYMBOL "?relay", ZDP_BindUnbindReq
ZDP_DeviceAnnce     SYMBOL "ZDP_DeviceAnnce"
`??ZDP_DeviceAnnce::?relay` SYMBOL "?relay", ZDP_DeviceAnnce
ZDP_EPRsp           SYMBOL "ZDP_EPRsp"
`??ZDP_EPRsp::?relay` SYMBOL "?relay", ZDP_EPRsp
ZDP_EndDeviceBindReq SYMBOL "ZDP_EndDeviceBindReq"
`??ZDP_EndDeviceBindReq::?relay` SYMBOL "?relay", ZDP_EndDeviceBindReq
ZDP_GenericRsp      SYMBOL "ZDP_GenericRsp"
`??ZDP_GenericRsp::?relay` SYMBOL "?relay", ZDP_GenericRsp
ZDP_IEEEAddrReq     SYMBOL "ZDP_IEEEAddrReq"
`??ZDP_IEEEAddrReq::?relay` SYMBOL "?relay", ZDP_IEEEAddrReq
ZDP_IncomingData    SYMBOL "ZDP_IncomingData"
`??ZDP_IncomingData::?relay` SYMBOL "?relay", ZDP_IncomingData
ZDP_MatchDescReq    SYMBOL "ZDP_MatchDescReq"
`??ZDP_MatchDescReq::?relay` SYMBOL "?relay", ZDP_MatchDescReq
ZDP_MgmtBindRsp     SYMBOL "ZDP_MgmtBindRsp"
`??ZDP_MgmtBindRsp::?relay` SYMBOL "?relay", ZDP_MgmtBindRsp
ZDP_MgmtDirectJoinReq SYMBOL "ZDP_MgmtDirectJoinReq"
`??ZDP_MgmtDirectJoinReq::?relay` SYMBOL "?relay", ZDP_MgmtDirectJoinReq
ZDP_MgmtLeaveReq    SYMBOL "ZDP_MgmtLeaveReq"
`??ZDP_MgmtLeaveReq::?relay` SYMBOL "?relay", ZDP_MgmtLeaveReq
ZDP_MgmtLqiRsp      SYMBOL "ZDP_MgmtLqiRsp"
`??ZDP_MgmtLqiRsp::?relay` SYMBOL "?relay", ZDP_MgmtLqiRsp
ZDP_MgmtNwkDiscReq  SYMBOL "ZDP_MgmtNwkDiscReq"
`??ZDP_MgmtNwkDiscReq::?relay` SYMBOL "?relay", ZDP_MgmtNwkDiscReq
ZDP_MgmtNwkDiscRsp  SYMBOL "ZDP_MgmtNwkDiscRsp"
`??ZDP_MgmtNwkDiscRsp::?relay` SYMBOL "?relay", ZDP_MgmtNwkDiscRsp
ZDP_MgmtNwkUpdateNotify SYMBOL "ZDP_MgmtNwkUpdateNotify"
`??ZDP_MgmtNwkUpdateNotify::?relay` SYMBOL "?relay", ZDP_MgmtNwkUpdateNotify
ZDP_MgmtNwkUpdateReq SYMBOL "ZDP_MgmtNwkUpdateReq"
`??ZDP_MgmtNwkUpdateReq::?relay` SYMBOL "?relay", ZDP_MgmtNwkUpdateReq
ZDP_MgmtPermitJoinReq SYMBOL "ZDP_MgmtPermitJoinReq"
`??ZDP_MgmtPermitJoinReq::?relay` SYMBOL "?relay", ZDP_MgmtPermitJoinReq
ZDP_MgmtRtgRsp      SYMBOL "ZDP_MgmtRtgRsp"
`??ZDP_MgmtRtgRsp::?relay` SYMBOL "?relay", ZDP_MgmtRtgRsp
ZDP_NWKAddrOfInterestReq SYMBOL "ZDP_NWKAddrOfInterestReq"
`??ZDP_NWKAddrOfInterestReq::?relay` SYMBOL "?relay", ZDP_NWKAddrOfInterestReq
ZDP_NodeDescMsg     SYMBOL "ZDP_NodeDescMsg"
`??ZDP_NodeDescMsg::?relay` SYMBOL "?relay", ZDP_NodeDescMsg
ZDP_NwkAddrReq      SYMBOL "ZDP_NwkAddrReq"
`??ZDP_NwkAddrReq::?relay` SYMBOL "?relay", ZDP_NwkAddrReq
ZDP_ParentAnnce     SYMBOL "ZDP_ParentAnnce"
`??ZDP_ParentAnnce::?relay` SYMBOL "?relay", ZDP_ParentAnnce
ZDP_PowerDescMsg    SYMBOL "ZDP_PowerDescMsg"
`??ZDP_PowerDescMsg::?relay` SYMBOL "?relay", ZDP_PowerDescMsg
ZDP_SendData        SYMBOL "ZDP_SendData"
`??ZDP_SendData::?relay` SYMBOL "?relay", ZDP_SendData
ZDP_ServerDiscReq   SYMBOL "ZDP_ServerDiscReq"
`??ZDP_ServerDiscReq::?relay` SYMBOL "?relay", ZDP_ServerDiscReq
ZDP_ServerDiscRsp   SYMBOL "ZDP_ServerDiscRsp"
`??ZDP_ServerDiscRsp::?relay` SYMBOL "?relay", ZDP_ServerDiscRsp
ZDP_SimpleDescMsg   SYMBOL "ZDP_SimpleDescMsg"
`??ZDP_SimpleDescMsg::?relay` SYMBOL "?relay", ZDP_SimpleDescMsg
ZDP_SimpleDescReq   SYMBOL "ZDP_SimpleDescReq"
`??ZDP_SimpleDescReq::?relay` SYMBOL "?relay", ZDP_SimpleDescReq
ZDP_UserDescRsp     SYMBOL "ZDP_UserDescRsp"
`??ZDP_UserDescRsp::?relay` SYMBOL "?relay", ZDP_UserDescRsp
ZDP_UserDescSet     SYMBOL "ZDP_UserDescSet"
`??ZDP_UserDescSet::?relay` SYMBOL "?relay", ZDP_UserDescSet
zdpProcessAddrReq   SYMBOL "zdpProcessAddrReq"
`??zdpProcessAddrReq::?relay` SYMBOL "?relay", zdpProcessAddrReq

        EXTERN `??AF_DataRequest::?relay`
        FUNCTION `??AF_DataRequest::?relay`,00H
        EXTERN `??AddrMgrEntryGet::?relay`
        FUNCTION `??AddrMgrEntryGet::?relay`,00H
        EXTERN `??AssocGetWithExt::?relay`
        FUNCTION `??AssocGetWithExt::?relay`,00H
        EXTERN `??AssocGetWithShort::?relay`
        FUNCTION `??AssocGetWithShort::?relay`,00H
        EXTERN `??AssocMakeList::?relay`
        FUNCTION `??AssocMakeList::?relay`,00H
        EXTERN `??NLME_GetExtAddr::?relay`
        FUNCTION `??NLME_GetExtAddr::?relay`,00H
        EXTERN `??NLME_GetShortAddr::?relay`
        FUNCTION `??NLME_GetShortAddr::?relay`,00H
        EXTERN `??ZDApp_InMsgCB::?relay`
        FUNCTION `??ZDApp_InMsgCB::?relay`,00H
        EXTERN `??ZDO_ProcessActiveEPReq::?relay`
        FUNCTION `??ZDO_ProcessActiveEPReq::?relay`,00H
        EXTERN `??ZDO_ProcessDeviceAnnce::?relay`
        FUNCTION `??ZDO_ProcessDeviceAnnce::?relay`,00H
        EXTERN `??ZDO_ProcessMatchDescReq::?relay`
        FUNCTION `??ZDO_ProcessMatchDescReq::?relay`,00H
        EXTERN `??ZDO_ProcessNodeDescReq::?relay`
        FUNCTION `??ZDO_ProcessNodeDescReq::?relay`,00H
        EXTERN `??ZDO_ProcessParentAnnce::?relay`
        FUNCTION `??ZDO_ProcessParentAnnce::?relay`,00H
        EXTERN `??ZDO_ProcessParentAnnceRsp::?relay`
        FUNCTION `??ZDO_ProcessParentAnnceRsp::?relay`,00H
        EXTERN `??ZDO_ProcessPowerDescReq::?relay`
        FUNCTION `??ZDO_ProcessPowerDescReq::?relay`,00H
        EXTERN `??ZDO_ProcessServerDiscReq::?relay`
        FUNCTION `??ZDO_ProcessServerDiscReq::?relay`,00H
        EXTERN `??ZDO_ProcessSimpleDescReq::?relay`
        FUNCTION `??ZDO_ProcessSimpleDescReq::?relay`,00H
        EXTERN `??ZDO_ProcessUserDescReq::?relay`
        FUNCTION `??ZDO_ProcessUserDescReq::?relay`,00H
        EXTERN `??ZDO_ProcessUserDescSet::?relay`
        FUNCTION `??ZDO_ProcessUserDescSet::?relay`,00H
        EXTERN `??osal_buffer_uint32::?relay`
        FUNCTION `??osal_buffer_uint32::?relay`,00H
        EXTERN `??osal_mem_alloc::?relay`
        FUNCTION `??osal_mem_alloc::?relay`,00H
        EXTERN `??osal_mem_free::?relay`
        FUNCTION `??osal_mem_free::?relay`,00H
        EXTERN `??osal_memcpy::?relay`
        FUNCTION `??osal_memcpy::?relay`,00H
        EXTERN `??osal_memset::?relay`
        FUNCTION `??osal_memset::?relay`,00H
        EXTERN `??osal_msg_allocate::?relay`
        FUNCTION `??osal_msg_allocate::?relay`,00H
        EXTERN `??osal_msg_send::?relay`
        FUNCTION `??osal_msg_send::?relay`,00H
        EXTERN `??sAddrExtCmp::?relay`
        FUNCTION `??sAddrExtCmp::?relay`,00H
        EXTERN `??sAddrExtCpy::?relay`
        FUNCTION `??sAddrExtCpy::?relay`,00H
        EXTERN AF_DataRequest
        FUNCTION AF_DataRequest,0202H
        ARGFRAME ISTACK, 0, STACK
        ARGFRAME PSTACK, 0, STACK
        ARGFRAME XSTACK, 35, STACK
        ARGFRAME IOVERLAY, 0, STATIC
        ARGFRAME DOVERLAY, 0, STATIC
        EXTERN AddrMgrEntryGet
        FUNCTION AddrMgrEntryGet,0202H
        ARGFRAME ISTACK, 0, STACK
        ARGFRAME PSTACK, 0, STACK
        ARGFRAME XSTACK, 36, STACK
        ARGFRAME IOVERLAY, 0, STATIC
        ARGFRAME DOVERLAY, 0, STATIC
        EXTERN AssocGetWithExt
        FUNCTION AssocGetWithExt,0202H
        ARGFRAME ISTACK, 0, STACK
        ARGFRAME PSTACK, 0, STACK
        ARGFRAME XSTACK, 36, STACK
        ARGFRAME IOVERLAY, 0, STATIC
        ARGFRAME DOVERLAY, 0, STATIC
        EXTERN AssocGetWithShort
        FUNCTION AssocGetWithShort,0202H
        ARGFRAME ISTACK, 0, STACK
        ARGFRAME PSTACK, 0, STACK
        ARGFRAME XSTACK, 36, STACK
        ARGFRAME IOVERLAY, 0, STATIC
        ARGFRAME DOVERLAY, 0, STATIC
        EXTERN AssocMakeList
        FUNCTION AssocMakeList,0202H
        ARGFRAME ISTACK, 0, STACK
        ARGFRAME PSTACK, 0, STACK
        ARGFRAME XSTACK, 36, STACK
        ARGFRAME IOVERLAY, 0, STATIC
        ARGFRAME DOVERLAY, 0, STATIC
        EXTERN NLME_GetExtAddr
        FUNCTION NLME_GetExtAddr,0202H
        ARGFRAME ISTACK, 0, STACK
        ARGFRAME PSTACK, 0, STACK
        ARGFRAME XSTACK, 18, STACK
        ARGFRAME IOVERLAY, 0, STATIC
        ARGFRAME DOVERLAY, 0, STATIC
        EXTERN NLME_GetShortAddr
        FUNCTION NLME_GetShortAddr,0202H
        ARGFRAME ISTACK, 0, STACK
        ARGFRAME PSTACK, 0, STACK
        ARGFRAME XSTACK, 21, STACK
        ARGFRAME IOVERLAY, 0, STATIC
        ARGFRAME DOVERLAY, 0, STATIC
        EXTERN ZDAppNwkAddr
        EXTERN ZDApp_InMsgCB
        FUNCTION ZDApp_InMsgCB,0202H
        ARGFRAME ISTACK, 0, STACK
        ARGFRAME PSTACK, 0, STACK
        ARGFRAME XSTACK, 33, STACK
        ARGFRAME IOVERLAY, 0, STATIC
        ARGFRAME DOVERLAY, 0, STATIC
        EXTERN ZDApp_epDesc
        EXTERN osal_buffer_uint32
        FUNCTION osal_buffer_uint32,0202H
        ARGFRAME ISTACK, 0, STACK
        ARGFRAME PSTACK, 0, STACK
        ARGFRAME XSTACK, 24, STACK
        ARGFRAME IOVERLAY, 0, STATIC
        ARGFRAME DOVERLAY, 0, STATIC
        EXTERN osal_mem_alloc
        FUNCTION osal_mem_alloc,0202H
        ARGFRAME ISTACK, 0, STACK
        ARGFRAME PSTACK, 0, STACK
        ARGFRAME XSTACK, 23, STACK
        ARGFRAME IOVERLAY, 0, STATIC
        ARGFRAME DOVERLAY, 0, STATIC
        EXTERN osal_mem_free
        FUNCTION osal_mem_free,0202H
        ARGFRAME ISTACK, 0, STACK
        ARGFRAME PSTACK, 0, STACK
        ARGFRAME XSTACK, 36, STACK
        ARGFRAME IOVERLAY, 0, STATIC
        ARGFRAME DOVERLAY, 0, STATIC
        EXTERN osal_memcpy
        FUNCTION osal_memcpy,0202H
        ARGFRAME ISTACK, 0, STACK
        ARGFRAME PSTACK, 0, STACK
        ARGFRAME XSTACK, 22, STACK
        ARGFRAME IOVERLAY, 0, STATIC
        ARGFRAME DOVERLAY, 0, STATIC
        EXTERN osal_memset
        FUNCTION osal_memset,0202H
        ARGFRAME ISTACK, 0, STACK
        ARGFRAME PSTACK, 0, STACK
        ARGFRAME XSTACK, 26, STACK
        ARGFRAME IOVERLAY, 0, STATIC
        ARGFRAME DOVERLAY, 0, STATIC
        EXTERN osal_msg_allocate
        FUNCTION osal_msg_allocate,0202H
        ARGFRAME ISTACK, 0, STACK
        ARGFRAME PSTACK, 0, STACK
        ARGFRAME XSTACK, 18, STACK
        ARGFRAME IOVERLAY, 0, STATIC
        ARGFRAME DOVERLAY, 0, STATIC
        EXTERN osal_msg_send
        FUNCTION osal_msg_send,0202H
        ARGFRAME ISTACK, 0, STACK
        ARGFRAME PSTACK, 0, STACK
        ARGFRAME XSTACK, 18, STACK
        ARGFRAME IOVERLAY, 0, STATIC
        ARGFRAME DOVERLAY, 0, STATIC
        EXTERN sAddrExtCmp
        FUNCTION sAddrExtCmp,0202H
        ARGFRAME ISTACK, 0, STACK
        ARGFRAME PSTACK, 0, STACK
        ARGFRAME XSTACK, 36, STACK
        ARGFRAME IOVERLAY, 0, STATIC
        ARGFRAME DOVERLAY, 0, STATIC
        EXTERN sAddrExtCpy
        FUNCTION sAddrExtCpy,0202H
        ARGFRAME ISTACK, 1, STACK
        ARGFRAME PSTACK, 0, STACK
        ARGFRAME XSTACK, 36, STACK
        ARGFRAME IOVERLAY, 0, STATIC
        ARGFRAME DOVERLAY, 0, STATIC
        EXTERN saveExtAddr

// C:\Texas Instruments\Z-Stack Home 1.2.2a.44539\Components\stack\zdo\ZDProfile.c
//    1 /**************************************************************************************************
//    2   Filename:       ZDProfile.c
//    3   Revised:        $Date: 2015-10-14 11:48:06 -0700 (Wed, 14 Oct 2015) $
//    4   Revision:       $Revision: 44530 $
//    5 
//    6   Description:    This is the Zigbee Device Profile.
//    7 
//    8 
//    9   Copyright 2004-2015 Texas Instruments Incorporated. All rights reserved.
//   10 
//   11   IMPORTANT: Your use of this Software is limited to those specific rights
//   12   granted under the terms of a software license agreement between the user
//   13   who downloaded the software, his/her employer (which must be your employer)
//   14   and Texas Instruments Incorporated (the "License").  You may not use this
//   15   Software unless you agree to abide by the terms of the License. The License
//   16   limits your use, and you acknowledge, that the Software may not be modified,
//   17   copied or distributed unless embedded on a Texas Instruments microcontroller
//   18   or used solely and exclusively in conjunction with a Texas Instruments radio
//   19   frequency transceiver, which is integrated into your product.  Other than for
//   20   the foregoing purpose, you may not use, reproduce, copy, prepare derivative
//   21   works of, modify, distribute, perform, display or sell this Software and/or
//   22   its documentation for any purpose.
//   23 
//   24   YOU FURTHER ACKNOWLEDGE AND AGREE THAT THE SOFTWARE AND DOCUMENTATION ARE
//   25   PROVIDED "AS IS" WITHOUT WARRANTY OF ANY KIND, EITHER EXPRESS OR IMPLIED,
//   26   INCLUDING WITHOUT LIMITATION, ANY WARRANTY OF MERCHANTABILITY, TITLE,
//   27   NON-INFRINGEMENT AND FITNESS FOR A PARTICULAR PURPOSE. IN NO EVENT SHALL
//   28   TEXAS INSTRUMENTS OR ITS LICENSORS BE LIABLE OR OBLIGATED UNDER CONTRACT,
//   29   NEGLIGENCE, STRICT LIABILITY, CONTRIBUTION, BREACH OF WARRANTY, OR OTHER
//   30   LEGAL EQUITABLE THEORY ANY DIRECT OR INDIRECT DAMAGES OR EXPENSES
//   31   INCLUDING BUT NOT LIMITED TO ANY INCIDENTAL, SPECIAL, INDIRECT, PUNITIVE
//   32   OR CONSEQUENTIAL DAMAGES, LOST PROFITS OR LOST DATA, COST OF PROCUREMENT
//   33   OF SUBSTITUTE GOODS, TECHNOLOGY, SERVICES, OR ANY CLAIMS BY THIRD PARTIES
//   34   (INCLUDING BUT NOT LIMITED TO ANY DEFENSE THEREOF), OR OTHER SIMILAR COSTS.
//   35 
//   36   Should you have any questions regarding your right to use this Software,
//   37   contact Texas Instruments Incorporated at www.TI.com.
//   38 **************************************************************************************************/
//   39 
//   40 /*********************************************************************
//   41  * INCLUDES
//   42  */
//   43 #include "ZComDef.h"
//   44 #include "OSAL.h"
//   45 #include "AF.h"
//   46 #include "NLMEDE.h"
//   47 #include "nwk_util.h"
//   48 #include "APS.h"
//   49 
//   50 #include "AddrMgr.h"
//   51 #include "ZDConfig.h"
//   52 #include "ZDProfile.h"
//   53 #include "ZDObject.h"
//   54 #include "ZDNwkMgr.h"
//   55 
//   56 #if defined( LCD_SUPPORTED )
//   57   #include "OnBoard.h"
//   58 #endif
//   59 
//   60 #include "nwk_util.h"
//   61 
//   62 #if defined( MT_ZDO_FUNC )
//   63   #include "MT_ZDO.h"
//   64 #endif
//   65 
//   66 /*********************************************************************
//   67  * MACROS
//   68  */
//   69 
//   70 #define ZADDR_TO_AFADDR( pZADDR, AFADDR ) {                            \ 
//   71   (AFADDR).endPoint = ZDP_AF_ENDPOINT;                                 \ 
//   72   (AFADDR).addrMode = (afAddrMode_t)(pZADDR)->addrMode;                \ 
//   73   (AFADDR).addr.shortAddr = (pZADDR)->addr.shortAddr;                  \ 
//   74 }
//   75 
//   76 #define FillAndSendBuffer( TRANSSEQ, ADDR, ID, LEN, BUF ) {     \ 
//   77   afStatus_t stat;                                    \ 
//   78   ZDP_TmpBuf = (BUF)+1;                               \ 
//   79   stat = fillAndSend( (TRANSSEQ), (ADDR), (ID), (LEN) );          \ 
//   80   osal_mem_free( (BUF) );                             \ 
//   81   ZDP_TmpBuf = ZDP_Buf+1;                             \ 
//   82   return stat;                                        \ 
//   83 }
//   84 
//   85 #define FillAndSendTxOptions( TRANSSEQ, ADDR, ID, LEN, TxO ) {  \ 
//   86   afStatus_t stat;                                    \ 
//   87   ZDP_TxOptions = (TxO);                              \ 
//   88   stat = fillAndSend( (TRANSSEQ), (ADDR), (ID), (LEN) );          \ 
//   89   ZDP_TxOptions = AF_TX_OPTIONS_NONE;                 \ 
//   90   return stat;                                        \ 
//   91 }
//   92 
//   93 #define FillAndSendBufferTxOptions( TRANSSEQ, ADDR, ID, LEN, BUF, TxO ) { \ 
//   94   afStatus_t stat;                                    \ 
//   95   ZDP_TmpBuf = (BUF)+1;                               \ 
//   96   ZDP_TxOptions = (TxO);                              \ 
//   97   stat = fillAndSend( (TRANSSEQ), (ADDR), (ID), (LEN) );          \ 
//   98   osal_mem_free( (BUF) );                             \ 
//   99   ZDP_TmpBuf = ZDP_Buf+1;                             \ 
//  100   ZDP_TxOptions = AF_TX_OPTIONS_NONE;                 \ 
//  101   return stat;                                        \ 
//  102 }
//  103 
//  104 /*********************************************************************
//  105  * CONSTANTS
//  106  */
//  107 
//  108 #define ZDP_BUF_SZ          80
//  109 

        RSEG CODE_C:CODE:REORDER:NOROOT(0)
        DATA8
//  110 CONST byte ZDP_AF_ENDPOINT = 0;
ZDP_AF_ENDPOINT:
        DB 0
//  111 
//  112 // Routing table options
//  113 #define ZP_RTG_RECORD       0x04       // Routing table indication that a route record is needed
//  114 #define ZP_MTO_ROUTE_RC     0x08       // Concentrator with routing cache
//  115 #define ZP_MTO_ROUTE_NRC    0x10       // Concentrator with limited cache
//  116 
//  117 
//  118 /*********************************************************************
//  119  * TYPEDEFS
//  120  */
//  121 typedef struct
//  122 {
//  123   void *next;
//  124   uint8 taskID;
//  125   uint16 clusterID;
//  126 } ZDO_MsgCB_t;
//  127 
//  128 
//  129 /*********************************************************************
//  130  * GLOBAL VARIABLES
//  131  */
//  132 

        RSEG XDATA_Z:XDATA:NOROOT(0)
        DATA8
//  133 byte ZDP_TransID = 0;
ZDP_TransID:
        DS 1
        REQUIRE __INIT_XDATA_Z
//  134 
//  135 /*********************************************************************
//  136  * EXTERNAL VARIABLES
//  137  */
//  138 
//  139 extern endPointDesc_t ZDApp_epDesc;
//  140 
//  141 /*********************************************************************
//  142  * EXTERNAL FUNCTIONS
//  143  */
//  144 
//  145 /*********************************************************************
//  146  * LOCAL FUNCTIONS
//  147  */
//  148 
//  149 static afStatus_t fillAndSend( uint8 *transSeq, zAddrType_t *addr, cId_t clusterID, byte len );
//  150 uint8 ZDO_SendMsgCBs( zdoIncomingMsg_t *inMsg );
//  151 void zdpProcessAddrReq( zdoIncomingMsg_t *inMsg );
//  152 
//  153 /*********************************************************************
//  154  * LOCAL VARIABLES
//  155  */
//  156 

        RSEG XDATA_Z:XDATA:NOROOT(0)
        DATA8
//  157 static uint8  ZDP_Buf[ ZDP_BUF_SZ ];
ZDP_Buf:
        DS 80
        REQUIRE __INIT_XDATA_Z

        RSEG XDATA_I:XDATA:NOROOT(0)
//  158 static uint8 *ZDP_TmpBuf = ZDP_Buf+1;
ZDP_TmpBuf:
        DATA16
        DS 2
        REQUIRE `?<Initializer for ZDP_TmpBuf>`
        REQUIRE __INIT_XDATA_I
//  159 

        RSEG XDATA_Z:XDATA:NOROOT(0)
        DATA8
//  160 byte ZDP_TxOptions = AF_TX_OPTIONS_NONE;
ZDP_TxOptions:
        DS 1
        REQUIRE __INIT_XDATA_Z

        RSEG XDATA_Z:XDATA:NOROOT(0)
        DATA16
//  161 ZDO_MsgCB_t *zdoMsgCBs = (ZDO_MsgCB_t *)NULL;
zdoMsgCBs:
        DS 2
        REQUIRE __INIT_XDATA_Z
//  162 
//  163 /*********************************************************************
//  164  * ZDO Message Processing table
//  165  */
//  166 
//  167 typedef void (*pfnZDPMsgProcessor)( zdoIncomingMsg_t *inMsg );
//  168 
//  169 typedef struct
//  170 {
//  171   uint16                clusterID;
//  172   pfnZDPMsgProcessor    pFn;
//  173 } zdpMsgProcItem_t;
//  174 

        RSEG CODE_C:CODE:REORDER:NOROOT(0)
        DATA8
//  175 CONST zdpMsgProcItem_t zdpMsgProcs[] =
zdpMsgProcs:
        DATA16
        DW 0
        DW `??zdpProcessAddrReq::?relay`
        DW 19
        DW `??ZDO_ProcessDeviceAnnce::?relay`
        DW 31
        DW `??ZDO_ProcessParentAnnce::?relay`
        DW 32799
        DW `??ZDO_ProcessParentAnnceRsp::?relay`
        DW 1
        DW `??zdpProcessAddrReq::?relay`
        DW 2
        DW `??ZDO_ProcessNodeDescReq::?relay`
        DW 3
        DW `??ZDO_ProcessPowerDescReq::?relay`
        DW 4
        DW `??ZDO_ProcessSimpleDescReq::?relay`
        DW 5
        DW `??ZDO_ProcessActiveEPReq::?relay`
        DW 6
        DW `??ZDO_ProcessMatchDescReq::?relay`
        DW 17
        DW `??ZDO_ProcessUserDescReq::?relay`
        DW 20
        DW `??ZDO_ProcessUserDescSet::?relay`
        DW 21
        DW `??ZDO_ProcessServerDiscReq::?relay`
        DW 65535
        DW 0H
//  176 {
//  177 #if ( RFD_RCVC_ALWAYS_ON==TRUE ) || ( ZG_BUILD_RTR_TYPE )
//  178   // These aren't processed by sleeping end devices.
//  179   { NWK_addr_req,           zdpProcessAddrReq },
//  180   { Device_annce,           ZDO_ProcessDeviceAnnce },
//  181 #endif
//  182 #if ( ZG_BUILD_RTR_TYPE )
//  183   // These aren't processed by end devices.
//  184   { Parent_annce,           ZDO_ProcessParentAnnce },
//  185   { Parent_annce_rsp,       ZDO_ProcessParentAnnceRsp },
//  186 #endif
//  187   { IEEE_addr_req,          zdpProcessAddrReq },
//  188   { Node_Desc_req,          ZDO_ProcessNodeDescReq },
//  189   { Power_Desc_req,         ZDO_ProcessPowerDescReq },
//  190   { Simple_Desc_req,        ZDO_ProcessSimpleDescReq },
//  191   { Active_EP_req,          ZDO_ProcessActiveEPReq },
//  192   { Match_Desc_req,         ZDO_ProcessMatchDescReq },
//  193 #if defined ( ZDO_MGMT_NWKDISC_RESPONSE )
//  194   { Mgmt_NWK_Disc_req,      ZDO_ProcessMgmtNwkDiscReq },
//  195 #endif
//  196 #if defined ( ZDO_MGMT_LQI_RESPONSE ) && ( ZG_BUILD_RTR_TYPE )
//  197   { Mgmt_Lqi_req,           ZDO_ProcessMgmtLqiReq },
//  198 #endif
//  199 #if defined ( ZDO_MGMT_RTG_RESPONSE ) && ( ZG_BUILD_RTR_TYPE )
//  200   { Mgmt_Rtg_req,           ZDO_ProcessMgmtRtgReq },
//  201 #endif
//  202 #if defined ( ZDO_MGMT_BIND_RESPONSE ) && defined ( REFLECTOR )
//  203   { Mgmt_Bind_req,          ZDO_ProcessMgmtBindReq },
//  204 #endif
//  205 #if defined ( ZDO_MGMT_JOINDIRECT_RESPONSE ) && ( ZG_BUILD_RTR_TYPE )
//  206   { Mgmt_Direct_Join_req,   ZDO_ProcessMgmtDirectJoinReq },
//  207 #endif
//  208 #if defined ( ZDO_MGMT_LEAVE_RESPONSE )
//  209   { Mgmt_Leave_req,         ZDO_ProcessMgmtLeaveReq },
//  210 #endif
//  211 #if defined ( ZDO_MGMT_PERMIT_JOIN_RESPONSE )  && ( ZG_BUILD_RTR_TYPE )
//  212   { Mgmt_Permit_Join_req,   ZDO_ProcessMgmtPermitJoinReq },
//  213 #endif
//  214 #if defined ( ZDO_USERDESC_RESPONSE )
//  215   { User_Desc_req,          ZDO_ProcessUserDescReq },
//  216 #endif
//  217 #if defined ( ZDO_USERDESCSET_RESPONSE )
//  218   { User_Desc_set,          ZDO_ProcessUserDescSet },
//  219 #endif
//  220 #if defined ( ZDO_SERVERDISC_RESPONSE )
//  221   { Server_Discovery_req,   ZDO_ProcessServerDiscReq },
//  222 #endif
//  223   {0xFFFF, NULL} // Last
//  224 };
//  225 
//  226 /*********************************************************************
//  227  * @fn          fillAndSend
//  228  *
//  229  * @brief       Combined to reduce space
//  230  *
//  231  * @param
//  232  * @param
//  233  *
//  234  * @return      afStatus_t
//  235  */

        RSEG BANKED_CODE:CODE:NOROOT(0)
//  236 static afStatus_t fillAndSend( uint8 *transSeq, zAddrType_t *addr, cId_t clusterID, byte len )
fillAndSend:
          CFI Block cfiBlock0 Using cfiCommon0
          CFI Function fillAndSend
        CODE
//  237 {
        FUNCALL fillAndSend, osal_memset
        LOCFRAME ISTACK, 0, STACK
        LOCFRAME PSTACK, 0, STACK
        LOCFRAME XSTACK, 26, STACK
        LOCFRAME IOVERLAY, 0, STATIC
        LOCFRAME DOVERLAY, 0, STATIC
        ARGFRAME ISTACK, 0, STACK
        ARGFRAME PSTACK, 0, STACK
        ARGFRAME XSTACK, 26, STACK
        ARGFRAME IOVERLAY, 0, STATIC
        ARGFRAME DOVERLAY, 0, STATIC
        FUNCALL fillAndSend, AF_DataRequest
        LOCFRAME ISTACK, 0, STACK
        LOCFRAME PSTACK, 0, STACK
        LOCFRAME XSTACK, 35, STACK
        LOCFRAME IOVERLAY, 0, STATIC
        LOCFRAME DOVERLAY, 0, STATIC
        ARGFRAME ISTACK, 0, STACK
        ARGFRAME PSTACK, 0, STACK
        ARGFRAME XSTACK, 35, STACK
        ARGFRAME IOVERLAY, 0, STATIC
        ARGFRAME DOVERLAY, 0, STATIC
        REQUIRE ?V0
        REQUIRE ?V1
        REQUIRE ?V2
        REQUIRE ?V3
        REQUIRE ?V4
        REQUIRE ?V5
        MOV     A,#-0xe
        LCALL   ?BANKED_ENTER_XDATA
          CFI DPH0 load(1, XDATA, add(CFA_XSP16, literal(-1)))
          CFI DPL0 load(1, XDATA, add(CFA_XSP16, literal(-2)))
          CFI ?BRET_EXT load(1, XDATA, add(CFA_XSP16, literal(-3)))
          CFI ?RET_HIGH load(1, XDATA, add(CFA_XSP16, literal(-4)))
          CFI ?RET_LOW load(1, XDATA, add(CFA_XSP16, literal(-5)))
          CFI R7 load(1, XDATA, add(CFA_XSP16, literal(-6)))
          CFI V5 load(1, XDATA, add(CFA_XSP16, literal(-7)))
          CFI V4 load(1, XDATA, add(CFA_XSP16, literal(-8)))
          CFI V3 load(1, XDATA, add(CFA_XSP16, literal(-9)))
          CFI V2 load(1, XDATA, add(CFA_XSP16, literal(-10)))
          CFI V1 load(1, XDATA, add(CFA_XSP16, literal(-11)))
          CFI V0 load(1, XDATA, add(CFA_XSP16, literal(-12)))
          CFI VB load(1, XDATA, add(CFA_XSP16, literal(-13)))
          CFI R6 load(1, XDATA, add(CFA_XSP16, literal(-14)))
          CFI CFA_SP SP+0
          CFI CFA_XSP16 add(XSP16, 14)
        ; Saved register size: 14
        ; Auto size: 12
        MOV     A,#-0xc
        LCALL   ?ALLOC_XSTACK8
          CFI CFA_XSP16 add(XSP16, 26)
        MOV     ?V0,R2
        MOV     ?V1,R3
        MOV     A,R4
        MOV     R6,A
        MOV     A,R5
        MOV     R7,A
        MOV     ?V4,R1
//  238   afAddrType_t afAddr;
//  239 
//  240   osal_memset( &afAddr, 0, sizeof(afAddrType_t) );
        ; Setup parameters for call to function osal_memset
        MOV     R4,#0xc
        MOV     R5,#0x0
        MOV     R1,#0x0
        MOV     R2,?XSP + 0
        MOV     R3,?XSP + 1
        LCALL   `??osal_memset::?relay`; Banked call to: osal_memset
//  241   ZADDR_TO_AFADDR( addr, afAddr );
        MOV     A,#0x9
        LCALL   ?XSTACK_DISP0_8
        CLR     A
        LCALL   ?Subroutine21 & 0xFFFF
??CrossCallReturnLabel_22:
        MOVX    A,@DPTR
        PUSH    A
          CFI CFA_SP SP+-1
        MOV     A,#0x8
        LCALL   ?XSTACK_DISP0_8
        POP     A
          CFI CFA_SP SP+0
        MOVX    @DPTR,A
        MOV     DPL,R6
        MOV     DPH,R7
        LCALL   ?Subroutine52 & 0xFFFF
??CrossCallReturnLabel_85:
        LCALL   ?Subroutine29 & 0xFFFF
//  242 
//  243   *(ZDP_TmpBuf-1) = *transSeq;
??CrossCallReturnLabel_42:
        MOV     DPTR,#ZDP_TmpBuf
        MOVX    A,@DPTR
        ADD     A,#-0x1
        MOV     ?V2,A
        INC     DPTR
        MOVX    A,@DPTR
        ADDC    A,#-0x1
        MOV     ?V3,A
        MOV     DPL,?V0
        MOV     DPH,?V1
        MOVX    A,@DPTR
        MOV     DPL,?V2
        MOV     DPH,?V3
        MOVX    @DPTR,A
//  244 
//  245   return AF_DataRequest( &afAddr, &ZDApp_epDesc, clusterID,
//  246                            (uint16)(len+1), (uint8*)(ZDP_TmpBuf-1),
//  247                            transSeq, ZDP_TxOptions,  AF_DEFAULT_RADIUS );
        ; Setup parameters for call to function AF_DataRequest
        MOV     ?V5,#0x1e
        MOV     R0,#?V5
        LCALL   ?PUSH_XSTACK_I_ONE
          CFI CFA_XSP16 add(XSP16, 27)
        MOV     R0,#?V0
        LCALL   ?PUSH_XSTACK_I_TWO
          CFI CFA_XSP16 add(XSP16, 29)
        MOV     R0,#?V2
        LCALL   ?PUSH_XSTACK_I_TWO
          CFI CFA_XSP16 add(XSP16, 31)
        MOV     A,?V4
        ADD     A,#0x1
        MOV     ?V0,A
        CLR     A
        ADDC    A,#0x0
        MOV     ?V1,A
        MOV     R0,#?V0
        LCALL   ?PUSH_XSTACK_I_TWO
          CFI CFA_XSP16 add(XSP16, 33)
        MOV     A,#0x21
        LCALL   ?XSTACK_DISP0_8
        LCALL   ?PUSH_XSTACK8_X_TWO
          CFI CFA_XSP16 add(XSP16, 35)
        MOV     DPTR,#ZDP_TxOptions
        MOVX    A,@DPTR
        MOV     R1,A
        MOV     R4,#ZDApp_epDesc & 0xff
        MOV     R5,#(ZDApp_epDesc >> 8) & 0xff
        MOV     A,#0x9
        LCALL   ?XSTACK_DISP101_8
        LCALL   `??AF_DataRequest::?relay`; Banked call to: AF_DataRequest
        MOV     A,#0x9
        LCALL   ?DEALLOC_XSTACK8
          CFI CFA_XSP16 add(XSP16, 26)
        MOV     A,#0xc
        LJMP    ?Subroutine0 & 0xFFFF
//  248 
//  249 }
          CFI EndBlock cfiBlock0
//  250 
//  251 /*********************************************************************
//  252  * @fn          ZDP_SendData
//  253  *
//  254  * @brief       This builds and send a request message that has
//  255  *              NWKAddrOfInterest as its only parameter.
//  256  *
//  257  * @param       dstAddr - destination address
//  258  * @param       cmd - clusterID
//  259  * @param       dataLen - number of bytes of data
//  260  * @param       data - pointer to the data
//  261  * @param       SecurityEnable - Security Options
//  262  *
//  263  * @return      afStatus_t
//  264  */

        RSEG BANKED_CODE:CODE:NOROOT(0)
//  265 afStatus_t ZDP_SendData( uint8 *TransSeq, zAddrType_t *dstAddr, uint16 cmd,
ZDP_SendData:
          CFI Block cfiBlock1 Using cfiCommon0
          CFI Function ZDP_SendData
        CODE
//  266                         byte len, uint8 *buf, byte SecurityEnable )
//  267 {
        FUNCALL ZDP_SendData, fillAndSend
        LOCFRAME ISTACK, 0, STACK
        LOCFRAME PSTACK, 0, STACK
        LOCFRAME XSTACK, 14, STACK
        LOCFRAME IOVERLAY, 0, STATIC
        LOCFRAME DOVERLAY, 0, STATIC
        ARGFRAME ISTACK, 0, STACK
        ARGFRAME PSTACK, 0, STACK
        ARGFRAME XSTACK, 14, STACK
        ARGFRAME IOVERLAY, 0, STATIC
        ARGFRAME DOVERLAY, 0, STATIC
        REQUIRE ?V0
        REQUIRE ?V2
        REQUIRE ?V3
        MOV     A,#-0xc
        LCALL   ?BANKED_ENTER_XDATA
          CFI DPH0 load(1, XDATA, add(CFA_XSP16, literal(-1)))
          CFI DPL0 load(1, XDATA, add(CFA_XSP16, literal(-2)))
          CFI ?BRET_EXT load(1, XDATA, add(CFA_XSP16, literal(-3)))
          CFI ?RET_HIGH load(1, XDATA, add(CFA_XSP16, literal(-4)))
          CFI ?RET_LOW load(1, XDATA, add(CFA_XSP16, literal(-5)))
          CFI R7 load(1, XDATA, add(CFA_XSP16, literal(-6)))
          CFI V3 load(1, XDATA, add(CFA_XSP16, literal(-7)))
          CFI V2 load(1, XDATA, add(CFA_XSP16, literal(-8)))
          CFI V1 load(1, XDATA, add(CFA_XSP16, literal(-9)))
          CFI V0 load(1, XDATA, add(CFA_XSP16, literal(-10)))
          CFI VB load(1, XDATA, add(CFA_XSP16, literal(-11)))
          CFI R6 load(1, XDATA, add(CFA_XSP16, literal(-12)))
          CFI CFA_SP SP+0
          CFI CFA_XSP16 add(XSP16, 12)
        ; Saved register size: 12
        ; Auto size: 0
        MOV     A,R1
        MOV     R7,A
//  268   uint8 *pBuf = ZDP_TmpBuf;
        MOV     DPTR,#ZDP_TmpBuf
        LCALL   ?Subroutine53 & 0xFFFF
//  269   byte cnt = len;
??CrossCallReturnLabel_87:
        MOV     A,R7
        MOV     R6,A
        MOV     A,#0xe
        LCALL   ?XSTACK_DISP0_8
        LCALL   ??Subroutine126_0 & 0xFFFF
??CrossCallReturnLabel_259:
        SJMP    ??ZDP_SendData_0
//  270 
//  271   while ( cnt-- )
//  272   {
//  273     *pBuf++ = *buf++;
??ZDP_SendData_1:
        MOV     DPL,R0
        MOV     DPH,R1
        MOVX    A,@DPTR
        MOV     DPL,?V2
        MOV     DPH,?V3
        LCALL   ?Subroutine40 & 0xFFFF
//  274   }
??CrossCallReturnLabel_65:
        INC     DPTR
        MOV     R0,DPL
        MOV     R1,DPH
        MOV     DPL,?V2
        MOV     DPH,?V3
        INC     DPTR
        MOV     ?V2,DPL
        MOV     ?V3,DPH
??ZDP_SendData_0:
        MOV     A,#-0x1
        ADD     A,R6
        MOV     R6,A
        INC     A
        JNZ     ??ZDP_SendData_1
//  275 
//  276   FillAndSendTxOptions( TransSeq, dstAddr, cmd, len, ((SecurityEnable) ? AF_EN_SECURITY : 0) );
        MOV     A,#0x10
        LCALL   ?XSTACK_DISP0_8
        MOVX    A,@DPTR
        MOV     DPTR,#ZDP_TxOptions
        JZ      ??ZDP_SendData_2
        MOV     A,#0x40
        SJMP    ??ZDP_SendData_3
??ZDP_SendData_2:
        CLR     A
??ZDP_SendData_3:
        MOVX    @DPTR,A
        ; Setup parameters for call to function fillAndSend
        MOV     A,#0xc
        LCALL   ?XSTACK_DISP0_8
        LCALL   ?PUSH_XSTACK8_X_TWO
          CFI CFA_XSP16 add(XSP16, 14)
        MOV     A,R7
        MOV     R1,A
        LCALL   `??fillAndSend::?relay`; Banked call to: fillAndSend
        MOV     A,#0x2
        LCALL   ?DEALLOC_XSTACK8
          CFI CFA_XSP16 add(XSP16, 12)
        MOV     A,R1
        MOV     R1,A
        MOV     DPTR,#ZDP_TxOptions
        CLR     A
        MOVX    @DPTR,A
        LJMP    ??Subroutine104_0 & 0xFFFF
//  277 }
          CFI EndBlock cfiBlock1
//  278 
//  279 /*********************************************************************
//  280  * @fn          ZDP_NWKAddrOfInterestReq
//  281  *
//  282  * @brief       This builds and send a request message that has
//  283  *              NWKAddrOfInterest as its only parameter.
//  284  *
//  285  * @param       dstAddr - destination address
//  286  * @param       nwkAddr - 16 bit address
//  287  * @param       SecurityEnable - Security Options
//  288  *
//  289  * @return      afStatus_t
//  290  */

        RSEG BANKED_CODE:CODE:NOROOT(0)
//  291 afStatus_t ZDP_NWKAddrOfInterestReq( zAddrType_t *dstAddr, uint16 nwkAddr,
ZDP_NWKAddrOfInterestReq:
          CFI Block cfiBlock2 Using cfiCommon0
          CFI Function ZDP_NWKAddrOfInterestReq
        CODE
//  292                                      byte cmd, byte SecurityEnable )
//  293 {
        FUNCALL ZDP_NWKAddrOfInterestReq, fillAndSend
        LOCFRAME ISTACK, 0, STACK
        LOCFRAME PSTACK, 0, STACK
        LOCFRAME XSTACK, 12, STACK
        LOCFRAME IOVERLAY, 0, STATIC
        LOCFRAME DOVERLAY, 0, STATIC
        ARGFRAME ISTACK, 0, STACK
        ARGFRAME PSTACK, 0, STACK
        ARGFRAME XSTACK, 12, STACK
        ARGFRAME IOVERLAY, 0, STATIC
        ARGFRAME DOVERLAY, 0, STATIC
        REQUIRE ?V0
        REQUIRE ?V1
        MOV     A,#-0xa
        LCALL   ?BANKED_ENTER_XDATA
          CFI DPH0 load(1, XDATA, add(CFA_XSP16, literal(-1)))
          CFI DPL0 load(1, XDATA, add(CFA_XSP16, literal(-2)))
          CFI ?BRET_EXT load(1, XDATA, add(CFA_XSP16, literal(-3)))
          CFI ?RET_HIGH load(1, XDATA, add(CFA_XSP16, literal(-4)))
          CFI ?RET_LOW load(1, XDATA, add(CFA_XSP16, literal(-5)))
          CFI R7 load(1, XDATA, add(CFA_XSP16, literal(-6)))
          CFI V1 load(1, XDATA, add(CFA_XSP16, literal(-7)))
          CFI V0 load(1, XDATA, add(CFA_XSP16, literal(-8)))
          CFI VB load(1, XDATA, add(CFA_XSP16, literal(-9)))
          CFI R6 load(1, XDATA, add(CFA_XSP16, literal(-10)))
          CFI CFA_SP SP+0
          CFI CFA_XSP16 add(XSP16, 10)
        ; Saved register size: 10
        ; Auto size: 0
        MOV     A,R1
        MOV     R6,A
//  294   (void)SecurityEnable;  // Intentionally unreferenced parameter
//  295 
//  296   ZDP_TmpBuf[0] = LO_UINT16( nwkAddr );
        LCALL   ?Subroutine18 & 0xFFFF
//  297   ZDP_TmpBuf[1] = HI_UINT16( nwkAddr );
??CrossCallReturnLabel_16:
        MOVX    @DPTR,A
//  298 
//  299   return fillAndSend( &ZDP_TransID, dstAddr, cmd, 2 );
        ; Setup parameters for call to function fillAndSend
        MOV     ?V0,R6
        MOV     ?V1,#0x0
        MOV     R0,#?V0
        LCALL   ?PUSH_XSTACK_I_TWO
          CFI CFA_XSP16 add(XSP16, 12)
        MOV     R1,#0x2
        LJMP    ?Subroutine8 & 0xFFFF
//  300 }
          CFI EndBlock cfiBlock2
//  301 
//  302 /*********************************************************************
//  303  * Address Requests
//  304  */
//  305 
//  306 /*********************************************************************
//  307  * @fn          ZDP_NwkAddrReq
//  308  *
//  309  * @brief       This builds and send a NWK_addr_req message.  This
//  310  *              function sends a broadcast message looking for a 16
//  311  *              bit address with a 64 bit address as bait.
//  312  *
//  313  * @param       IEEEAddress - looking for this device
//  314  * @param       SecurityEnable - Security Options
//  315  *
//  316  * @return      afStatus_t
//  317  */

        RSEG BANKED_CODE:CODE:NOROOT(0)
//  318 afStatus_t ZDP_NwkAddrReq( uint8 *IEEEAddress, byte ReqType,
ZDP_NwkAddrReq:
          CFI Block cfiBlock3 Using cfiCommon0
          CFI Function ZDP_NwkAddrReq
        CODE
//  319                            byte StartIndex, byte SecurityEnable )
//  320 {
        FUNCALL ZDP_NwkAddrReq, sAddrExtCmp
        LOCFRAME ISTACK, 0, STACK
        LOCFRAME PSTACK, 0, STACK
        LOCFRAME XSTACK, 21, STACK
        LOCFRAME IOVERLAY, 0, STATIC
        LOCFRAME DOVERLAY, 0, STATIC
        ARGFRAME ISTACK, 0, STACK
        ARGFRAME PSTACK, 0, STACK
        ARGFRAME XSTACK, 21, STACK
        ARGFRAME IOVERLAY, 0, STATIC
        ARGFRAME DOVERLAY, 0, STATIC
        FUNCALL ZDP_NwkAddrReq, sAddrExtCpy
        LOCFRAME ISTACK, 0, STACK
        LOCFRAME PSTACK, 0, STACK
        LOCFRAME XSTACK, 21, STACK
        LOCFRAME IOVERLAY, 0, STATIC
        LOCFRAME DOVERLAY, 0, STATIC
        ARGFRAME ISTACK, 0, STACK
        ARGFRAME PSTACK, 0, STACK
        ARGFRAME XSTACK, 21, STACK
        ARGFRAME IOVERLAY, 0, STATIC
        ARGFRAME DOVERLAY, 0, STATIC
        FUNCALL ZDP_NwkAddrReq, fillAndSend
        LOCFRAME ISTACK, 0, STACK
        LOCFRAME PSTACK, 0, STACK
        LOCFRAME XSTACK, 23, STACK
        LOCFRAME IOVERLAY, 0, STATIC
        LOCFRAME DOVERLAY, 0, STATIC
        ARGFRAME ISTACK, 0, STACK
        ARGFRAME PSTACK, 0, STACK
        ARGFRAME XSTACK, 23, STACK
        ARGFRAME IOVERLAY, 0, STATIC
        ARGFRAME DOVERLAY, 0, STATIC
        REQUIRE ?V0
        REQUIRE ?V1
        REQUIRE ?V2
        REQUIRE ?V3
        MOV     A,#-0xc
        LCALL   ?BANKED_ENTER_XDATA
          CFI DPH0 load(1, XDATA, add(CFA_XSP16, literal(-1)))
          CFI DPL0 load(1, XDATA, add(CFA_XSP16, literal(-2)))
          CFI ?BRET_EXT load(1, XDATA, add(CFA_XSP16, literal(-3)))
          CFI ?RET_HIGH load(1, XDATA, add(CFA_XSP16, literal(-4)))
          CFI ?RET_LOW load(1, XDATA, add(CFA_XSP16, literal(-5)))
          CFI R7 load(1, XDATA, add(CFA_XSP16, literal(-6)))
          CFI V3 load(1, XDATA, add(CFA_XSP16, literal(-7)))
          CFI V2 load(1, XDATA, add(CFA_XSP16, literal(-8)))
          CFI V1 load(1, XDATA, add(CFA_XSP16, literal(-9)))
          CFI V0 load(1, XDATA, add(CFA_XSP16, literal(-10)))
          CFI VB load(1, XDATA, add(CFA_XSP16, literal(-11)))
          CFI R6 load(1, XDATA, add(CFA_XSP16, literal(-12)))
          CFI CFA_SP SP+0
          CFI CFA_XSP16 add(XSP16, 12)
        ; Saved register size: 12
        ; Auto size: 9
        MOV     A,#-0x9
        LCALL   ?ALLOC_XSTACK8
          CFI CFA_XSP16 add(XSP16, 21)
        MOV     A,R2
        MOV     R6,A
        MOV     A,R3
        MOV     R7,A
        MOV     ?V2,R1
        MOV     ?V3,R4
//  321   uint8 *pBuf = ZDP_TmpBuf;
        LCALL   ?Subroutine44 & 0xFFFF
//  322   byte len = Z_EXTADDR_LEN + 1 + 1;  // IEEEAddress + ReqType + StartIndex.
//  323   zAddrType_t dstAddr;
//  324 
//  325   (void)SecurityEnable;  // Intentionally unreferenced parameter
//  326 
//  327   if ( osal_ExtAddrEqual( saveExtAddr, IEEEAddress ) == FALSE )
??CrossCallReturnLabel_170:
        ; Setup parameters for call to function sAddrExtCmp
        MOV     A,R6
        MOV     R4,A
        MOV     A,R7
        MOV     R5,A
        MOV     R2,#saveExtAddr & 0xff
        MOV     R3,#(saveExtAddr >> 8) & 0xff
        LCALL   `??sAddrExtCmp::?relay`; Banked call to: sAddrExtCmp
        MOV     A,R1
        JNZ     ??ZDP_NwkAddrReq_0
//  328   {
//  329     dstAddr.addrMode = AddrBroadcast;
        MOV     A,#0x8
        LCALL   ?XSTACK_DISP0_8
        LCALL   ?Subroutine88 & 0xFFFF
//  330     dstAddr.addr.shortAddr = NWK_BROADCAST_SHORTADDR_DEVRXON;
//  331   }
??CrossCallReturnLabel_152:
        SJMP    ??ZDP_NwkAddrReq_1
//  332   else
//  333   {
//  334     dstAddr.addrMode = Addr16Bit;
??ZDP_NwkAddrReq_0:
        MOV     A,#0x8
        LCALL   ?XSTACK_DISP0_8
        MOV     A,#0x2
        MOVX    @DPTR,A
//  335     dstAddr.addr.shortAddr = ZDAppNwkAddr.addr.shortAddr;
        MOV     DPTR,#ZDAppNwkAddr
        LCALL   ?Subroutine52 & 0xFFFF
//  336   }
??CrossCallReturnLabel_86:
        MOV     A,R0
        MOVX    @DPTR,A
        INC     DPTR
        MOV     A,R1
??ZDP_NwkAddrReq_1:
        MOVX    @DPTR,A
//  337 
//  338   pBuf = osal_cpyExtAddr( pBuf, IEEEAddress );
        ; Setup parameters for call to function sAddrExtCpy
        MOV     A,R6
        MOV     R4,A
        MOV     A,R7
        MOV     R5,A
        MOV     R2,?V0
        MOV     R3,?V1
        LCALL   `??sAddrExtCpy::?relay`; Banked call to: sAddrExtCpy
        MOV     DPL,R2
        MOV     DPH,R3
//  339 
//  340   *pBuf++ = ReqType;
        MOV     A,?V2
        MOVX    @DPTR,A
//  341   *pBuf++ = StartIndex;
        INC     DPTR
        MOV     A,?V3
        MOVX    @DPTR,A
//  342 
//  343   return fillAndSend( &ZDP_TransID, &dstAddr, NWK_addr_req, len );
        ; Setup parameters for call to function fillAndSend
        CLR     A
        MOV     ?V0,A
        MOV     ?V1,A
        MOV     R0,#?V0
        LCALL   ?PUSH_XSTACK_I_TWO
          CFI CFA_XSP16 add(XSP16, 23)
        MOV     R1,#0xa
        MOV     A,#0x2
        LCALL   ?XSTACK_DISP102_8
          CFI EndBlock cfiBlock3
        REQUIRE ?Subroutine9
        ; // Fall through to label ?Subroutine9
//  344 }

        RSEG BANKED_CODE:CODE:NOROOT(0)
?Subroutine9:
          CFI Block cfiBlock4 Using cfiCommon0
          CFI NoFunction
          CFI CFA_SP SP+0
          CFI CFA_XSP16 add(XSP16, 23)
          CFI VB load(1, XDATA, add(CFA_XSP16, literal(-11)))
          CFI DPL0 load(1, XDATA, add(CFA_XSP16, literal(-2)))
          CFI DPH0 load(1, XDATA, add(CFA_XSP16, literal(-1)))
          CFI R6 load(1, XDATA, add(CFA_XSP16, literal(-12)))
          CFI R7 load(1, XDATA, add(CFA_XSP16, literal(-6)))
          CFI V0 load(1, XDATA, add(CFA_XSP16, literal(-10)))
          CFI V1 load(1, XDATA, add(CFA_XSP16, literal(-9)))
          CFI V2 load(1, XDATA, add(CFA_XSP16, literal(-8)))
          CFI V3 load(1, XDATA, add(CFA_XSP16, literal(-7)))
          CFI ?BRET_EXT load(1, XDATA, add(CFA_XSP16, literal(-3)))
          CFI ?RET_HIGH load(1, XDATA, add(CFA_XSP16, literal(-4)))
          CFI ?RET_LOW load(1, XDATA, add(CFA_XSP16, literal(-5)))
        MOV     R2,#ZDP_TransID & 0xff
        MOV     R3,#(ZDP_TransID >> 8) & 0xff
        LCALL   `??fillAndSend::?relay`; Banked call to: fillAndSend
        MOV     A,#0x2
        LCALL   ?DEALLOC_XSTACK8
          CFI CFA_XSP16 add(XSP16, 21)
        MOV     A,#0x9
        SJMP    ??Subroutine103_0
          CFI EndBlock cfiBlock4

        RSEG BANKED_CODE:CODE:NOROOT(0)
?Subroutine52:
          CFI Block cfiCond5 Using cfiCommon0
          CFI Function fillAndSend
          CFI Conditional ??CrossCallReturnLabel_85
          CFI R6 load(1, XDATA, add(CFA_XSP16, literal(-14)))
          CFI VB load(1, XDATA, add(CFA_XSP16, literal(-13)))
          CFI V0 load(1, XDATA, add(CFA_XSP16, literal(-12)))
          CFI V1 load(1, XDATA, add(CFA_XSP16, literal(-11)))
          CFI V2 load(1, XDATA, add(CFA_XSP16, literal(-10)))
          CFI V3 load(1, XDATA, add(CFA_XSP16, literal(-9)))
          CFI V4 load(1, XDATA, add(CFA_XSP16, literal(-8)))
          CFI V5 load(1, XDATA, add(CFA_XSP16, literal(-7)))
          CFI R7 load(1, XDATA, add(CFA_XSP16, literal(-6)))
          CFI ?RET_LOW load(1, XDATA, add(CFA_XSP16, literal(-5)))
          CFI ?RET_HIGH load(1, XDATA, add(CFA_XSP16, literal(-4)))
          CFI ?BRET_EXT load(1, XDATA, add(CFA_XSP16, literal(-3)))
          CFI DPL0 load(1, XDATA, add(CFA_XSP16, literal(-2)))
          CFI DPH0 load(1, XDATA, add(CFA_XSP16, literal(-1)))
          CFI CFA_SP SP+-2
          CFI CFA_XSP16 add(XSP16, 26)
          CFI Block cfiCond6 Using cfiCommon0
          CFI (cfiCond6) Function ZDP_NwkAddrReq
          CFI (cfiCond6) Conditional ??CrossCallReturnLabel_86
          CFI (cfiCond6) R6 load(1, XDATA, add(CFA_XSP16, literal(-12)))
          CFI (cfiCond6) VB load(1, XDATA, add(CFA_XSP16, literal(-11)))
          CFI (cfiCond6) V0 load(1, XDATA, add(CFA_XSP16, literal(-10)))
          CFI (cfiCond6) V1 load(1, XDATA, add(CFA_XSP16, literal(-9)))
          CFI (cfiCond6) V2 load(1, XDATA, add(CFA_XSP16, literal(-8)))
          CFI (cfiCond6) V3 load(1, XDATA, add(CFA_XSP16, literal(-7)))
          CFI (cfiCond6) R7 load(1, XDATA, add(CFA_XSP16, literal(-6)))
          CFI (cfiCond6) ?RET_LOW load(1, XDATA, add(CFA_XSP16, literal(-5)))
          CFI (cfiCond6) ?RET_HIGH load(1, XDATA, add(CFA_XSP16, literal(-4)))
          CFI (cfiCond6) ?BRET_EXT load(1, XDATA, add(CFA_XSP16, literal(-3)))
          CFI (cfiCond6) DPL0 load(1, XDATA, add(CFA_XSP16, literal(-2)))
          CFI (cfiCond6) DPH0 load(1, XDATA, add(CFA_XSP16, literal(-1)))
          CFI (cfiCond6) CFA_SP SP+-2
          CFI (cfiCond6) CFA_XSP16 add(XSP16, 21)
          CFI Block cfiPicker7 Using cfiCommon1
          CFI (cfiPicker7) NoFunction
          CFI (cfiPicker7) Picker
        LCALL   ?Subroutine79 & 0xFFFF
??CrossCallReturnLabel_272:
        MOV     DPL,?XSP + 0
        MOV     DPH,?XSP + 1
        RET
          CFI EndBlock cfiCond5
          CFI EndBlock cfiCond6
          CFI EndBlock cfiPicker7

        RSEG BANKED_CODE:CODE:NOROOT(0)
?Subroutine44:
          CFI Block cfiCond8 Using cfiCommon0
          CFI Function ZDP_NwkAddrReq
          CFI Conditional ??CrossCallReturnLabel_170
          CFI R6 load(1, XDATA, add(CFA_XSP16, literal(-12)))
          CFI VB load(1, XDATA, add(CFA_XSP16, literal(-11)))
          CFI V0 load(1, XDATA, add(CFA_XSP16, literal(-10)))
          CFI V1 load(1, XDATA, add(CFA_XSP16, literal(-9)))
          CFI V2 load(1, XDATA, add(CFA_XSP16, literal(-8)))
          CFI V3 load(1, XDATA, add(CFA_XSP16, literal(-7)))
          CFI R7 load(1, XDATA, add(CFA_XSP16, literal(-6)))
          CFI ?RET_LOW load(1, XDATA, add(CFA_XSP16, literal(-5)))
          CFI ?RET_HIGH load(1, XDATA, add(CFA_XSP16, literal(-4)))
          CFI ?BRET_EXT load(1, XDATA, add(CFA_XSP16, literal(-3)))
          CFI DPL0 load(1, XDATA, add(CFA_XSP16, literal(-2)))
          CFI DPH0 load(1, XDATA, add(CFA_XSP16, literal(-1)))
          CFI CFA_SP SP+-2
          CFI CFA_XSP16 add(XSP16, 21)
          CFI Block cfiCond9 Using cfiCommon0
          CFI (cfiCond9) Function ZDP_SimpleDescMsg
          CFI (cfiCond9) Conditional ??CrossCallReturnLabel_171
          CFI (cfiCond9) R6 load(1, XDATA, add(CFA_XSP16, literal(-20)))
          CFI (cfiCond9) VB load(1, XDATA, add(CFA_XSP16, literal(-19)))
          CFI (cfiCond9) V0 load(1, XDATA, add(CFA_XSP16, literal(-18)))
          CFI (cfiCond9) V1 load(1, XDATA, add(CFA_XSP16, literal(-17)))
          CFI (cfiCond9) V2 load(1, XDATA, add(CFA_XSP16, literal(-16)))
          CFI (cfiCond9) V3 load(1, XDATA, add(CFA_XSP16, literal(-15)))
          CFI (cfiCond9) V4 load(1, XDATA, add(CFA_XSP16, literal(-14)))
          CFI (cfiCond9) V5 load(1, XDATA, add(CFA_XSP16, literal(-13)))
          CFI (cfiCond9) V6 load(1, XDATA, add(CFA_XSP16, literal(-12)))
          CFI (cfiCond9) V7 load(1, XDATA, add(CFA_XSP16, literal(-11)))
          CFI (cfiCond9) V8 load(1, XDATA, add(CFA_XSP16, literal(-10)))
          CFI (cfiCond9) V9 load(1, XDATA, add(CFA_XSP16, literal(-9)))
          CFI (cfiCond9) V10 load(1, XDATA, add(CFA_XSP16, literal(-8)))
          CFI (cfiCond9) V11 load(1, XDATA, add(CFA_XSP16, literal(-7)))
          CFI (cfiCond9) R7 load(1, XDATA, add(CFA_XSP16, literal(-6)))
          CFI (cfiCond9) ?RET_LOW load(1, XDATA, add(CFA_XSP16, literal(-5)))
          CFI (cfiCond9) ?RET_HIGH load(1, XDATA, add(CFA_XSP16, literal(-4)))
          CFI (cfiCond9) ?BRET_EXT load(1, XDATA, add(CFA_XSP16, literal(-3)))
          CFI (cfiCond9) DPL0 load(1, XDATA, add(CFA_XSP16, literal(-2)))
          CFI (cfiCond9) DPH0 load(1, XDATA, add(CFA_XSP16, literal(-1)))
          CFI (cfiCond9) CFA_SP SP+-2
          CFI (cfiCond9) CFA_XSP16 add(XSP16, 20)
          CFI Block cfiCond10 Using cfiCommon0
          CFI (cfiCond10) Function ZDP_EndDeviceBindReq
          CFI (cfiCond10) Conditional ??CrossCallReturnLabel_172
          CFI (cfiCond10) R6 load(1, XDATA, add(CFA_XSP16, literal(-18)))
          CFI (cfiCond10) VB load(1, XDATA, add(CFA_XSP16, literal(-17)))
          CFI (cfiCond10) V0 load(1, XDATA, add(CFA_XSP16, literal(-16)))
          CFI (cfiCond10) V1 load(1, XDATA, add(CFA_XSP16, literal(-15)))
          CFI (cfiCond10) V2 load(1, XDATA, add(CFA_XSP16, literal(-14)))
          CFI (cfiCond10) V3 load(1, XDATA, add(CFA_XSP16, literal(-13)))
          CFI (cfiCond10) V4 load(1, XDATA, add(CFA_XSP16, literal(-12)))
          CFI (cfiCond10) V5 load(1, XDATA, add(CFA_XSP16, literal(-11)))
          CFI (cfiCond10) V6 load(1, XDATA, add(CFA_XSP16, literal(-10)))
          CFI (cfiCond10) V7 load(1, XDATA, add(CFA_XSP16, literal(-9)))
          CFI (cfiCond10) V8 load(1, XDATA, add(CFA_XSP16, literal(-8)))
          CFI (cfiCond10) V9 load(1, XDATA, add(CFA_XSP16, literal(-7)))
          CFI (cfiCond10) R7 load(1, XDATA, add(CFA_XSP16, literal(-6)))
          CFI (cfiCond10) ?RET_LOW load(1, XDATA, add(CFA_XSP16, literal(-5)))
          CFI (cfiCond10) ?RET_HIGH load(1, XDATA, add(CFA_XSP16, literal(-4)))
          CFI (cfiCond10) ?BRET_EXT load(1, XDATA, add(CFA_XSP16, literal(-3)))
          CFI (cfiCond10) DPL0 load(1, XDATA, add(CFA_XSP16, literal(-2)))
          CFI (cfiCond10) DPH0 load(1, XDATA, add(CFA_XSP16, literal(-1)))
          CFI (cfiCond10) CFA_SP SP+-2
          CFI (cfiCond10) CFA_XSP16 add(XSP16, 18)
          CFI Block cfiPicker11 Using cfiCommon1
          CFI (cfiPicker11) NoFunction
          CFI (cfiPicker11) Picker
        MOV     DPTR,#ZDP_TmpBuf
          CFI EndBlock cfiCond8
          CFI EndBlock cfiCond9
          CFI EndBlock cfiCond10
          CFI EndBlock cfiPicker11
        REQUIRE ??Subroutine101_0
        ; // Fall through to label ??Subroutine101_0

        RSEG BANKED_CODE:CODE:NOROOT(0)
??Subroutine101_0:
          CFI Block cfiCond12 Using cfiCommon0
          CFI Function ZDP_ParentAnnce
          CFI Conditional ??CrossCallReturnLabel_164
          CFI R6 load(1, XDATA, add(CFA_XSP16, literal(-20)))
          CFI VB load(1, XDATA, add(CFA_XSP16, literal(-19)))
          CFI V0 load(1, XDATA, add(CFA_XSP16, literal(-18)))
          CFI V1 load(1, XDATA, add(CFA_XSP16, literal(-17)))
          CFI V2 load(1, XDATA, add(CFA_XSP16, literal(-16)))
          CFI V3 load(1, XDATA, add(CFA_XSP16, literal(-15)))
          CFI V4 load(1, XDATA, add(CFA_XSP16, literal(-14)))
          CFI V5 load(1, XDATA, add(CFA_XSP16, literal(-13)))
          CFI V6 load(1, XDATA, add(CFA_XSP16, literal(-12)))
          CFI V7 load(1, XDATA, add(CFA_XSP16, literal(-11)))
          CFI V8 load(1, XDATA, add(CFA_XSP16, literal(-10)))
          CFI V9 load(1, XDATA, add(CFA_XSP16, literal(-9)))
          CFI V10 load(1, XDATA, add(CFA_XSP16, literal(-8)))
          CFI V11 load(1, XDATA, add(CFA_XSP16, literal(-7)))
          CFI R7 load(1, XDATA, add(CFA_XSP16, literal(-6)))
          CFI ?RET_LOW load(1, XDATA, add(CFA_XSP16, literal(-5)))
          CFI ?RET_HIGH load(1, XDATA, add(CFA_XSP16, literal(-4)))
          CFI ?BRET_EXT load(1, XDATA, add(CFA_XSP16, literal(-3)))
          CFI DPL0 load(1, XDATA, add(CFA_XSP16, literal(-2)))
          CFI DPH0 load(1, XDATA, add(CFA_XSP16, literal(-1)))
          CFI CFA_SP SP+-2
          CFI CFA_XSP16 add(XSP16, 20)
          CFI Block cfiCond13 Using cfiCommon0
          CFI (cfiCond13) Function zdpProcessAddrReq
          CFI (cfiCond13) Conditional ??CrossCallReturnLabel_165
          CFI (cfiCond13) R6 load(1, XDATA, add(CFA_XSP16, literal(-22)))
          CFI (cfiCond13) VB load(1, XDATA, add(CFA_XSP16, literal(-21)))
          CFI (cfiCond13) V0 load(1, XDATA, add(CFA_XSP16, literal(-20)))
          CFI (cfiCond13) V1 load(1, XDATA, add(CFA_XSP16, literal(-19)))
          CFI (cfiCond13) V2 load(1, XDATA, add(CFA_XSP16, literal(-18)))
          CFI (cfiCond13) V3 load(1, XDATA, add(CFA_XSP16, literal(-17)))
          CFI (cfiCond13) V4 load(1, XDATA, add(CFA_XSP16, literal(-16)))
          CFI (cfiCond13) V5 load(1, XDATA, add(CFA_XSP16, literal(-15)))
          CFI (cfiCond13) V6 load(1, XDATA, add(CFA_XSP16, literal(-14)))
          CFI (cfiCond13) V7 load(1, XDATA, add(CFA_XSP16, literal(-13)))
          CFI (cfiCond13) V8 load(1, XDATA, add(CFA_XSP16, literal(-12)))
          CFI (cfiCond13) V9 load(1, XDATA, add(CFA_XSP16, literal(-11)))
          CFI (cfiCond13) V10 load(1, XDATA, add(CFA_XSP16, literal(-10)))
          CFI (cfiCond13) V11 load(1, XDATA, add(CFA_XSP16, literal(-9)))
          CFI (cfiCond13) V12 load(1, XDATA, add(CFA_XSP16, literal(-8)))
          CFI (cfiCond13) V13 load(1, XDATA, add(CFA_XSP16, literal(-7)))
          CFI (cfiCond13) R7 load(1, XDATA, add(CFA_XSP16, literal(-6)))
          CFI (cfiCond13) ?RET_LOW load(1, XDATA, add(CFA_XSP16, literal(-5)))
          CFI (cfiCond13) ?RET_HIGH load(1, XDATA, add(CFA_XSP16, literal(-4)))
          CFI (cfiCond13) ?BRET_EXT load(1, XDATA, add(CFA_XSP16, literal(-3)))
          CFI (cfiCond13) DPL0 load(1, XDATA, add(CFA_XSP16, literal(-2)))
          CFI (cfiCond13) DPH0 load(1, XDATA, add(CFA_XSP16, literal(-1)))
          CFI (cfiCond13) CFA_SP SP+-2
          CFI (cfiCond13) CFA_XSP16 add(XSP16, 36)
          CFI Block cfiCond14 Using cfiCommon0
          CFI (cfiCond14) Function zdpProcessAddrReq
          CFI (cfiCond14) Conditional ??CrossCallReturnLabel_166
          CFI (cfiCond14) R6 load(1, XDATA, add(CFA_XSP16, literal(-22)))
          CFI (cfiCond14) VB load(1, XDATA, add(CFA_XSP16, literal(-21)))
          CFI (cfiCond14) V0 load(1, XDATA, add(CFA_XSP16, literal(-20)))
          CFI (cfiCond14) V1 load(1, XDATA, add(CFA_XSP16, literal(-19)))
          CFI (cfiCond14) V2 load(1, XDATA, add(CFA_XSP16, literal(-18)))
          CFI (cfiCond14) V3 load(1, XDATA, add(CFA_XSP16, literal(-17)))
          CFI (cfiCond14) V4 load(1, XDATA, add(CFA_XSP16, literal(-16)))
          CFI (cfiCond14) V5 load(1, XDATA, add(CFA_XSP16, literal(-15)))
          CFI (cfiCond14) V6 load(1, XDATA, add(CFA_XSP16, literal(-14)))
          CFI (cfiCond14) V7 load(1, XDATA, add(CFA_XSP16, literal(-13)))
          CFI (cfiCond14) V8 load(1, XDATA, add(CFA_XSP16, literal(-12)))
          CFI (cfiCond14) V9 load(1, XDATA, add(CFA_XSP16, literal(-11)))
          CFI (cfiCond14) V10 load(1, XDATA, add(CFA_XSP16, literal(-10)))
          CFI (cfiCond14) V11 load(1, XDATA, add(CFA_XSP16, literal(-9)))
          CFI (cfiCond14) V12 load(1, XDATA, add(CFA_XSP16, literal(-8)))
          CFI (cfiCond14) V13 load(1, XDATA, add(CFA_XSP16, literal(-7)))
          CFI (cfiCond14) R7 load(1, XDATA, add(CFA_XSP16, literal(-6)))
          CFI (cfiCond14) ?RET_LOW load(1, XDATA, add(CFA_XSP16, literal(-5)))
          CFI (cfiCond14) ?RET_HIGH load(1, XDATA, add(CFA_XSP16, literal(-4)))
          CFI (cfiCond14) ?BRET_EXT load(1, XDATA, add(CFA_XSP16, literal(-3)))
          CFI (cfiCond14) DPL0 load(1, XDATA, add(CFA_XSP16, literal(-2)))
          CFI (cfiCond14) DPH0 load(1, XDATA, add(CFA_XSP16, literal(-1)))
          CFI (cfiCond14) CFA_SP SP+-2
          CFI (cfiCond14) CFA_XSP16 add(XSP16, 36)
          CFI Block cfiCond15 Using cfiCommon0
          CFI (cfiCond15) Function zdpProcessAddrReq
          CFI (cfiCond15) Conditional ??CrossCallReturnLabel_167
          CFI (cfiCond15) R6 load(1, XDATA, add(CFA_XSP16, literal(-22)))
          CFI (cfiCond15) VB load(1, XDATA, add(CFA_XSP16, literal(-21)))
          CFI (cfiCond15) V0 load(1, XDATA, add(CFA_XSP16, literal(-20)))
          CFI (cfiCond15) V1 load(1, XDATA, add(CFA_XSP16, literal(-19)))
          CFI (cfiCond15) V2 load(1, XDATA, add(CFA_XSP16, literal(-18)))
          CFI (cfiCond15) V3 load(1, XDATA, add(CFA_XSP16, literal(-17)))
          CFI (cfiCond15) V4 load(1, XDATA, add(CFA_XSP16, literal(-16)))
          CFI (cfiCond15) V5 load(1, XDATA, add(CFA_XSP16, literal(-15)))
          CFI (cfiCond15) V6 load(1, XDATA, add(CFA_XSP16, literal(-14)))
          CFI (cfiCond15) V7 load(1, XDATA, add(CFA_XSP16, literal(-13)))
          CFI (cfiCond15) V8 load(1, XDATA, add(CFA_XSP16, literal(-12)))
          CFI (cfiCond15) V9 load(1, XDATA, add(CFA_XSP16, literal(-11)))
          CFI (cfiCond15) V10 load(1, XDATA, add(CFA_XSP16, literal(-10)))
          CFI (cfiCond15) V11 load(1, XDATA, add(CFA_XSP16, literal(-9)))
          CFI (cfiCond15) V12 load(1, XDATA, add(CFA_XSP16, literal(-8)))
          CFI (cfiCond15) V13 load(1, XDATA, add(CFA_XSP16, literal(-7)))
          CFI (cfiCond15) R7 load(1, XDATA, add(CFA_XSP16, literal(-6)))
          CFI (cfiCond15) ?RET_LOW load(1, XDATA, add(CFA_XSP16, literal(-5)))
          CFI (cfiCond15) ?RET_HIGH load(1, XDATA, add(CFA_XSP16, literal(-4)))
          CFI (cfiCond15) ?BRET_EXT load(1, XDATA, add(CFA_XSP16, literal(-3)))
          CFI (cfiCond15) DPL0 load(1, XDATA, add(CFA_XSP16, literal(-2)))
          CFI (cfiCond15) DPH0 load(1, XDATA, add(CFA_XSP16, literal(-1)))
          CFI (cfiCond15) CFA_SP SP+-2
          CFI (cfiCond15) CFA_XSP16 add(XSP16, 36)
          CFI Block cfiCond16 Using cfiCommon0
          CFI (cfiCond16) Function ZDO_SendMsgCBs
          CFI (cfiCond16) Conditional ??CrossCallReturnLabel_168
          CFI (cfiCond16) R6 load(1, XDATA, add(CFA_XSP16, literal(-18)))
          CFI (cfiCond16) VB load(1, XDATA, add(CFA_XSP16, literal(-17)))
          CFI (cfiCond16) V0 load(1, XDATA, add(CFA_XSP16, literal(-16)))
          CFI (cfiCond16) V1 load(1, XDATA, add(CFA_XSP16, literal(-15)))
          CFI (cfiCond16) V2 load(1, XDATA, add(CFA_XSP16, literal(-14)))
          CFI (cfiCond16) V3 load(1, XDATA, add(CFA_XSP16, literal(-13)))
          CFI (cfiCond16) V4 load(1, XDATA, add(CFA_XSP16, literal(-12)))
          CFI (cfiCond16) V5 load(1, XDATA, add(CFA_XSP16, literal(-11)))
          CFI (cfiCond16) V6 load(1, XDATA, add(CFA_XSP16, literal(-10)))
          CFI (cfiCond16) V7 load(1, XDATA, add(CFA_XSP16, literal(-9)))
          CFI (cfiCond16) V8 load(1, XDATA, add(CFA_XSP16, literal(-8)))
          CFI (cfiCond16) V9 load(1, XDATA, add(CFA_XSP16, literal(-7)))
          CFI (cfiCond16) R7 load(1, XDATA, add(CFA_XSP16, literal(-6)))
          CFI (cfiCond16) ?RET_LOW load(1, XDATA, add(CFA_XSP16, literal(-5)))
          CFI (cfiCond16) ?RET_HIGH load(1, XDATA, add(CFA_XSP16, literal(-4)))
          CFI (cfiCond16) ?BRET_EXT load(1, XDATA, add(CFA_XSP16, literal(-3)))
          CFI (cfiCond16) DPL0 load(1, XDATA, add(CFA_XSP16, literal(-2)))
          CFI (cfiCond16) DPH0 load(1, XDATA, add(CFA_XSP16, literal(-1)))
          CFI (cfiCond16) CFA_SP SP+-2
          CFI (cfiCond16) CFA_XSP16 add(XSP16, 18)
          CFI Block cfiCond17 Using cfiCommon0
          CFI (cfiCond17) Function ZDO_SendMsgCBs
          CFI (cfiCond17) Conditional ??CrossCallReturnLabel_169
          CFI (cfiCond17) R6 load(1, XDATA, add(CFA_XSP16, literal(-18)))
          CFI (cfiCond17) VB load(1, XDATA, add(CFA_XSP16, literal(-17)))
          CFI (cfiCond17) V0 load(1, XDATA, add(CFA_XSP16, literal(-16)))
          CFI (cfiCond17) V1 load(1, XDATA, add(CFA_XSP16, literal(-15)))
          CFI (cfiCond17) V2 load(1, XDATA, add(CFA_XSP16, literal(-14)))
          CFI (cfiCond17) V3 load(1, XDATA, add(CFA_XSP16, literal(-13)))
          CFI (cfiCond17) V4 load(1, XDATA, add(CFA_XSP16, literal(-12)))
          CFI (cfiCond17) V5 load(1, XDATA, add(CFA_XSP16, literal(-11)))
          CFI (cfiCond17) V6 load(1, XDATA, add(CFA_XSP16, literal(-10)))
          CFI (cfiCond17) V7 load(1, XDATA, add(CFA_XSP16, literal(-9)))
          CFI (cfiCond17) V8 load(1, XDATA, add(CFA_XSP16, literal(-8)))
          CFI (cfiCond17) V9 load(1, XDATA, add(CFA_XSP16, literal(-7)))
          CFI (cfiCond17) R7 load(1, XDATA, add(CFA_XSP16, literal(-6)))
          CFI (cfiCond17) ?RET_LOW load(1, XDATA, add(CFA_XSP16, literal(-5)))
          CFI (cfiCond17) ?RET_HIGH load(1, XDATA, add(CFA_XSP16, literal(-4)))
          CFI (cfiCond17) ?BRET_EXT load(1, XDATA, add(CFA_XSP16, literal(-3)))
          CFI (cfiCond17) DPL0 load(1, XDATA, add(CFA_XSP16, literal(-2)))
          CFI (cfiCond17) DPH0 load(1, XDATA, add(CFA_XSP16, literal(-1)))
          CFI (cfiCond17) CFA_SP SP+-2
          CFI (cfiCond17) CFA_XSP16 add(XSP16, 18)
          CFI Block cfiCond18 Using cfiCommon0
          CFI (cfiCond18) Function ZDP_NwkAddrReq
          CFI (cfiCond18) Conditional ??CrossCallReturnLabel_170
          CFI (cfiCond18) R6 load(1, XDATA, add(CFA_XSP16, literal(-12)))
          CFI (cfiCond18) VB load(1, XDATA, add(CFA_XSP16, literal(-11)))
          CFI (cfiCond18) V0 load(1, XDATA, add(CFA_XSP16, literal(-10)))
          CFI (cfiCond18) V1 load(1, XDATA, add(CFA_XSP16, literal(-9)))
          CFI (cfiCond18) V2 load(1, XDATA, add(CFA_XSP16, literal(-8)))
          CFI (cfiCond18) V3 load(1, XDATA, add(CFA_XSP16, literal(-7)))
          CFI (cfiCond18) R7 load(1, XDATA, add(CFA_XSP16, literal(-6)))
          CFI (cfiCond18) ?RET_LOW load(1, XDATA, add(CFA_XSP16, literal(-5)))
          CFI (cfiCond18) ?RET_HIGH load(1, XDATA, add(CFA_XSP16, literal(-4)))
          CFI (cfiCond18) ?BRET_EXT load(1, XDATA, add(CFA_XSP16, literal(-3)))
          CFI (cfiCond18) DPL0 load(1, XDATA, add(CFA_XSP16, literal(-2)))
          CFI (cfiCond18) DPH0 load(1, XDATA, add(CFA_XSP16, literal(-1)))
          CFI (cfiCond18) CFA_SP SP+-2
          CFI (cfiCond18) CFA_XSP16 add(XSP16, 21)
          CFI Block cfiCond19 Using cfiCommon0
          CFI (cfiCond19) Function ZDP_SimpleDescMsg
          CFI (cfiCond19) Conditional ??CrossCallReturnLabel_171
          CFI (cfiCond19) R6 load(1, XDATA, add(CFA_XSP16, literal(-20)))
          CFI (cfiCond19) VB load(1, XDATA, add(CFA_XSP16, literal(-19)))
          CFI (cfiCond19) V0 load(1, XDATA, add(CFA_XSP16, literal(-18)))
          CFI (cfiCond19) V1 load(1, XDATA, add(CFA_XSP16, literal(-17)))
          CFI (cfiCond19) V2 load(1, XDATA, add(CFA_XSP16, literal(-16)))
          CFI (cfiCond19) V3 load(1, XDATA, add(CFA_XSP16, literal(-15)))
          CFI (cfiCond19) V4 load(1, XDATA, add(CFA_XSP16, literal(-14)))
          CFI (cfiCond19) V5 load(1, XDATA, add(CFA_XSP16, literal(-13)))
          CFI (cfiCond19) V6 load(1, XDATA, add(CFA_XSP16, literal(-12)))
          CFI (cfiCond19) V7 load(1, XDATA, add(CFA_XSP16, literal(-11)))
          CFI (cfiCond19) V8 load(1, XDATA, add(CFA_XSP16, literal(-10)))
          CFI (cfiCond19) V9 load(1, XDATA, add(CFA_XSP16, literal(-9)))
          CFI (cfiCond19) V10 load(1, XDATA, add(CFA_XSP16, literal(-8)))
          CFI (cfiCond19) V11 load(1, XDATA, add(CFA_XSP16, literal(-7)))
          CFI (cfiCond19) R7 load(1, XDATA, add(CFA_XSP16, literal(-6)))
          CFI (cfiCond19) ?RET_LOW load(1, XDATA, add(CFA_XSP16, literal(-5)))
          CFI (cfiCond19) ?RET_HIGH load(1, XDATA, add(CFA_XSP16, literal(-4)))
          CFI (cfiCond19) ?BRET_EXT load(1, XDATA, add(CFA_XSP16, literal(-3)))
          CFI (cfiCond19) DPL0 load(1, XDATA, add(CFA_XSP16, literal(-2)))
          CFI (cfiCond19) DPH0 load(1, XDATA, add(CFA_XSP16, literal(-1)))
          CFI (cfiCond19) CFA_SP SP+-2
          CFI (cfiCond19) CFA_XSP16 add(XSP16, 20)
          CFI Block cfiCond20 Using cfiCommon0
          CFI (cfiCond20) Function ZDP_EndDeviceBindReq
          CFI (cfiCond20) Conditional ??CrossCallReturnLabel_172
          CFI (cfiCond20) R6 load(1, XDATA, add(CFA_XSP16, literal(-18)))
          CFI (cfiCond20) VB load(1, XDATA, add(CFA_XSP16, literal(-17)))
          CFI (cfiCond20) V0 load(1, XDATA, add(CFA_XSP16, literal(-16)))
          CFI (cfiCond20) V1 load(1, XDATA, add(CFA_XSP16, literal(-15)))
          CFI (cfiCond20) V2 load(1, XDATA, add(CFA_XSP16, literal(-14)))
          CFI (cfiCond20) V3 load(1, XDATA, add(CFA_XSP16, literal(-13)))
          CFI (cfiCond20) V4 load(1, XDATA, add(CFA_XSP16, literal(-12)))
          CFI (cfiCond20) V5 load(1, XDATA, add(CFA_XSP16, literal(-11)))
          CFI (cfiCond20) V6 load(1, XDATA, add(CFA_XSP16, literal(-10)))
          CFI (cfiCond20) V7 load(1, XDATA, add(CFA_XSP16, literal(-9)))
          CFI (cfiCond20) V8 load(1, XDATA, add(CFA_XSP16, literal(-8)))
          CFI (cfiCond20) V9 load(1, XDATA, add(CFA_XSP16, literal(-7)))
          CFI (cfiCond20) R7 load(1, XDATA, add(CFA_XSP16, literal(-6)))
          CFI (cfiCond20) ?RET_LOW load(1, XDATA, add(CFA_XSP16, literal(-5)))
          CFI (cfiCond20) ?RET_HIGH load(1, XDATA, add(CFA_XSP16, literal(-4)))
          CFI (cfiCond20) ?BRET_EXT load(1, XDATA, add(CFA_XSP16, literal(-3)))
          CFI (cfiCond20) DPL0 load(1, XDATA, add(CFA_XSP16, literal(-2)))
          CFI (cfiCond20) DPH0 load(1, XDATA, add(CFA_XSP16, literal(-1)))
          CFI (cfiCond20) CFA_SP SP+-2
          CFI (cfiCond20) CFA_XSP16 add(XSP16, 18)
          CFI Block cfiPicker21 Using cfiCommon1
          CFI (cfiPicker21) NoFunction
          CFI (cfiPicker21) Picker
        MOVX    A,@DPTR
        MOV     ?V0,A
        INC     DPTR
        MOVX    A,@DPTR
        MOV     ?V1,A
        RET
          CFI EndBlock cfiCond12
          CFI EndBlock cfiCond13
          CFI EndBlock cfiCond14
          CFI EndBlock cfiCond15
          CFI EndBlock cfiCond16
          CFI EndBlock cfiCond17
          CFI EndBlock cfiCond18
          CFI EndBlock cfiCond19
          CFI EndBlock cfiCond20
          CFI EndBlock cfiPicker21

        RSEG BANKED_CODE:CODE:NOROOT(0)
?Subroutine1:
          CFI Block cfiBlock22 Using cfiCommon0
          CFI NoFunction
          CFI CFA_SP SP+0
          CFI CFA_XSP16 add(XSP16, 12)
          CFI VB load(1, XDATA, add(CFA_XSP16, literal(-11)))
          CFI DPL0 load(1, XDATA, add(CFA_XSP16, literal(-2)))
          CFI DPH0 load(1, XDATA, add(CFA_XSP16, literal(-1)))
          CFI R6 load(1, XDATA, add(CFA_XSP16, literal(-12)))
          CFI R7 load(1, XDATA, add(CFA_XSP16, literal(-6)))
          CFI V0 load(1, XDATA, add(CFA_XSP16, literal(-10)))
          CFI V1 load(1, XDATA, add(CFA_XSP16, literal(-9)))
          CFI V2 load(1, XDATA, add(CFA_XSP16, literal(-8)))
          CFI V3 load(1, XDATA, add(CFA_XSP16, literal(-7)))
          CFI ?BRET_EXT load(1, XDATA, add(CFA_XSP16, literal(-3)))
          CFI ?RET_HIGH load(1, XDATA, add(CFA_XSP16, literal(-4)))
          CFI ?RET_LOW load(1, XDATA, add(CFA_XSP16, literal(-5)))
        MOV     ?V3,#0x0
        MOV     R0,#?V2
        LCALL   ?PUSH_XSTACK_I_TWO
          CFI CFA_XSP16 add(XSP16, 14)
        MOV     R1,#0x9
          CFI EndBlock cfiBlock22
        REQUIRE ??Subroutine102_0
        ; // Fall through to label ??Subroutine102_0

        RSEG BANKED_CODE:CODE:NOROOT(0)
??Subroutine102_0:
          CFI Block cfiBlock23 Using cfiCommon0
          CFI NoFunction
          CFI CFA_SP SP+0
          CFI CFA_XSP16 add(XSP16, 14)
          CFI VB load(1, XDATA, add(CFA_XSP16, literal(-11)))
          CFI DPL0 load(1, XDATA, add(CFA_XSP16, literal(-2)))
          CFI DPH0 load(1, XDATA, add(CFA_XSP16, literal(-1)))
          CFI R6 load(1, XDATA, add(CFA_XSP16, literal(-12)))
          CFI R7 load(1, XDATA, add(CFA_XSP16, literal(-6)))
          CFI V0 load(1, XDATA, add(CFA_XSP16, literal(-10)))
          CFI V1 load(1, XDATA, add(CFA_XSP16, literal(-9)))
          CFI V2 load(1, XDATA, add(CFA_XSP16, literal(-8)))
          CFI V3 load(1, XDATA, add(CFA_XSP16, literal(-7)))
          CFI ?BRET_EXT load(1, XDATA, add(CFA_XSP16, literal(-3)))
          CFI ?RET_HIGH load(1, XDATA, add(CFA_XSP16, literal(-4)))
          CFI ?RET_LOW load(1, XDATA, add(CFA_XSP16, literal(-5)))
        MOV     A,R6
        MOV     R4,A
        MOV     A,R7
        MOV     R5,A
        MOV     R2,#ZDP_TransID & 0xff
        MOV     R3,#(ZDP_TransID >> 8) & 0xff
        LCALL   `??fillAndSend::?relay`; Banked call to: fillAndSend
        MOV     A,#0x2
          CFI EndBlock cfiBlock23
        REQUIRE ??Subroutine103_0
        ; // Fall through to label ??Subroutine103_0

        RSEG BANKED_CODE:CODE:NOROOT(0)
??Subroutine103_0:
          CFI Block cfiBlock24 Using cfiCommon0
          CFI NoFunction
          CFI CFA_SP SP+0
          CFI CFA_XSP16 add(XSP16, 21)
          CFI VB load(1, XDATA, add(CFA_XSP16, literal(-11)))
          CFI DPL0 load(1, XDATA, add(CFA_XSP16, literal(-2)))
          CFI DPH0 load(1, XDATA, add(CFA_XSP16, literal(-1)))
          CFI R6 load(1, XDATA, add(CFA_XSP16, literal(-12)))
          CFI R7 load(1, XDATA, add(CFA_XSP16, literal(-6)))
          CFI V0 load(1, XDATA, add(CFA_XSP16, literal(-10)))
          CFI V1 load(1, XDATA, add(CFA_XSP16, literal(-9)))
          CFI V2 load(1, XDATA, add(CFA_XSP16, literal(-8)))
          CFI V3 load(1, XDATA, add(CFA_XSP16, literal(-7)))
          CFI ?BRET_EXT load(1, XDATA, add(CFA_XSP16, literal(-3)))
          CFI ?RET_HIGH load(1, XDATA, add(CFA_XSP16, literal(-4)))
          CFI ?RET_LOW load(1, XDATA, add(CFA_XSP16, literal(-5)))
          CFI Invalid
        LCALL   ?DEALLOC_XSTACK8
          CFI EndBlock cfiBlock24
        REQUIRE ??Subroutine104_0
        ; // Fall through to label ??Subroutine104_0

        RSEG BANKED_CODE:CODE:NOROOT(0)
??Subroutine104_0:
          CFI Block cfiBlock25 Using cfiCommon0
          CFI NoFunction
          CFI CFA_SP SP+0
          CFI CFA_XSP16 add(XSP16, 12)
          CFI VB load(1, XDATA, add(CFA_XSP16, literal(-11)))
          CFI DPL0 load(1, XDATA, add(CFA_XSP16, literal(-2)))
          CFI DPH0 load(1, XDATA, add(CFA_XSP16, literal(-1)))
          CFI R6 load(1, XDATA, add(CFA_XSP16, literal(-12)))
          CFI R7 load(1, XDATA, add(CFA_XSP16, literal(-6)))
          CFI V0 load(1, XDATA, add(CFA_XSP16, literal(-10)))
          CFI V1 load(1, XDATA, add(CFA_XSP16, literal(-9)))
          CFI V2 load(1, XDATA, add(CFA_XSP16, literal(-8)))
          CFI V3 load(1, XDATA, add(CFA_XSP16, literal(-7)))
          CFI ?BRET_EXT load(1, XDATA, add(CFA_XSP16, literal(-3)))
          CFI ?RET_HIGH load(1, XDATA, add(CFA_XSP16, literal(-4)))
          CFI ?RET_LOW load(1, XDATA, add(CFA_XSP16, literal(-5)))
        MOV     R7,#0x4
        LJMP    ?BANKED_LEAVE_XDATA
          CFI EndBlock cfiBlock25
//  345 
//  346 /*********************************************************************
//  347  * @fn          ZDP_IEEEAddrReq
//  348  *
//  349  * @brief       This builds and send a IEEE_addr_req message.  This
//  350  *              function sends a unicast message looking for a 64
//  351  *              bit IEEE address with a 16 bit address as bait.
//  352  *
//  353  * @param       ReqType - ZDP_IEEEADDR_REQTYPE_SINGLE or
//  354  *                        ZDP_IEEEADDR_REQTYPE_EXTENDED
//  355  * @param       SecurityEnable - Security Options
//  356  *
//  357  * @return      afStatus_t
//  358  */

        RSEG BANKED_CODE:CODE:NOROOT(0)
//  359 afStatus_t ZDP_IEEEAddrReq( uint16 shortAddr, byte ReqType,
ZDP_IEEEAddrReq:
          CFI Block cfiBlock26 Using cfiCommon0
          CFI Function ZDP_IEEEAddrReq
        CODE
//  360                             byte StartIndex, byte SecurityEnable )
//  361 {
        FUNCALL ZDP_IEEEAddrReq, fillAndSend
        LOCFRAME ISTACK, 0, STACK
        LOCFRAME PSTACK, 0, STACK
        LOCFRAME XSTACK, 21, STACK
        LOCFRAME IOVERLAY, 0, STATIC
        LOCFRAME DOVERLAY, 0, STATIC
        ARGFRAME ISTACK, 0, STACK
        ARGFRAME PSTACK, 0, STACK
        ARGFRAME XSTACK, 21, STACK
        ARGFRAME IOVERLAY, 0, STATIC
        ARGFRAME DOVERLAY, 0, STATIC
        REQUIRE ?V0
        REQUIRE ?V1
        MOV     A,#-0xa
        LCALL   ?BANKED_ENTER_XDATA
          CFI DPH0 load(1, XDATA, add(CFA_XSP16, literal(-1)))
          CFI DPL0 load(1, XDATA, add(CFA_XSP16, literal(-2)))
          CFI ?BRET_EXT load(1, XDATA, add(CFA_XSP16, literal(-3)))
          CFI ?RET_HIGH load(1, XDATA, add(CFA_XSP16, literal(-4)))
          CFI ?RET_LOW load(1, XDATA, add(CFA_XSP16, literal(-5)))
          CFI R7 load(1, XDATA, add(CFA_XSP16, literal(-6)))
          CFI V1 load(1, XDATA, add(CFA_XSP16, literal(-7)))
          CFI V0 load(1, XDATA, add(CFA_XSP16, literal(-8)))
          CFI VB load(1, XDATA, add(CFA_XSP16, literal(-9)))
          CFI R6 load(1, XDATA, add(CFA_XSP16, literal(-10)))
          CFI CFA_SP SP+0
          CFI CFA_XSP16 add(XSP16, 10)
        ; Saved register size: 10
        ; Auto size: 9
        MOV     A,#-0x9
        LCALL   ?ALLOC_XSTACK8
          CFI CFA_XSP16 add(XSP16, 19)
        MOV     A,R1
        MOV     R6,A
        MOV     A,R4
        MOV     R7,A
//  362   uint8 *pBuf = ZDP_TmpBuf;
        LCALL   ??Subroutine125_0 & 0xFFFF
//  363   byte len = 2 + 1 + 1;  // shortAddr + ReqType + StartIndex.
//  364   zAddrType_t dstAddr;
//  365 
//  366   (void)SecurityEnable;  // Intentionally unreferenced parameter
//  367 
//  368   dstAddr.addrMode = (afAddrMode_t)Addr16Bit;
??CrossCallReturnLabel_269:
        MOV     A,#0x8
        LCALL   ?XSTACK_DISP0_8
        MOV     A,#0x2
        MOVX    @DPTR,A
//  369   dstAddr.addr.shortAddr = shortAddr;
        MOV     DPL,?XSP + 0
        MOV     DPH,?XSP + 1
        MOV     A,R2
        MOVX    @DPTR,A
        INC     DPTR
        MOV     A,R3
        MOVX    @DPTR,A
//  370 
//  371   *pBuf++ = LO_UINT16( shortAddr );
        MOV     A,R2
        MOV     DPL,R0
        MOV     DPH,R1
        MOVX    @DPTR,A
//  372   *pBuf++ = HI_UINT16( shortAddr );
        MOV     A,R3
        LCALL   ?Subroutine41 & 0xFFFF
//  373 
//  374   *pBuf++ = ReqType;
??CrossCallReturnLabel_66:
        MOVX    @DPTR,A
//  375   *pBuf++ = StartIndex;
        MOV     A,R7
        MOV     DPL,R0
        MOV     DPH,R1
        INC     DPTR
        INC     DPTR
        INC     DPTR
        MOVX    @DPTR,A
//  376 
//  377   return fillAndSend( &ZDP_TransID, &dstAddr, IEEE_addr_req, len );
        ; Setup parameters for call to function fillAndSend
        MOV     ?V0,#0x1
        MOV     ?V1,#0x0
        MOV     R0,#?V0
        LCALL   ?PUSH_XSTACK_I_TWO
          CFI CFA_XSP16 add(XSP16, 21)
        MOV     R1,#0x4
        LJMP    ?Subroutine2 & 0xFFFF
//  378 }
          CFI EndBlock cfiBlock26
//  379 
//  380 /*********************************************************************
//  381  * @fn          ZDP_MatchDescReq
//  382  *
//  383  * @brief       This builds and send a Match_Desc_req message.  This
//  384  *              function sends a broadcast or unicast message
//  385  *              requesting the list of endpoint/interfaces that
//  386  *              match profile ID and cluster IDs.
//  387  *
//  388  * @param       dstAddr - destination address
//  389  * @param       nwkAddr - network address of interest
//  390  * @param       ProfileID - Profile ID
//  391  * @param       NumInClusters - number of input clusters
//  392  * @param       InClusterList - input cluster ID list
//  393  * @param       NumOutClusters - number of output clusters
//  394  * @param       OutClusterList - output cluster ID list
//  395  * @param       SecurityEnable - Security Options
//  396  *
//  397  * @return      afStatus_t
//  398  */

        RSEG BANKED_CODE:CODE:NOROOT(0)
//  399 afStatus_t ZDP_MatchDescReq( zAddrType_t *dstAddr, uint16 nwkAddr,
ZDP_MatchDescReq:
          CFI Block cfiBlock27 Using cfiCommon0
          CFI Function ZDP_MatchDescReq
        CODE
//  400                                 uint16 ProfileID,
//  401                                 byte NumInClusters, cId_t *InClusterList,
//  402                                 byte NumOutClusters, cId_t *OutClusterList,
//  403                                 byte SecurityEnable )
//  404 {
        FUNCALL ZDP_MatchDescReq, fillAndSend
        LOCFRAME ISTACK, 0, STACK
        LOCFRAME PSTACK, 0, STACK
        LOCFRAME XSTACK, 16, STACK
        LOCFRAME IOVERLAY, 0, STATIC
        LOCFRAME DOVERLAY, 0, STATIC
        ARGFRAME ISTACK, 0, STACK
        ARGFRAME PSTACK, 0, STACK
        ARGFRAME XSTACK, 16, STACK
        ARGFRAME IOVERLAY, 0, STATIC
        ARGFRAME DOVERLAY, 0, STATIC
        REQUIRE ?V0
        REQUIRE ?V1
        REQUIRE ?V2
        REQUIRE ?V3
        REQUIRE ?V4
        REQUIRE ?V5
        MOV     A,#-0xe
        LCALL   ?BANKED_ENTER_XDATA
          CFI DPH0 load(1, XDATA, add(CFA_XSP16, literal(-1)))
          CFI DPL0 load(1, XDATA, add(CFA_XSP16, literal(-2)))
          CFI ?BRET_EXT load(1, XDATA, add(CFA_XSP16, literal(-3)))
          CFI ?RET_HIGH load(1, XDATA, add(CFA_XSP16, literal(-4)))
          CFI ?RET_LOW load(1, XDATA, add(CFA_XSP16, literal(-5)))
          CFI R7 load(1, XDATA, add(CFA_XSP16, literal(-6)))
          CFI V5 load(1, XDATA, add(CFA_XSP16, literal(-7)))
          CFI V4 load(1, XDATA, add(CFA_XSP16, literal(-8)))
          CFI V3 load(1, XDATA, add(CFA_XSP16, literal(-9)))
          CFI V2 load(1, XDATA, add(CFA_XSP16, literal(-10)))
          CFI V1 load(1, XDATA, add(CFA_XSP16, literal(-11)))
          CFI V0 load(1, XDATA, add(CFA_XSP16, literal(-12)))
          CFI VB load(1, XDATA, add(CFA_XSP16, literal(-13)))
          CFI R6 load(1, XDATA, add(CFA_XSP16, literal(-14)))
          CFI CFA_SP SP+0
          CFI CFA_XSP16 add(XSP16, 14)
        ; Saved register size: 14
        ; Auto size: 0
        LCALL   ?Subroutine60 & 0xFFFF
//  405   uint8 *pBuf = ZDP_TmpBuf;
??CrossCallReturnLabel_257:
        MOV     A,#0x12
        LCALL   ?XSTACK_DISP0_8
        MOVX    A,@DPTR
        MOV     ?V0,A
//  406   // nwkAddr+ProfileID+NumInClusters+NumOutClusters.
//  407   byte i, len = 2 + 2 + 1 + 1;  // nwkAddr+ProfileID+NumInClusters+NumOutClusters.
//  408 
//  409   (void)SecurityEnable;  // Intentionally unreferenced parameter
//  410 
//  411   len += (NumInClusters + NumOutClusters) * sizeof(uint16);
        MOV     A,R6
        ADD     A,?V0
        CLR     C
        RLC     A
        ADD     A,#0x6
        MOV     R7,A
//  412 
//  413   if ( len >= ZDP_BUF_SZ-1 )
        CLR     C
        SUBB    A,#0x4f
        JC      ??ZDP_MatchDescReq_0
//  414   {
//  415     return afStatus_MEM_FAIL;
        MOV     R1,#0x10
        LJMP    ??ZDP_MatchDescReq_1 & 0xFFFF
//  416   }
//  417 
//  418   // The spec changed in Zigbee 2007 (2.4.3.1.7.1) to not allow sending
//  419   // this command to 0xFFFF.  So, here we will filter this and replace
//  420   // with 0xFFFD to only send to devices with RX ON.  This includes the
//  421   // network address of interest.
//  422   if ( ((dstAddr->addrMode == AddrBroadcast) || (dstAddr->addrMode == Addr16Bit))
//  423       && (dstAddr->addr.shortAddr == NWK_BROADCAST_SHORTADDR_DEVALL) )
??ZDP_MatchDescReq_0:
        MOV     DPL,R2
        MOV     DPH,R3
        INC     DPTR
        INC     DPTR
        INC     DPTR
        INC     DPTR
        INC     DPTR
        INC     DPTR
        INC     DPTR
        INC     DPTR
        MOVX    A,@DPTR
        MOV     ?V1,A
        MOV     A,#0xf
        XRL     A,?V1
        JZ      ??ZDP_MatchDescReq_2
        MOV     A,#0x2
        XRL     A,?V1
        JNZ     ??ZDP_MatchDescReq_3
??ZDP_MatchDescReq_2:
        MOV     DPL,R2
        MOV     DPH,R3
        MOVX    A,@DPTR
        CPL     A
        JNZ     ??ZDP_MatchDescReq_4
        INC     DPTR
        MOVX    A,@DPTR
        CPL     A
??ZDP_MatchDescReq_4:
        JNZ     ??ZDP_MatchDescReq_3
//  424   {
//  425     dstAddr->addr.shortAddr = NWK_BROADCAST_SHORTADDR_DEVRXON;
        MOV     DPL,R2
        MOV     DPH,R3
        MOV     A,#-0x3
        MOVX    @DPTR,A
        INC     DPTR
        MOV     A,#-0x1
        MOVX    @DPTR,A
//  426   }
//  427   if ( nwkAddr == NWK_BROADCAST_SHORTADDR_DEVALL )
??ZDP_MatchDescReq_3:
        MOV     A,#-0x1
        XRL     A,R4
        JNZ     ??ZDP_MatchDescReq_5
        MOV     A,#-0x1
        XRL     A,R5
??ZDP_MatchDescReq_5:
        JNZ     ??ZDP_MatchDescReq_6
//  428   {
//  429     nwkAddr = NWK_BROADCAST_SHORTADDR_DEVRXON;
        MOV     R4,#-0x3
        MOV     R5,#-0x1
//  430   }
//  431 
//  432   *pBuf++ = LO_UINT16( nwkAddr );   // NWKAddrOfInterest
??ZDP_MatchDescReq_6:
        MOV     A,R4
        MOV     DPL,R0
        MOV     DPH,R1
        MOVX    @DPTR,A
//  433   *pBuf++ = HI_UINT16( nwkAddr );
        MOV     A,R5
        INC     DPTR
        MOVX    @DPTR,A
        MOV     A,#0xe
        LCALL   ?XSTACK_DISP0_8
        LCALL   ?Subroutine80 & 0xFFFF
//  434 
//  435   *pBuf++ = LO_UINT16( ProfileID );   // Profile ID
??CrossCallReturnLabel_140:
        MOV     A,R4
        MOV     DPL,R0
        MOV     DPH,R1
        INC     DPTR
        INC     DPTR
        MOVX    @DPTR,A
//  436   *pBuf++ = HI_UINT16( ProfileID );
        MOV     A,R5
        MOV     DPL,R0
        MOV     DPH,R1
        INC     DPTR
        INC     DPTR
        LCALL   ?Subroutine41 & 0xFFFF
//  437 
//  438   *pBuf++ = NumInClusters; // Input cluster list
??CrossCallReturnLabel_67:
        INC     DPTR
        INC     DPTR
        MOVX    @DPTR,A
        MOV     A,R0
        ADD     A,#0x5
        MOV     R0,A
        JNC     ??ZDP_MatchDescReq_7
        INC     R1
//  439   if ( NumInClusters )
??ZDP_MatchDescReq_7:
        MOV     A,R6
        JZ      ??ZDP_MatchDescReq_8
//  440   {
//  441     for (i=0; i<NumInClusters; ++i)  {
        MOV     ?V1,#0x0
        MOV     A,#0x10
        LCALL   ?XSTACK_DISP0_8
        LCALL   ?Subroutine61 & 0xFFFF
//  442       *pBuf++ = LO_UINT16( InClusterList[i] );
??CrossCallReturnLabel_100:
        LCALL   ?Subroutine12 & 0xFFFF
//  443       *pBuf++ = HI_UINT16( InClusterList[i] );
//  444     }
??CrossCallReturnLabel_4:
        JNC     ??ZDP_MatchDescReq_9
        INC     R1
??ZDP_MatchDescReq_9:
        INC     ?V1
        MOV     A,?V1
        CLR     C
        SUBB    A,R6
        JC      ??CrossCallReturnLabel_100
//  445   }
//  446 
//  447   *pBuf++ = NumOutClusters; // Output cluster list
??ZDP_MatchDescReq_8:
        MOV     DPL,R0
        MOV     DPH,R1
        MOV     A,?V0
        MOVX    @DPTR,A
        INC     DPTR
        MOV     R0,DPL
        MOV     R1,DPH
//  448   if ( NumOutClusters )
        JZ      ??ZDP_MatchDescReq_10
//  449   {
//  450     for (i=0; i<NumOutClusters; ++i)  {
        MOV     ?V1,#0x0
        MOV     A,#0x13
        LCALL   ?XSTACK_DISP0_8
        LCALL   ?Subroutine61 & 0xFFFF
//  451       *pBuf++ = LO_UINT16( OutClusterList[i] );
??CrossCallReturnLabel_101:
        LCALL   ?Subroutine12 & 0xFFFF
//  452       *pBuf++ = HI_UINT16( OutClusterList[i] );
//  453     }
??CrossCallReturnLabel_5:
        JNC     ??ZDP_MatchDescReq_11
        INC     R1
??ZDP_MatchDescReq_11:
        INC     ?V1
        MOV     A,?V1
        CLR     C
        SUBB    A,?V0
        JC      ??CrossCallReturnLabel_101
//  454   }
//  455 
//  456   return fillAndSend( &ZDP_TransID, dstAddr, Match_Desc_req, len );
??ZDP_MatchDescReq_10:
        ; Setup parameters for call to function fillAndSend
        MOV     ?V0,#0x6
        MOV     ?V1,#0x0
        MOV     R0,#?V0
        LCALL   ?PUSH_XSTACK_I_TWO
          CFI CFA_XSP16 add(XSP16, 16)
        MOV     A,R7
        MOV     R1,A
        MOV     A,R2
        MOV     R4,A
        MOV     A,R3
        MOV     R5,A
        MOV     R2,#ZDP_TransID & 0xff
        MOV     R3,#(ZDP_TransID >> 8) & 0xff
        LCALL   `??fillAndSend::?relay`; Banked call to: fillAndSend
        MOV     A,#0x2
        LCALL   ?DEALLOC_XSTACK8
          CFI CFA_XSP16 add(XSP16, 14)
??ZDP_MatchDescReq_1:
        SJMP    ??Subroutine105_0
//  457 }
          CFI EndBlock cfiBlock27

        RSEG BANKED_CODE:CODE:NOROOT(0)
?Subroutine61:
          CFI Block cfiCond28 Using cfiCommon0
          CFI Function ZDP_MatchDescReq
          CFI Conditional ??CrossCallReturnLabel_100
          CFI R6 load(1, XDATA, add(CFA_XSP16, literal(-14)))
          CFI VB load(1, XDATA, add(CFA_XSP16, literal(-13)))
          CFI V0 load(1, XDATA, add(CFA_XSP16, literal(-12)))
          CFI V1 load(1, XDATA, add(CFA_XSP16, literal(-11)))
          CFI V2 load(1, XDATA, add(CFA_XSP16, literal(-10)))
          CFI V3 load(1, XDATA, add(CFA_XSP16, literal(-9)))
          CFI V4 load(1, XDATA, add(CFA_XSP16, literal(-8)))
          CFI V5 load(1, XDATA, add(CFA_XSP16, literal(-7)))
          CFI R7 load(1, XDATA, add(CFA_XSP16, literal(-6)))
          CFI ?RET_LOW load(1, XDATA, add(CFA_XSP16, literal(-5)))
          CFI ?RET_HIGH load(1, XDATA, add(CFA_XSP16, literal(-4)))
          CFI ?BRET_EXT load(1, XDATA, add(CFA_XSP16, literal(-3)))
          CFI DPL0 load(1, XDATA, add(CFA_XSP16, literal(-2)))
          CFI DPH0 load(1, XDATA, add(CFA_XSP16, literal(-1)))
          CFI CFA_SP SP+-2
          CFI CFA_XSP16 add(XSP16, 14)
          CFI Block cfiCond29 Using cfiCommon0
          CFI (cfiCond29) Function ZDP_MatchDescReq
          CFI (cfiCond29) Conditional ??CrossCallReturnLabel_101
          CFI (cfiCond29) R6 load(1, XDATA, add(CFA_XSP16, literal(-14)))
          CFI (cfiCond29) VB load(1, XDATA, add(CFA_XSP16, literal(-13)))
          CFI (cfiCond29) V0 load(1, XDATA, add(CFA_XSP16, literal(-12)))
          CFI (cfiCond29) V1 load(1, XDATA, add(CFA_XSP16, literal(-11)))
          CFI (cfiCond29) V2 load(1, XDATA, add(CFA_XSP16, literal(-10)))
          CFI (cfiCond29) V3 load(1, XDATA, add(CFA_XSP16, literal(-9)))
          CFI (cfiCond29) V4 load(1, XDATA, add(CFA_XSP16, literal(-8)))
          CFI (cfiCond29) V5 load(1, XDATA, add(CFA_XSP16, literal(-7)))
          CFI (cfiCond29) R7 load(1, XDATA, add(CFA_XSP16, literal(-6)))
          CFI (cfiCond29) ?RET_LOW load(1, XDATA, add(CFA_XSP16, literal(-5)))
          CFI (cfiCond29) ?RET_HIGH load(1, XDATA, add(CFA_XSP16, literal(-4)))
          CFI (cfiCond29) ?BRET_EXT load(1, XDATA, add(CFA_XSP16, literal(-3)))
          CFI (cfiCond29) DPL0 load(1, XDATA, add(CFA_XSP16, literal(-2)))
          CFI (cfiCond29) DPH0 load(1, XDATA, add(CFA_XSP16, literal(-1)))
          CFI (cfiCond29) CFA_SP SP+-2
          CFI (cfiCond29) CFA_XSP16 add(XSP16, 14)
          CFI Block cfiPicker30 Using cfiCommon1
          CFI (cfiPicker30) NoFunction
          CFI (cfiPicker30) Picker
        LCALL   ?Subroutine80 & 0xFFFF
??CrossCallReturnLabel_143:
        MOV     ?V2,R4
        MOV     ?V3,R5
        RET
          CFI EndBlock cfiCond28
          CFI EndBlock cfiCond29
          CFI EndBlock cfiPicker30

        RSEG BANKED_CODE:CODE:NOROOT(0)
?Subroutine41:
          CFI Block cfiCond31 Using cfiCommon0
          CFI Function ZDP_IEEEAddrReq
          CFI Conditional ??CrossCallReturnLabel_66
          CFI R6 load(1, XDATA, add(CFA_XSP16, literal(-10)))
          CFI VB load(1, XDATA, add(CFA_XSP16, literal(-9)))
          CFI V0 load(1, XDATA, add(CFA_XSP16, literal(-8)))
          CFI V1 load(1, XDATA, add(CFA_XSP16, literal(-7)))
          CFI R7 load(1, XDATA, add(CFA_XSP16, literal(-6)))
          CFI ?RET_LOW load(1, XDATA, add(CFA_XSP16, literal(-5)))
          CFI ?RET_HIGH load(1, XDATA, add(CFA_XSP16, literal(-4)))
          CFI ?BRET_EXT load(1, XDATA, add(CFA_XSP16, literal(-3)))
          CFI DPL0 load(1, XDATA, add(CFA_XSP16, literal(-2)))
          CFI DPH0 load(1, XDATA, add(CFA_XSP16, literal(-1)))
          CFI CFA_SP SP+-2
          CFI CFA_XSP16 add(XSP16, 19)
          CFI Block cfiCond32 Using cfiCommon0
          CFI (cfiCond32) Function ZDP_MatchDescReq
          CFI (cfiCond32) Conditional ??CrossCallReturnLabel_67
          CFI (cfiCond32) R6 load(1, XDATA, add(CFA_XSP16, literal(-14)))
          CFI (cfiCond32) VB load(1, XDATA, add(CFA_XSP16, literal(-13)))
          CFI (cfiCond32) V0 load(1, XDATA, add(CFA_XSP16, literal(-12)))
          CFI (cfiCond32) V1 load(1, XDATA, add(CFA_XSP16, literal(-11)))
          CFI (cfiCond32) V2 load(1, XDATA, add(CFA_XSP16, literal(-10)))
          CFI (cfiCond32) V3 load(1, XDATA, add(CFA_XSP16, literal(-9)))
          CFI (cfiCond32) V4 load(1, XDATA, add(CFA_XSP16, literal(-8)))
          CFI (cfiCond32) V5 load(1, XDATA, add(CFA_XSP16, literal(-7)))
          CFI (cfiCond32) R7 load(1, XDATA, add(CFA_XSP16, literal(-6)))
          CFI (cfiCond32) ?RET_LOW load(1, XDATA, add(CFA_XSP16, literal(-5)))
          CFI (cfiCond32) ?RET_HIGH load(1, XDATA, add(CFA_XSP16, literal(-4)))
          CFI (cfiCond32) ?BRET_EXT load(1, XDATA, add(CFA_XSP16, literal(-3)))
          CFI (cfiCond32) DPL0 load(1, XDATA, add(CFA_XSP16, literal(-2)))
          CFI (cfiCond32) DPH0 load(1, XDATA, add(CFA_XSP16, literal(-1)))
          CFI (cfiCond32) CFA_SP SP+-2
          CFI (cfiCond32) CFA_XSP16 add(XSP16, 14)
          CFI Block cfiPicker33 Using cfiCommon1
          CFI (cfiPicker33) NoFunction
          CFI (cfiPicker33) Picker
        INC     DPTR
        MOVX    @DPTR,A
        MOV     A,R6
        MOV     DPL,R0
        MOV     DPH,R1
        INC     DPTR
        INC     DPTR
        RET
          CFI EndBlock cfiCond31
          CFI EndBlock cfiCond32
          CFI EndBlock cfiPicker33

        RSEG BANKED_CODE:CODE:NOROOT(0)
?Subroutine12:
          CFI Block cfiCond34 Using cfiCommon0
          CFI Function ZDP_MatchDescReq
          CFI Conditional ??CrossCallReturnLabel_4
          CFI R6 load(1, XDATA, add(CFA_XSP16, literal(-14)))
          CFI VB load(1, XDATA, add(CFA_XSP16, literal(-13)))
          CFI V0 load(1, XDATA, add(CFA_XSP16, literal(-12)))
          CFI V1 load(1, XDATA, add(CFA_XSP16, literal(-11)))
          CFI V2 load(1, XDATA, add(CFA_XSP16, literal(-10)))
          CFI V3 load(1, XDATA, add(CFA_XSP16, literal(-9)))
          CFI V4 load(1, XDATA, add(CFA_XSP16, literal(-8)))
          CFI V5 load(1, XDATA, add(CFA_XSP16, literal(-7)))
          CFI R7 load(1, XDATA, add(CFA_XSP16, literal(-6)))
          CFI ?RET_LOW load(1, XDATA, add(CFA_XSP16, literal(-5)))
          CFI ?RET_HIGH load(1, XDATA, add(CFA_XSP16, literal(-4)))
          CFI ?BRET_EXT load(1, XDATA, add(CFA_XSP16, literal(-3)))
          CFI DPL0 load(1, XDATA, add(CFA_XSP16, literal(-2)))
          CFI DPH0 load(1, XDATA, add(CFA_XSP16, literal(-1)))
          CFI CFA_SP SP+-2
          CFI CFA_XSP16 add(XSP16, 14)
          CFI Block cfiCond35 Using cfiCommon0
          CFI (cfiCond35) Function ZDP_MatchDescReq
          CFI (cfiCond35) Conditional ??CrossCallReturnLabel_5
          CFI (cfiCond35) R6 load(1, XDATA, add(CFA_XSP16, literal(-14)))
          CFI (cfiCond35) VB load(1, XDATA, add(CFA_XSP16, literal(-13)))
          CFI (cfiCond35) V0 load(1, XDATA, add(CFA_XSP16, literal(-12)))
          CFI (cfiCond35) V1 load(1, XDATA, add(CFA_XSP16, literal(-11)))
          CFI (cfiCond35) V2 load(1, XDATA, add(CFA_XSP16, literal(-10)))
          CFI (cfiCond35) V3 load(1, XDATA, add(CFA_XSP16, literal(-9)))
          CFI (cfiCond35) V4 load(1, XDATA, add(CFA_XSP16, literal(-8)))
          CFI (cfiCond35) V5 load(1, XDATA, add(CFA_XSP16, literal(-7)))
          CFI (cfiCond35) R7 load(1, XDATA, add(CFA_XSP16, literal(-6)))
          CFI (cfiCond35) ?RET_LOW load(1, XDATA, add(CFA_XSP16, literal(-5)))
          CFI (cfiCond35) ?RET_HIGH load(1, XDATA, add(CFA_XSP16, literal(-4)))
          CFI (cfiCond35) ?BRET_EXT load(1, XDATA, add(CFA_XSP16, literal(-3)))
          CFI (cfiCond35) DPL0 load(1, XDATA, add(CFA_XSP16, literal(-2)))
          CFI (cfiCond35) DPH0 load(1, XDATA, add(CFA_XSP16, literal(-1)))
          CFI (cfiCond35) CFA_SP SP+-2
          CFI (cfiCond35) CFA_XSP16 add(XSP16, 14)
          CFI Block cfiPicker36 Using cfiCommon1
          CFI (cfiPicker36) NoFunction
          CFI (cfiPicker36) Picker
        MOV     R4,?V1
        MOV     A,R4
        ADD     A,R4
        MOV     R4,A
        CLR     A
        RLC     A
        MOV     R5,A
        MOV     A,?V2
        ADD     A,R4
        MOV     R4,A
        MOV     A,?V3
        ADDC    A,R5
        MOV     R5,A
        MOV     DPL,R4
        MOV     DPH,R5
        LCALL   ??Subroutine122_0 & 0xFFFF
??CrossCallReturnLabel_241:
        LCALL   ?Subroutine89 & 0xFFFF
??CrossCallReturnLabel_201:
        LCALL   ?Subroutine84 & 0xFFFF
??CrossCallReturnLabel_243:
        INC     DPTR
        MOVX    @DPTR,A
        MOV     A,R0
        ADD     A,#0x2
        MOV     R0,A
        RET
          CFI EndBlock cfiCond34
          CFI EndBlock cfiCond35
          CFI EndBlock cfiPicker36

        RSEG BANKED_CODE:CODE:NOROOT(0)
?Subroutine0:
          CFI Block cfiBlock37 Using cfiCommon0
          CFI NoFunction
          CFI CFA_SP SP+0
          CFI CFA_XSP16 add(XSP16, 26)
          CFI VB load(1, XDATA, add(CFA_XSP16, literal(-13)))
          CFI DPL0 load(1, XDATA, add(CFA_XSP16, literal(-2)))
          CFI DPH0 load(1, XDATA, add(CFA_XSP16, literal(-1)))
          CFI R6 load(1, XDATA, add(CFA_XSP16, literal(-14)))
          CFI R7 load(1, XDATA, add(CFA_XSP16, literal(-6)))
          CFI V0 load(1, XDATA, add(CFA_XSP16, literal(-12)))
          CFI V1 load(1, XDATA, add(CFA_XSP16, literal(-11)))
          CFI V2 load(1, XDATA, add(CFA_XSP16, literal(-10)))
          CFI V3 load(1, XDATA, add(CFA_XSP16, literal(-9)))
          CFI V4 load(1, XDATA, add(CFA_XSP16, literal(-8)))
          CFI V5 load(1, XDATA, add(CFA_XSP16, literal(-7)))
          CFI ?BRET_EXT load(1, XDATA, add(CFA_XSP16, literal(-3)))
          CFI ?RET_HIGH load(1, XDATA, add(CFA_XSP16, literal(-4)))
          CFI ?RET_LOW load(1, XDATA, add(CFA_XSP16, literal(-5)))
          CFI Invalid
        LCALL   ?DEALLOC_XSTACK8
          CFI EndBlock cfiBlock37
        REQUIRE ??Subroutine105_0
        ; // Fall through to label ??Subroutine105_0

        RSEG BANKED_CODE:CODE:NOROOT(0)
??Subroutine105_0:
          CFI Block cfiBlock38 Using cfiCommon0
          CFI NoFunction
          CFI CFA_SP SP+0
          CFI CFA_XSP16 add(XSP16, 14)
          CFI VB load(1, XDATA, add(CFA_XSP16, literal(-13)))
          CFI DPL0 load(1, XDATA, add(CFA_XSP16, literal(-2)))
          CFI DPH0 load(1, XDATA, add(CFA_XSP16, literal(-1)))
          CFI R6 load(1, XDATA, add(CFA_XSP16, literal(-14)))
          CFI R7 load(1, XDATA, add(CFA_XSP16, literal(-6)))
          CFI V0 load(1, XDATA, add(CFA_XSP16, literal(-12)))
          CFI V1 load(1, XDATA, add(CFA_XSP16, literal(-11)))
          CFI V2 load(1, XDATA, add(CFA_XSP16, literal(-10)))
          CFI V3 load(1, XDATA, add(CFA_XSP16, literal(-9)))
          CFI V4 load(1, XDATA, add(CFA_XSP16, literal(-8)))
          CFI V5 load(1, XDATA, add(CFA_XSP16, literal(-7)))
          CFI ?BRET_EXT load(1, XDATA, add(CFA_XSP16, literal(-3)))
          CFI ?RET_HIGH load(1, XDATA, add(CFA_XSP16, literal(-4)))
          CFI ?RET_LOW load(1, XDATA, add(CFA_XSP16, literal(-5)))
        MOV     R7,#0x6
        LJMP    ?BANKED_LEAVE_XDATA
          CFI EndBlock cfiBlock38
//  458 
//  459 /*********************************************************************
//  460  * @fn          ZDP_SimpleDescReq
//  461  *
//  462  * @brief       This builds and send a NWK_Simple_Desc_req
//  463  *              message.  This function sends unicast message to the
//  464  *              destination device.
//  465  *
//  466  * @param       dstAddr - destination address
//  467  * @param       nwkAddr - 16 bit address
//  468  * @param       epIntf - endpoint/interface
//  469  * @param       SecurityEnable - Security Options
//  470  *
//  471  * @return      afStatus_t
//  472  */

        RSEG BANKED_CODE:CODE:NOROOT(0)
//  473 afStatus_t ZDP_SimpleDescReq( zAddrType_t *dstAddr, uint16 nwkAddr,
ZDP_SimpleDescReq:
          CFI Block cfiBlock39 Using cfiCommon0
          CFI Function ZDP_SimpleDescReq
        CODE
//  474                                     byte endPoint, byte SecurityEnable )
//  475 
//  476 {
        FUNCALL ZDP_SimpleDescReq, fillAndSend
        LOCFRAME ISTACK, 0, STACK
        LOCFRAME PSTACK, 0, STACK
        LOCFRAME XSTACK, 12, STACK
        LOCFRAME IOVERLAY, 0, STATIC
        LOCFRAME DOVERLAY, 0, STATIC
        ARGFRAME ISTACK, 0, STACK
        ARGFRAME PSTACK, 0, STACK
        ARGFRAME XSTACK, 12, STACK
        ARGFRAME IOVERLAY, 0, STATIC
        ARGFRAME DOVERLAY, 0, STATIC
        REQUIRE ?V0
        REQUIRE ?V1
        MOV     A,#-0xa
        LCALL   ?BANKED_ENTER_XDATA
          CFI DPH0 load(1, XDATA, add(CFA_XSP16, literal(-1)))
          CFI DPL0 load(1, XDATA, add(CFA_XSP16, literal(-2)))
          CFI ?BRET_EXT load(1, XDATA, add(CFA_XSP16, literal(-3)))
          CFI ?RET_HIGH load(1, XDATA, add(CFA_XSP16, literal(-4)))
          CFI ?RET_LOW load(1, XDATA, add(CFA_XSP16, literal(-5)))
          CFI R7 load(1, XDATA, add(CFA_XSP16, literal(-6)))
          CFI V1 load(1, XDATA, add(CFA_XSP16, literal(-7)))
          CFI V0 load(1, XDATA, add(CFA_XSP16, literal(-8)))
          CFI VB load(1, XDATA, add(CFA_XSP16, literal(-9)))
          CFI R6 load(1, XDATA, add(CFA_XSP16, literal(-10)))
          CFI CFA_SP SP+0
          CFI CFA_XSP16 add(XSP16, 10)
        ; Saved register size: 10
        ; Auto size: 0
//  477   (void)SecurityEnable;  // Intentionally unreferenced parameter
//  478 
//  479   ZDP_TmpBuf[0] = LO_UINT16( nwkAddr );
        LCALL   ?Subroutine18 & 0xFFFF
//  480   ZDP_TmpBuf[1] = HI_UINT16( nwkAddr );
??CrossCallReturnLabel_17:
        LCALL   ?Subroutine13 & 0xFFFF
//  481   ZDP_TmpBuf[2] = endPoint;
//  482 
//  483   return fillAndSend( &ZDP_TransID, dstAddr, Simple_Desc_req, 3 );
??CrossCallReturnLabel_6:
        ; Setup parameters for call to function fillAndSend
        MOV     ?V0,#0x4
        MOV     ?V1,#0x0
        MOV     R0,#?V0
        LCALL   ?PUSH_XSTACK_I_TWO
          CFI CFA_XSP16 add(XSP16, 12)
        MOV     R1,#0x3
        LJMP    ?Subroutine8 & 0xFFFF
//  484 }
          CFI EndBlock cfiBlock39

        RSEG BANKED_CODE:CODE:NOROOT(0)
?Subroutine18:
          CFI Block cfiCond40 Using cfiCommon0
          CFI Function ZDP_NWKAddrOfInterestReq
          CFI Conditional ??CrossCallReturnLabel_16
          CFI R6 load(1, XDATA, add(CFA_XSP16, literal(-10)))
          CFI VB load(1, XDATA, add(CFA_XSP16, literal(-9)))
          CFI V0 load(1, XDATA, add(CFA_XSP16, literal(-8)))
          CFI V1 load(1, XDATA, add(CFA_XSP16, literal(-7)))
          CFI R7 load(1, XDATA, add(CFA_XSP16, literal(-6)))
          CFI ?RET_LOW load(1, XDATA, add(CFA_XSP16, literal(-5)))
          CFI ?RET_HIGH load(1, XDATA, add(CFA_XSP16, literal(-4)))
          CFI ?BRET_EXT load(1, XDATA, add(CFA_XSP16, literal(-3)))
          CFI DPL0 load(1, XDATA, add(CFA_XSP16, literal(-2)))
          CFI DPH0 load(1, XDATA, add(CFA_XSP16, literal(-1)))
          CFI CFA_SP SP+-2
          CFI CFA_XSP16 add(XSP16, 10)
          CFI Block cfiCond41 Using cfiCommon0
          CFI (cfiCond41) Function ZDP_SimpleDescReq
          CFI (cfiCond41) Conditional ??CrossCallReturnLabel_17
          CFI (cfiCond41) R6 load(1, XDATA, add(CFA_XSP16, literal(-10)))
          CFI (cfiCond41) VB load(1, XDATA, add(CFA_XSP16, literal(-9)))
          CFI (cfiCond41) V0 load(1, XDATA, add(CFA_XSP16, literal(-8)))
          CFI (cfiCond41) V1 load(1, XDATA, add(CFA_XSP16, literal(-7)))
          CFI (cfiCond41) R7 load(1, XDATA, add(CFA_XSP16, literal(-6)))
          CFI (cfiCond41) ?RET_LOW load(1, XDATA, add(CFA_XSP16, literal(-5)))
          CFI (cfiCond41) ?RET_HIGH load(1, XDATA, add(CFA_XSP16, literal(-4)))
          CFI (cfiCond41) ?BRET_EXT load(1, XDATA, add(CFA_XSP16, literal(-3)))
          CFI (cfiCond41) DPL0 load(1, XDATA, add(CFA_XSP16, literal(-2)))
          CFI (cfiCond41) DPH0 load(1, XDATA, add(CFA_XSP16, literal(-1)))
          CFI (cfiCond41) CFA_SP SP+-2
          CFI (cfiCond41) CFA_XSP16 add(XSP16, 10)
          CFI Block cfiPicker42 Using cfiCommon1
          CFI (cfiPicker42) NoFunction
          CFI (cfiPicker42) Picker
        LCALL   ?Subroutine96 & 0xFFFF
??CrossCallReturnLabel_162:
        MOV     A,R4
        LCALL   ?Subroutine75 & 0xFFFF
??CrossCallReturnLabel_133:
        MOV     A,R5
        RET
          CFI EndBlock cfiCond40
          CFI EndBlock cfiCond41
          CFI EndBlock cfiPicker42

        RSEG BANKED_CODE:CODE:NOROOT(0)
?Subroutine2:
          CFI Block cfiBlock43 Using cfiCommon0
          CFI NoFunction
          CFI CFA_SP SP+0
          CFI CFA_XSP16 add(XSP16, 21)
          CFI VB load(1, XDATA, add(CFA_XSP16, literal(-9)))
          CFI DPL0 load(1, XDATA, add(CFA_XSP16, literal(-2)))
          CFI DPH0 load(1, XDATA, add(CFA_XSP16, literal(-1)))
          CFI R6 load(1, XDATA, add(CFA_XSP16, literal(-10)))
          CFI R7 load(1, XDATA, add(CFA_XSP16, literal(-6)))
          CFI V0 load(1, XDATA, add(CFA_XSP16, literal(-8)))
          CFI V1 load(1, XDATA, add(CFA_XSP16, literal(-7)))
          CFI ?BRET_EXT load(1, XDATA, add(CFA_XSP16, literal(-3)))
          CFI ?RET_HIGH load(1, XDATA, add(CFA_XSP16, literal(-4)))
          CFI ?RET_LOW load(1, XDATA, add(CFA_XSP16, literal(-5)))
        MOV     A,#0x2
        LCALL   ?XSTACK_DISP102_8
        MOV     R2,#ZDP_TransID & 0xff
        MOV     R3,#(ZDP_TransID >> 8) & 0xff
        LCALL   `??fillAndSend::?relay`; Banked call to: fillAndSend
        MOV     A,#0x2
        LCALL   ?DEALLOC_XSTACK8
          CFI EndBlock cfiBlock43
        REQUIRE ??Subroutine106_0
        ; // Fall through to label ??Subroutine106_0

        RSEG BANKED_CODE:CODE:NOROOT(0)
??Subroutine106_0:
          CFI Block cfiBlock44 Using cfiCommon0
          CFI NoFunction
          CFI CFA_SP SP+0
          CFI CFA_XSP16 add(XSP16, 19)
          CFI VB load(1, XDATA, add(CFA_XSP16, literal(-9)))
          CFI DPL0 load(1, XDATA, add(CFA_XSP16, literal(-2)))
          CFI DPH0 load(1, XDATA, add(CFA_XSP16, literal(-1)))
          CFI R6 load(1, XDATA, add(CFA_XSP16, literal(-10)))
          CFI R7 load(1, XDATA, add(CFA_XSP16, literal(-6)))
          CFI V0 load(1, XDATA, add(CFA_XSP16, literal(-8)))
          CFI V1 load(1, XDATA, add(CFA_XSP16, literal(-7)))
          CFI ?BRET_EXT load(1, XDATA, add(CFA_XSP16, literal(-3)))
          CFI ?RET_HIGH load(1, XDATA, add(CFA_XSP16, literal(-4)))
          CFI ?RET_LOW load(1, XDATA, add(CFA_XSP16, literal(-5)))
        MOV     A,#0x9
          CFI EndBlock cfiBlock44
        REQUIRE ??Subroutine107_0
        ; // Fall through to label ??Subroutine107_0

        RSEG BANKED_CODE:CODE:NOROOT(0)
??Subroutine107_0:
          CFI Block cfiBlock45 Using cfiCommon0
          CFI NoFunction
          CFI CFA_SP SP+0
          CFI CFA_XSP16 add(XSP16, 12)
          CFI VB load(1, XDATA, add(CFA_XSP16, literal(-9)))
          CFI DPL0 load(1, XDATA, add(CFA_XSP16, literal(-2)))
          CFI DPH0 load(1, XDATA, add(CFA_XSP16, literal(-1)))
          CFI R6 load(1, XDATA, add(CFA_XSP16, literal(-10)))
          CFI R7 load(1, XDATA, add(CFA_XSP16, literal(-6)))
          CFI V0 load(1, XDATA, add(CFA_XSP16, literal(-8)))
          CFI V1 load(1, XDATA, add(CFA_XSP16, literal(-7)))
          CFI ?BRET_EXT load(1, XDATA, add(CFA_XSP16, literal(-3)))
          CFI ?RET_HIGH load(1, XDATA, add(CFA_XSP16, literal(-4)))
          CFI ?RET_LOW load(1, XDATA, add(CFA_XSP16, literal(-5)))
          CFI Invalid
        LCALL   ?DEALLOC_XSTACK8
          CFI CFA_XSP16 add(XSP16, 10)
          CFI Valid
        MOV     R7,#0x2
        LJMP    ?BANKED_LEAVE_XDATA
          CFI EndBlock cfiBlock45
//  485 
//  486 /*********************************************************************
//  487  * @fn          ZDP_UserDescSet
//  488  *
//  489  * @brief       This builds and send a User_Desc_set message to set
//  490  *              the user descriptor.  This function sends unicast
//  491  *              message to the destination device.
//  492  *
//  493  * @param       dstAddr - destination address
//  494  * @param       nwkAddr - 16 bit address
//  495  * @param       UserDescriptor - user descriptor
//  496  * @param       SecurityEnable - Security Options
//  497  *
//  498  * @return      afStatus_t
//  499  */

        RSEG BANKED_CODE:CODE:NOROOT(0)
//  500 afStatus_t ZDP_UserDescSet( zAddrType_t *dstAddr, uint16 nwkAddr,
ZDP_UserDescSet:
          CFI Block cfiBlock46 Using cfiCommon0
          CFI Function ZDP_UserDescSet
        CODE
//  501                           UserDescriptorFormat_t *UserDescriptor,
//  502                           byte SecurityEnable )
//  503 {
        FUNCALL ZDP_UserDescSet, osal_memcpy
        LOCFRAME ISTACK, 0, STACK
        LOCFRAME PSTACK, 0, STACK
        LOCFRAME XSTACK, 18, STACK
        LOCFRAME IOVERLAY, 0, STATIC
        LOCFRAME DOVERLAY, 0, STATIC
        ARGFRAME ISTACK, 0, STACK
        ARGFRAME PSTACK, 0, STACK
        ARGFRAME XSTACK, 18, STACK
        ARGFRAME IOVERLAY, 0, STATIC
        ARGFRAME DOVERLAY, 0, STATIC
        FUNCALL ZDP_UserDescSet, osal_memset
        LOCFRAME ISTACK, 0, STACK
        LOCFRAME PSTACK, 0, STACK
        LOCFRAME XSTACK, 15, STACK
        LOCFRAME IOVERLAY, 0, STATIC
        LOCFRAME DOVERLAY, 0, STATIC
        ARGFRAME ISTACK, 0, STACK
        ARGFRAME PSTACK, 0, STACK
        ARGFRAME XSTACK, 15, STACK
        ARGFRAME IOVERLAY, 0, STATIC
        ARGFRAME DOVERLAY, 0, STATIC
        FUNCALL ZDP_UserDescSet, fillAndSend
        LOCFRAME ISTACK, 0, STACK
        LOCFRAME PSTACK, 0, STACK
        LOCFRAME XSTACK, 17, STACK
        LOCFRAME IOVERLAY, 0, STATIC
        LOCFRAME DOVERLAY, 0, STATIC
        ARGFRAME ISTACK, 0, STACK
        ARGFRAME PSTACK, 0, STACK
        ARGFRAME XSTACK, 17, STACK
        ARGFRAME IOVERLAY, 0, STATIC
        ARGFRAME DOVERLAY, 0, STATIC
        REQUIRE ?V0
        REQUIRE ?V1
        REQUIRE ?V2
        REQUIRE ?V4
        REQUIRE ?V5
        REQUIRE ?V6
        MOV     A,#-0xf
        LCALL   ?BANKED_ENTER_XDATA
          CFI DPH0 load(1, XDATA, add(CFA_XSP16, literal(-1)))
          CFI DPL0 load(1, XDATA, add(CFA_XSP16, literal(-2)))
          CFI ?BRET_EXT load(1, XDATA, add(CFA_XSP16, literal(-3)))
          CFI ?RET_HIGH load(1, XDATA, add(CFA_XSP16, literal(-4)))
          CFI ?RET_LOW load(1, XDATA, add(CFA_XSP16, literal(-5)))
          CFI R7 load(1, XDATA, add(CFA_XSP16, literal(-6)))
          CFI V6 load(1, XDATA, add(CFA_XSP16, literal(-7)))
          CFI V5 load(1, XDATA, add(CFA_XSP16, literal(-8)))
          CFI V4 load(1, XDATA, add(CFA_XSP16, literal(-9)))
          CFI V3 load(1, XDATA, add(CFA_XSP16, literal(-10)))
          CFI V2 load(1, XDATA, add(CFA_XSP16, literal(-11)))
          CFI V1 load(1, XDATA, add(CFA_XSP16, literal(-12)))
          CFI V0 load(1, XDATA, add(CFA_XSP16, literal(-13)))
          CFI VB load(1, XDATA, add(CFA_XSP16, literal(-14)))
          CFI R6 load(1, XDATA, add(CFA_XSP16, literal(-15)))
          CFI CFA_SP SP+0
          CFI CFA_XSP16 add(XSP16, 15)
        ; Saved register size: 15
        ; Auto size: 0
        LCALL   ?Subroutine57 & 0xFFFF
//  504   uint8 *pBuf = ZDP_TmpBuf;
??CrossCallReturnLabel_94:
        MOV     A,#0xf
        LCALL   ?XSTACK_DISP0_8
        LCALL   ?Subroutine47 & 0xFFFF
//  505   byte len = (UserDescriptor->len < AF_MAX_USER_DESCRIPTOR_LEN) ?
//  506               UserDescriptor->len : AF_MAX_USER_DESCRIPTOR_LEN;
??CrossCallReturnLabel_76:
        MOV     R2,A
        CLR     C
        SUBB    A,#0x10
        JNC     ??ZDP_UserDescSet_0
        MOV     ?V2,R2
        SJMP    ??ZDP_UserDescSet_1
??ZDP_UserDescSet_0:
        MOV     ?V2,#0x10
//  507   byte addrLen = 2;
//  508 
//  509   (void)SecurityEnable;  // Intentionally unreferenced parameter
//  510 
//  511   *pBuf++ = LO_UINT16( nwkAddr );
??ZDP_UserDescSet_1:
        MOV     A,R4
        MOV     DPL,?V0
        MOV     DPH,?V1
        MOVX    @DPTR,A
//  512   *pBuf++ = HI_UINT16( nwkAddr );
        MOV     A,R5
        LCALL   ?Subroutine34 & 0xFFFF
//  513 
//  514   *pBuf++ = len;
??CrossCallReturnLabel_52:
        MOV     A,?V2
        LCALL   ?Subroutine10 & 0xFFFF
//  515   addrLen = 3;
//  516 
//  517   pBuf = osal_memcpy( pBuf, UserDescriptor->desc, len );
??CrossCallReturnLabel_0:
        LCALL   ?PUSH_XSTACK_I_THREE
          CFI CFA_XSP16 add(XSP16, 18)
        MOV     R4,?V2
        MOV     R5,#0x0
        MOV     A,?V0
        ADD     A,#0x3
        MOV     R2,A
        CLR     A
        ADDC    A,?V1
        MOV     R3,A
        LCALL   `??osal_memcpy::?relay`; Banked call to: osal_memcpy
        MOV     A,#0x3
        LCALL   ?DEALLOC_XSTACK8
          CFI CFA_XSP16 add(XSP16, 15)
//  518   osal_memset( pBuf, AF_USER_DESCRIPTOR_FILL, AF_MAX_USER_DESCRIPTOR_LEN-len );
        ; Setup parameters for call to function osal_memset
        MOV     R0,?V2
        MOV     A,#0x10
        CLR     C
        SUBB    A,R0
        MOV     R4,A
        SUBB    A,0xE0 /* A   */
        MOV     R5,A
        MOV     R1,#0x20
        LCALL   `??osal_memset::?relay`; Banked call to: osal_memset
//  519 
//  520   return fillAndSend( &ZDP_TransID, dstAddr, User_Desc_set, (AF_MAX_USER_DESCRIPTOR_LEN + addrLen) );
        ; Setup parameters for call to function fillAndSend
        MOV     ?V0,#0x14
        MOV     ?V1,#0x0
        MOV     R0,#?V0
        LCALL   ?PUSH_XSTACK_I_TWO
          CFI CFA_XSP16 add(XSP16, 17)
        MOV     R1,#0x13
        MOV     A,R6
        MOV     R4,A
        MOV     A,R7
        MOV     R5,A
        MOV     R2,#ZDP_TransID & 0xff
        MOV     R3,#(ZDP_TransID >> 8) & 0xff
        LCALL   `??fillAndSend::?relay`; Banked call to: fillAndSend
        MOV     A,#0x2
          CFI EndBlock cfiBlock46
        REQUIRE ?Subroutine3
        ; // Fall through to label ?Subroutine3
//  521 }

        RSEG BANKED_CODE:CODE:NOROOT(0)
?Subroutine3:
          CFI Block cfiBlock47 Using cfiCommon0
          CFI NoFunction
          CFI CFA_SP SP+0
          CFI CFA_XSP16 add(XSP16, 17)
          CFI VB load(1, XDATA, add(CFA_XSP16, literal(-14)))
          CFI DPL0 load(1, XDATA, add(CFA_XSP16, literal(-2)))
          CFI DPH0 load(1, XDATA, add(CFA_XSP16, literal(-1)))
          CFI R6 load(1, XDATA, add(CFA_XSP16, literal(-15)))
          CFI R7 load(1, XDATA, add(CFA_XSP16, literal(-6)))
          CFI V0 load(1, XDATA, add(CFA_XSP16, literal(-13)))
          CFI V1 load(1, XDATA, add(CFA_XSP16, literal(-12)))
          CFI V2 load(1, XDATA, add(CFA_XSP16, literal(-11)))
          CFI V3 load(1, XDATA, add(CFA_XSP16, literal(-10)))
          CFI V4 load(1, XDATA, add(CFA_XSP16, literal(-9)))
          CFI V5 load(1, XDATA, add(CFA_XSP16, literal(-8)))
          CFI V6 load(1, XDATA, add(CFA_XSP16, literal(-7)))
          CFI ?BRET_EXT load(1, XDATA, add(CFA_XSP16, literal(-3)))
          CFI ?RET_HIGH load(1, XDATA, add(CFA_XSP16, literal(-4)))
          CFI ?RET_LOW load(1, XDATA, add(CFA_XSP16, literal(-5)))
          CFI Invalid
        LCALL   ?DEALLOC_XSTACK8
          CFI CFA_XSP16 add(XSP16, 15)
          CFI Valid
        MOV     R7,#0x7
        LJMP    ?BANKED_LEAVE_XDATA
          CFI EndBlock cfiBlock47
//  522 
//  523 /*********************************************************************
//  524  * @fn          ZDP_ServerDiscReq
//  525  *
//  526  * @brief       Build and send a Server_Discovery_req request message.
//  527  *
//  528  * @param       serverMask - 16-bit bit-mask of server services being sought.
//  529  * @param       SecurityEnable - Security Options
//  530  *
//  531  * @return      afStatus_t
//  532  */

        RSEG BANKED_CODE:CODE:NOROOT(0)
//  533 afStatus_t ZDP_ServerDiscReq( uint16 serverMask, byte SecurityEnable )
ZDP_ServerDiscReq:
          CFI Block cfiBlock48 Using cfiCommon0
          CFI Function ZDP_ServerDiscReq
        CODE
//  534 {
        FUNCALL ZDP_ServerDiscReq, fillAndSend
        LOCFRAME ISTACK, 0, STACK
        LOCFRAME PSTACK, 0, STACK
        LOCFRAME XSTACK, 21, STACK
        LOCFRAME IOVERLAY, 0, STATIC
        LOCFRAME DOVERLAY, 0, STATIC
        ARGFRAME ISTACK, 0, STACK
        ARGFRAME PSTACK, 0, STACK
        ARGFRAME XSTACK, 21, STACK
        ARGFRAME IOVERLAY, 0, STATIC
        ARGFRAME DOVERLAY, 0, STATIC
        REQUIRE ?V0
        REQUIRE ?V1
        MOV     A,#-0xa
        LCALL   ?BANKED_ENTER_XDATA
          CFI DPH0 load(1, XDATA, add(CFA_XSP16, literal(-1)))
          CFI DPL0 load(1, XDATA, add(CFA_XSP16, literal(-2)))
          CFI ?BRET_EXT load(1, XDATA, add(CFA_XSP16, literal(-3)))
          CFI ?RET_HIGH load(1, XDATA, add(CFA_XSP16, literal(-4)))
          CFI ?RET_LOW load(1, XDATA, add(CFA_XSP16, literal(-5)))
          CFI R7 load(1, XDATA, add(CFA_XSP16, literal(-6)))
          CFI V1 load(1, XDATA, add(CFA_XSP16, literal(-7)))
          CFI V0 load(1, XDATA, add(CFA_XSP16, literal(-8)))
          CFI VB load(1, XDATA, add(CFA_XSP16, literal(-9)))
          CFI R6 load(1, XDATA, add(CFA_XSP16, literal(-10)))
          CFI CFA_SP SP+0
          CFI CFA_XSP16 add(XSP16, 10)
        ; Saved register size: 10
        ; Auto size: 9
        MOV     A,#-0x9
        LCALL   ?ALLOC_XSTACK8
          CFI CFA_XSP16 add(XSP16, 19)
        LCALL   ?Subroutine60 & 0xFFFF
//  535   uint8 *pBuf = ZDP_TmpBuf;
//  536   zAddrType_t dstAddr;
//  537 
//  538   dstAddr.addrMode = AddrBroadcast;
??CrossCallReturnLabel_258:
        MOV     A,#0x8
        LCALL   ?XSTACK_DISP0_8
        LCALL   ?Subroutine19 & 0xFFFF
//  539   dstAddr.addr.shortAddr = NWK_BROADCAST_SHORTADDR_DEVRXON;
//  540 
//  541   *pBuf++ = LO_UINT16( serverMask );
??CrossCallReturnLabel_18:
        MOV     A,R2
        MOV     DPL,R0
        MOV     DPH,R1
        MOVX    @DPTR,A
//  542   *pBuf = HI_UINT16( serverMask );
        MOV     A,R3
        INC     DPTR
        MOVX    @DPTR,A
//  543 
//  544   FillAndSendTxOptions( &ZDP_TransID, &dstAddr, Server_Discovery_req, 2,
//  545              ((SecurityEnable) ? AF_EN_SECURITY : AF_TX_OPTIONS_NONE) );
        MOV     A,R6
        MOV     DPTR,#ZDP_TxOptions
        JZ      ??ZDP_ServerDiscReq_0
        MOV     A,#0x40
        SJMP    ??ZDP_ServerDiscReq_1
??ZDP_ServerDiscReq_0:
        CLR     A
??ZDP_ServerDiscReq_1:
        MOVX    @DPTR,A
        ; Setup parameters for call to function fillAndSend
        MOV     ?V0,#0x15
        MOV     ?V1,#0x0
        MOV     R0,#?V0
        LCALL   ?PUSH_XSTACK_I_TWO
          CFI CFA_XSP16 add(XSP16, 21)
        MOV     R1,#0x2
        MOV     A,R1
        LCALL   ?XSTACK_DISP102_8
        MOV     R2,#ZDP_TransID & 0xff
        MOV     R3,#(ZDP_TransID >> 8) & 0xff
        LCALL   `??fillAndSend::?relay`; Banked call to: fillAndSend
        MOV     A,#0x2
        LCALL   ?DEALLOC_XSTACK8
          CFI CFA_XSP16 add(XSP16, 19)
        MOV     A,R1
        MOV     R1,A
        MOV     DPTR,#ZDP_TxOptions
        CLR     A
        MOVX    @DPTR,A
        LJMP    ??Subroutine106_0 & 0xFFFF
//  546 }
          CFI EndBlock cfiBlock48
//  547 
//  548 /*********************************************************************
//  549  * @fn          ZDP_DeviceAnnce
//  550  *
//  551  * @brief       This builds and send a Device_Annce message.  This
//  552  *              function sends a broadcast message.
//  553  *
//  554  * @param       nwkAddr - 16 bit address of the device
//  555  * @param       IEEEAddr - 64 bit address of the device
//  556  * @param       capabilities - device capabilities.  This field is only
//  557  *                 sent for v1.1 networks.
//  558  * @param       SecurityEnable - Security Options
//  559  *
//  560  * @return      afStatus_t
//  561  */

        RSEG BANKED_CODE:CODE:NOROOT(0)
//  562 afStatus_t ZDP_DeviceAnnce( uint16 nwkAddr, uint8 *IEEEAddr,
ZDP_DeviceAnnce:
          CFI Block cfiBlock49 Using cfiCommon0
          CFI Function ZDP_DeviceAnnce
        CODE
//  563                               byte capabilities, byte SecurityEnable )
//  564 {
        FUNCALL ZDP_DeviceAnnce, sAddrExtCpy
        LOCFRAME ISTACK, 0, STACK
        LOCFRAME PSTACK, 0, STACK
        LOCFRAME XSTACK, 19, STACK
        LOCFRAME IOVERLAY, 0, STATIC
        LOCFRAME DOVERLAY, 0, STATIC
        ARGFRAME ISTACK, 0, STACK
        ARGFRAME PSTACK, 0, STACK
        ARGFRAME XSTACK, 19, STACK
        ARGFRAME IOVERLAY, 0, STATIC
        ARGFRAME DOVERLAY, 0, STATIC
        FUNCALL ZDP_DeviceAnnce, fillAndSend
        LOCFRAME ISTACK, 0, STACK
        LOCFRAME PSTACK, 0, STACK
        LOCFRAME XSTACK, 21, STACK
        LOCFRAME IOVERLAY, 0, STATIC
        LOCFRAME DOVERLAY, 0, STATIC
        ARGFRAME ISTACK, 0, STACK
        ARGFRAME PSTACK, 0, STACK
        ARGFRAME XSTACK, 21, STACK
        ARGFRAME IOVERLAY, 0, STATIC
        ARGFRAME DOVERLAY, 0, STATIC
        REQUIRE ?V0
        REQUIRE ?V1
        MOV     A,#-0xa
        LCALL   ?BANKED_ENTER_XDATA
          CFI DPH0 load(1, XDATA, add(CFA_XSP16, literal(-1)))
          CFI DPL0 load(1, XDATA, add(CFA_XSP16, literal(-2)))
          CFI ?BRET_EXT load(1, XDATA, add(CFA_XSP16, literal(-3)))
          CFI ?RET_HIGH load(1, XDATA, add(CFA_XSP16, literal(-4)))
          CFI ?RET_LOW load(1, XDATA, add(CFA_XSP16, literal(-5)))
          CFI R7 load(1, XDATA, add(CFA_XSP16, literal(-6)))
          CFI V1 load(1, XDATA, add(CFA_XSP16, literal(-7)))
          CFI V0 load(1, XDATA, add(CFA_XSP16, literal(-8)))
          CFI VB load(1, XDATA, add(CFA_XSP16, literal(-9)))
          CFI R6 load(1, XDATA, add(CFA_XSP16, literal(-10)))
          CFI CFA_SP SP+0
          CFI CFA_XSP16 add(XSP16, 10)
        ; Saved register size: 10
        ; Auto size: 9
        MOV     A,#-0x9
        LCALL   ?ALLOC_XSTACK8
          CFI CFA_XSP16 add(XSP16, 19)
        MOV     A,R1
        MOV     R6,A
//  565   zAddrType_t dstAddr;
//  566   uint8 len;
//  567 
//  568   (void)SecurityEnable;  // Intentionally unreferenced parameter
//  569 
//  570   dstAddr.addrMode = (afAddrMode_t)AddrBroadcast;
        MOV     A,#0x8
        LCALL   ?XSTACK_DISP0_8
        LCALL   ?Subroutine19 & 0xFFFF
//  571   dstAddr.addr.shortAddr = NWK_BROADCAST_SHORTADDR_DEVRXON;
//  572 
//  573   ZDP_TmpBuf[0] = LO_UINT16( nwkAddr );
??CrossCallReturnLabel_19:
        LCALL   ?Subroutine50 & 0xFFFF
??CrossCallReturnLabel_218:
        MOV     A,R2
        LCALL   ?Subroutine22 & 0xFFFF
//  574   ZDP_TmpBuf[1] = HI_UINT16( nwkAddr );
??CrossCallReturnLabel_24:
        MOV     A,R3
        MOVX    @DPTR,A
//  575   osal_cpyExtAddr( &ZDP_TmpBuf[2], IEEEAddr );
        ; Setup parameters for call to function sAddrExtCpy
        MOV     DPTR,#ZDP_TmpBuf
        MOVX    A,@DPTR
        ADD     A,#0x2
        MOV     R2,A
        INC     DPTR
        MOVX    A,@DPTR
        ADDC    A,#0x0
        MOV     R3,A
        LCALL   `??sAddrExtCpy::?relay`; Banked call to: sAddrExtCpy
//  576   len = 2 + Z_EXTADDR_LEN;
//  577 
//  578   ZDP_TmpBuf[10] = capabilities;
        LCALL   ?Subroutine97 & 0xFFFF
??CrossCallReturnLabel_277:
        XCH     A,R0
        ADD     A,#0xa
        MOV     DPL,A
        CLR     A
        ADDC    A,R0
        MOV     DPH,A
        MOV     A,R6
        MOVX    @DPTR,A
//  579   len++;
//  580 
//  581   return fillAndSend( &ZDP_TransID, &dstAddr, Device_annce, len );
        ; Setup parameters for call to function fillAndSend
        MOV     ?V0,#0x13
        MOV     ?V1,#0x0
        MOV     R0,#?V0
        LCALL   ?PUSH_XSTACK_I_TWO
          CFI CFA_XSP16 add(XSP16, 21)
        MOV     R1,#0xb
        LJMP    ?Subroutine2 & 0xFFFF
//  582 }
          CFI EndBlock cfiBlock49

        RSEG BANKED_CODE:CODE:NOROOT(0)
?Subroutine19:
          CFI Block cfiCond50 Using cfiCommon0
          CFI Function ZDP_ServerDiscReq
          CFI Conditional ??CrossCallReturnLabel_18
          CFI R6 load(1, XDATA, add(CFA_XSP16, literal(-10)))
          CFI VB load(1, XDATA, add(CFA_XSP16, literal(-9)))
          CFI V0 load(1, XDATA, add(CFA_XSP16, literal(-8)))
          CFI V1 load(1, XDATA, add(CFA_XSP16, literal(-7)))
          CFI R7 load(1, XDATA, add(CFA_XSP16, literal(-6)))
          CFI ?RET_LOW load(1, XDATA, add(CFA_XSP16, literal(-5)))
          CFI ?RET_HIGH load(1, XDATA, add(CFA_XSP16, literal(-4)))
          CFI ?BRET_EXT load(1, XDATA, add(CFA_XSP16, literal(-3)))
          CFI DPL0 load(1, XDATA, add(CFA_XSP16, literal(-2)))
          CFI DPH0 load(1, XDATA, add(CFA_XSP16, literal(-1)))
          CFI CFA_SP SP+-2
          CFI CFA_XSP16 add(XSP16, 19)
          CFI Block cfiCond51 Using cfiCommon0
          CFI (cfiCond51) Function ZDP_DeviceAnnce
          CFI (cfiCond51) Conditional ??CrossCallReturnLabel_19
          CFI (cfiCond51) R6 load(1, XDATA, add(CFA_XSP16, literal(-10)))
          CFI (cfiCond51) VB load(1, XDATA, add(CFA_XSP16, literal(-9)))
          CFI (cfiCond51) V0 load(1, XDATA, add(CFA_XSP16, literal(-8)))
          CFI (cfiCond51) V1 load(1, XDATA, add(CFA_XSP16, literal(-7)))
          CFI (cfiCond51) R7 load(1, XDATA, add(CFA_XSP16, literal(-6)))
          CFI (cfiCond51) ?RET_LOW load(1, XDATA, add(CFA_XSP16, literal(-5)))
          CFI (cfiCond51) ?RET_HIGH load(1, XDATA, add(CFA_XSP16, literal(-4)))
          CFI (cfiCond51) ?BRET_EXT load(1, XDATA, add(CFA_XSP16, literal(-3)))
          CFI (cfiCond51) DPL0 load(1, XDATA, add(CFA_XSP16, literal(-2)))
          CFI (cfiCond51) DPH0 load(1, XDATA, add(CFA_XSP16, literal(-1)))
          CFI (cfiCond51) CFA_SP SP+-2
          CFI (cfiCond51) CFA_XSP16 add(XSP16, 19)
          CFI Block cfiPicker52 Using cfiCommon1
          CFI (cfiPicker52) NoFunction
          CFI (cfiPicker52) Picker
        LCALL   ?Subroutine88 & 0xFFFF
??CrossCallReturnLabel_153:
        MOVX    @DPTR,A
        RET
          CFI EndBlock cfiCond50
          CFI EndBlock cfiCond51
          CFI EndBlock cfiPicker52

        RSEG BANKED_CODE:CODE:NOROOT(0)
?Subroutine88:
          CFI Block cfiCond53 Using cfiCommon0
          CFI Function ZDP_NwkAddrReq
          CFI Conditional ??CrossCallReturnLabel_152
          CFI R6 load(1, XDATA, add(CFA_XSP16, literal(-12)))
          CFI VB load(1, XDATA, add(CFA_XSP16, literal(-11)))
          CFI V0 load(1, XDATA, add(CFA_XSP16, literal(-10)))
          CFI V1 load(1, XDATA, add(CFA_XSP16, literal(-9)))
          CFI V2 load(1, XDATA, add(CFA_XSP16, literal(-8)))
          CFI V3 load(1, XDATA, add(CFA_XSP16, literal(-7)))
          CFI R7 load(1, XDATA, add(CFA_XSP16, literal(-6)))
          CFI ?RET_LOW load(1, XDATA, add(CFA_XSP16, literal(-5)))
          CFI ?RET_HIGH load(1, XDATA, add(CFA_XSP16, literal(-4)))
          CFI ?BRET_EXT load(1, XDATA, add(CFA_XSP16, literal(-3)))
          CFI DPL0 load(1, XDATA, add(CFA_XSP16, literal(-2)))
          CFI DPH0 load(1, XDATA, add(CFA_XSP16, literal(-1)))
          CFI CFA_SP SP+-2
          CFI CFA_XSP16 add(XSP16, 21)
          CFI Block cfiCond54 Using cfiCommon0
          CFI (cfiCond54) Function ZDP_ServerDiscReq
          CFI (cfiCond54) Conditional ??CrossCallReturnLabel_153, ??CrossCallReturnLabel_18
          CFI (cfiCond54) R6 load(1, XDATA, add(CFA_XSP16, literal(-10)))
          CFI (cfiCond54) VB load(1, XDATA, add(CFA_XSP16, literal(-9)))
          CFI (cfiCond54) V0 load(1, XDATA, add(CFA_XSP16, literal(-8)))
          CFI (cfiCond54) V1 load(1, XDATA, add(CFA_XSP16, literal(-7)))
          CFI (cfiCond54) R7 load(1, XDATA, add(CFA_XSP16, literal(-6)))
          CFI (cfiCond54) ?RET_LOW load(1, XDATA, add(CFA_XSP16, literal(-5)))
          CFI (cfiCond54) ?RET_HIGH load(1, XDATA, add(CFA_XSP16, literal(-4)))
          CFI (cfiCond54) ?BRET_EXT load(1, XDATA, add(CFA_XSP16, literal(-3)))
          CFI (cfiCond54) DPL0 load(1, XDATA, add(CFA_XSP16, literal(-2)))
          CFI (cfiCond54) DPH0 load(1, XDATA, add(CFA_XSP16, literal(-1)))
          CFI (cfiCond54) CFA_SP SP+-4
          CFI (cfiCond54) CFA_XSP16 add(XSP16, 19)
          CFI Block cfiCond55 Using cfiCommon0
          CFI (cfiCond55) Function ZDP_DeviceAnnce
          CFI (cfiCond55) Conditional ??CrossCallReturnLabel_153, ??CrossCallReturnLabel_19
          CFI (cfiCond55) R6 load(1, XDATA, add(CFA_XSP16, literal(-10)))
          CFI (cfiCond55) VB load(1, XDATA, add(CFA_XSP16, literal(-9)))
          CFI (cfiCond55) V0 load(1, XDATA, add(CFA_XSP16, literal(-8)))
          CFI (cfiCond55) V1 load(1, XDATA, add(CFA_XSP16, literal(-7)))
          CFI (cfiCond55) R7 load(1, XDATA, add(CFA_XSP16, literal(-6)))
          CFI (cfiCond55) ?RET_LOW load(1, XDATA, add(CFA_XSP16, literal(-5)))
          CFI (cfiCond55) ?RET_HIGH load(1, XDATA, add(CFA_XSP16, literal(-4)))
          CFI (cfiCond55) ?BRET_EXT load(1, XDATA, add(CFA_XSP16, literal(-3)))
          CFI (cfiCond55) DPL0 load(1, XDATA, add(CFA_XSP16, literal(-2)))
          CFI (cfiCond55) DPH0 load(1, XDATA, add(CFA_XSP16, literal(-1)))
          CFI (cfiCond55) CFA_SP SP+-4
          CFI (cfiCond55) CFA_XSP16 add(XSP16, 19)
          CFI Block cfiPicker56 Using cfiCommon1
          CFI (cfiPicker56) NoFunction
          CFI (cfiPicker56) Picker
        MOV     A,#0xf
        MOVX    @DPTR,A
        MOV     DPL,?XSP + 0
        MOV     DPH,?XSP + 1
        MOV     A,#-0x3
        MOVX    @DPTR,A
        INC     DPTR
        MOV     A,#-0x1
        RET
          CFI EndBlock cfiCond53
          CFI EndBlock cfiCond54
          CFI EndBlock cfiCond55
          CFI EndBlock cfiPicker56
//  583 
//  584 /*********************************************************************
//  585  * @fn          ZDP_ParentAnnce
//  586  *
//  587  * @brief       This builds and send a Parent_Annce and Parent_Annce_Rsp
//  588  *              messages, it will depend on the clusterID parameter.
//  589  *
//  590  * @param       TransSeq - ZDP Transaction Sequence Number
//  591  * @param       dstAddr - destination address
//  592  * @param       numberOfChildren - 8 bit number of children
//  593  * @param       childInfo - list of children information (ExtAddr and Age)
//  594  * @param       clusterID - Parent_annce or Parent_annce_rsp
//  595  * @param       SecurityEnable - Security Options
//  596  *
//  597  * @return      afStatus_t
//  598  */

        RSEG BANKED_CODE:CODE:NOROOT(0)
//  599 afStatus_t ZDP_ParentAnnce( uint8 *TransSeq,
ZDP_ParentAnnce:
          CFI Block cfiBlock57 Using cfiCommon0
          CFI Function ZDP_ParentAnnce
        CODE
//  600                             zAddrType_t *dstAddr,
//  601                             uint8 numberOfChildren,
//  602                             uint8 *childInfo,
//  603                             cId_t clusterID,
//  604                             uint8 SecurityEnable )
//  605 {
        FUNCALL ZDP_ParentAnnce, sAddrExtCpy
        LOCFRAME ISTACK, 0, STACK
        LOCFRAME PSTACK, 0, STACK
        LOCFRAME XSTACK, 20, STACK
        LOCFRAME IOVERLAY, 0, STATIC
        LOCFRAME DOVERLAY, 0, STATIC
        ARGFRAME ISTACK, 0, STACK
        ARGFRAME PSTACK, 0, STACK
        ARGFRAME XSTACK, 20, STACK
        ARGFRAME IOVERLAY, 0, STATIC
        ARGFRAME DOVERLAY, 0, STATIC
        FUNCALL ZDP_ParentAnnce, osal_buffer_uint32
        LOCFRAME ISTACK, 0, STACK
        LOCFRAME PSTACK, 0, STACK
        LOCFRAME XSTACK, 24, STACK
        LOCFRAME IOVERLAY, 0, STATIC
        LOCFRAME DOVERLAY, 0, STATIC
        ARGFRAME ISTACK, 0, STACK
        ARGFRAME PSTACK, 0, STACK
        ARGFRAME XSTACK, 24, STACK
        ARGFRAME IOVERLAY, 0, STATIC
        ARGFRAME DOVERLAY, 0, STATIC
        FUNCALL ZDP_ParentAnnce, fillAndSend
        LOCFRAME ISTACK, 0, STACK
        LOCFRAME PSTACK, 0, STACK
        LOCFRAME XSTACK, 22, STACK
        LOCFRAME IOVERLAY, 0, STATIC
        LOCFRAME DOVERLAY, 0, STATIC
        ARGFRAME ISTACK, 0, STACK
        ARGFRAME PSTACK, 0, STACK
        ARGFRAME XSTACK, 22, STACK
        ARGFRAME IOVERLAY, 0, STATIC
        ARGFRAME DOVERLAY, 0, STATIC
        REQUIRE ?V0
        REQUIRE ?V1
        REQUIRE ?V2
        REQUIRE ?V3
        REQUIRE ?V4
        REQUIRE ?V5
        REQUIRE ?V6
        REQUIRE ?V7
        REQUIRE ?V8
        REQUIRE ?V10
        REQUIRE ?V11
        MOV     A,#-0x14
        LCALL   ?BANKED_ENTER_XDATA
          CFI DPH0 load(1, XDATA, add(CFA_XSP16, literal(-1)))
          CFI DPL0 load(1, XDATA, add(CFA_XSP16, literal(-2)))
          CFI ?BRET_EXT load(1, XDATA, add(CFA_XSP16, literal(-3)))
          CFI ?RET_HIGH load(1, XDATA, add(CFA_XSP16, literal(-4)))
          CFI ?RET_LOW load(1, XDATA, add(CFA_XSP16, literal(-5)))
          CFI R7 load(1, XDATA, add(CFA_XSP16, literal(-6)))
          CFI V11 load(1, XDATA, add(CFA_XSP16, literal(-7)))
          CFI V10 load(1, XDATA, add(CFA_XSP16, literal(-8)))
          CFI V9 load(1, XDATA, add(CFA_XSP16, literal(-9)))
          CFI V8 load(1, XDATA, add(CFA_XSP16, literal(-10)))
          CFI V7 load(1, XDATA, add(CFA_XSP16, literal(-11)))
          CFI V6 load(1, XDATA, add(CFA_XSP16, literal(-12)))
          CFI V5 load(1, XDATA, add(CFA_XSP16, literal(-13)))
          CFI V4 load(1, XDATA, add(CFA_XSP16, literal(-14)))
          CFI V3 load(1, XDATA, add(CFA_XSP16, literal(-15)))
          CFI V2 load(1, XDATA, add(CFA_XSP16, literal(-16)))
          CFI V1 load(1, XDATA, add(CFA_XSP16, literal(-17)))
          CFI V0 load(1, XDATA, add(CFA_XSP16, literal(-18)))
          CFI VB load(1, XDATA, add(CFA_XSP16, literal(-19)))
          CFI R6 load(1, XDATA, add(CFA_XSP16, literal(-20)))
          CFI CFA_SP SP+0
          CFI CFA_XSP16 add(XSP16, 20)
        ; Saved register size: 20
        ; Auto size: 0
        MOV     ?V2,R2
        MOV     ?V3,R3
        MOV     A,R4
        MOV     R6,A
        MOV     A,R5
        MOV     R7,A
        MOV     ?V8,R1
//  606   uint8 *pBuf = ZDP_TmpBuf;
        LCALL   ??Subroutine119_0 & 0xFFFF
//  607   ZDO_ChildInfo_t *pChildInfo;
//  608   uint8 i, len;
//  609 
//  610   (void)SecurityEnable;  // Intentionally unreferenced parameter
//  611 
//  612   // NumberOfChildren + ( numberOfChildren * ChildInfo).
//  613   len = 1 + ( numberOfChildren * sizeof(ZDO_ChildInfo_t) );
??CrossCallReturnLabel_235:
        MOV     B,#0xc
        MOV     A,R1
        MUL     AB
        INC     A
        MOV     ?V6,A
//  614 
//  615   if ( len >= ZDP_BUF_SZ-1 )
        SUBB    A,#0x4f
        JC      ??ZDP_ParentAnnce_0
//  616   {
//  617     return afStatus_MEM_FAIL;
        MOV     R1,#0x10
        LJMP    ??ZDP_ParentAnnce_1 & 0xFFFF
//  618   }
//  619 
//  620   pChildInfo = (ZDO_ChildInfo_t *)childInfo;
//  621 
//  622   if ( dstAddr->addrMode == AddrBroadcast )
??ZDP_ParentAnnce_0:
        MOV     DPL,R6
        MOV     DPH,R7
        INC     DPTR
        INC     DPTR
        INC     DPTR
        INC     DPTR
        INC     DPTR
        INC     DPTR
        INC     DPTR
        INC     DPTR
        MOVX    A,@DPTR
        XRL     A,#0xf
        JNZ     ??ZDP_ParentAnnce_2
//  623   {
//  624     // Make sure is sent to 0xFFFC
//  625     dstAddr->addr.shortAddr = NWK_BROADCAST_SHORTADDR_DEVZCZR;
        MOV     DPL,R6
        MOV     DPH,R7
        MOV     A,#-0x4
        MOVX    @DPTR,A
        INC     DPTR
        MOV     A,#-0x1
        MOVX    @DPTR,A
//  626   }
//  627 
//  628   *pBuf++ = numberOfChildren;
??ZDP_ParentAnnce_2:
        MOV     DPL,R2
        MOV     DPH,R3
        MOV     A,R1
        LCALL   ?Subroutine23 & 0xFFFF
//  629 
//  630   for ( i = 0; i < numberOfChildren; i++ )
??CrossCallReturnLabel_26:
        MOV     ?V7,#0x0
        MOV     A,#0x14
        LCALL   ?XSTACK_DISP0_8
        LCALL   ??Subroutine101_0 & 0xFFFF
??CrossCallReturnLabel_164:
        SJMP    ??ZDP_ParentAnnce_3
//  631   {
//  632     pBuf = osal_cpyExtAddr( pBuf, pChildInfo[i].extAddr );
??ZDP_ParentAnnce_4:
        MOV     A,?V7
        MOV     B,#0xc
        MUL     AB
        MOV     R0,A
        MOV     R1,B
        MOV     A,?V0
        ADD     A,R0
        MOV     ?V4,A
        MOV     A,?V1
        ADDC    A,R1
        MOV     ?V5,A
        ; Setup parameters for call to function sAddrExtCpy
        MOV     R4,?V4
        MOV     R5,A
        LCALL   `??sAddrExtCpy::?relay`; Banked call to: sAddrExtCpy
//  633 
//  634     pBuf = osal_buffer_uint32( pBuf, pChildInfo[i].age );
        ; Setup parameters for call to function osal_buffer_uint32
        MOV     DPL,?V4
        MOV     DPH,?V5
        INC     DPTR
        INC     DPTR
        INC     DPTR
        INC     DPTR
        INC     DPTR
        INC     DPTR
        INC     DPTR
        INC     DPTR
        LCALL   ?PUSH_XSTACK8_X_FOUR
          CFI CFA_XSP16 add(XSP16, 24)
        LCALL   `??osal_buffer_uint32::?relay`; Banked call to: osal_buffer_uint32
        MOV     A,#0x4
        LCALL   ?DEALLOC_XSTACK8
          CFI CFA_XSP16 add(XSP16, 20)
//  635   }
        INC     ?V7
??ZDP_ParentAnnce_3:
        MOV     A,?V7
        CLR     C
        SUBB    A,?V8
        JC      ??ZDP_ParentAnnce_4
//  636 
//  637   return fillAndSend( TransSeq, dstAddr, clusterID, len );
        ; Setup parameters for call to function fillAndSend
        MOV     A,#0x16
        LCALL   ?XSTACK_DISP0_8
        LCALL   ?PUSH_XSTACK8_X_TWO
          CFI CFA_XSP16 add(XSP16, 22)
        MOV     R1,?V6
        MOV     A,R6
        MOV     R4,A
        MOV     A,R7
        MOV     R5,A
        MOV     R2,?V2
        MOV     R3,?V3
        LCALL   `??fillAndSend::?relay`; Banked call to: fillAndSend
        MOV     A,#0x2
        LCALL   ?DEALLOC_XSTACK8
          CFI CFA_XSP16 add(XSP16, 20)
??ZDP_ParentAnnce_1:
          CFI EndBlock cfiBlock57
        REQUIRE ?Subroutine4
        ; // Fall through to label ?Subroutine4
//  638 }

        RSEG BANKED_CODE:CODE:NOROOT(0)
?Subroutine4:
          CFI Block cfiBlock58 Using cfiCommon0
          CFI NoFunction
          CFI CFA_SP SP+0
          CFI CFA_XSP16 add(XSP16, 20)
          CFI VB load(1, XDATA, add(CFA_XSP16, literal(-19)))
          CFI DPL0 load(1, XDATA, add(CFA_XSP16, literal(-2)))
          CFI DPH0 load(1, XDATA, add(CFA_XSP16, literal(-1)))
          CFI R6 load(1, XDATA, add(CFA_XSP16, literal(-20)))
          CFI R7 load(1, XDATA, add(CFA_XSP16, literal(-6)))
          CFI V0 load(1, XDATA, add(CFA_XSP16, literal(-18)))
          CFI V1 load(1, XDATA, add(CFA_XSP16, literal(-17)))
          CFI V2 load(1, XDATA, add(CFA_XSP16, literal(-16)))
          CFI V3 load(1, XDATA, add(CFA_XSP16, literal(-15)))
          CFI V4 load(1, XDATA, add(CFA_XSP16, literal(-14)))
          CFI V5 load(1, XDATA, add(CFA_XSP16, literal(-13)))
          CFI V6 load(1, XDATA, add(CFA_XSP16, literal(-12)))
          CFI V7 load(1, XDATA, add(CFA_XSP16, literal(-11)))
          CFI V8 load(1, XDATA, add(CFA_XSP16, literal(-10)))
          CFI V9 load(1, XDATA, add(CFA_XSP16, literal(-9)))
          CFI V10 load(1, XDATA, add(CFA_XSP16, literal(-8)))
          CFI V11 load(1, XDATA, add(CFA_XSP16, literal(-7)))
          CFI ?BRET_EXT load(1, XDATA, add(CFA_XSP16, literal(-3)))
          CFI ?RET_HIGH load(1, XDATA, add(CFA_XSP16, literal(-4)))
          CFI ?RET_LOW load(1, XDATA, add(CFA_XSP16, literal(-5)))
        MOV     R7,#0xc
        LJMP    ?BANKED_LEAVE_XDATA
          CFI EndBlock cfiBlock58
//  639 
//  640 /*********************************************************************
//  641  * Address Responses
//  642  */
//  643 
//  644 /*********************************************************************
//  645  * @fn      zdpProcessAddrReq
//  646  *
//  647  * @brief   Process an incoming NWK_addr_req or IEEE_addr_req message and then
//  648  *          build and send a corresponding NWK_addr_rsp or IEEE_addr_rsp msg.
//  649  *
//  650  * @param   inMsg - incoming message
//  651  *
//  652  * @return  none
//  653  */

        RSEG BANKED_CODE:CODE:NOROOT(0)
//  654 void zdpProcessAddrReq( zdoIncomingMsg_t *inMsg )
zdpProcessAddrReq:
          CFI Block cfiBlock59 Using cfiCommon0
          CFI Function zdpProcessAddrReq
        CODE
//  655 {
        FUNCALL zdpProcessAddrReq, sAddrExtCmp
        LOCFRAME ISTACK, 0, STACK
        LOCFRAME PSTACK, 0, STACK
        LOCFRAME XSTACK, 36, STACK
        LOCFRAME IOVERLAY, 0, STATIC
        LOCFRAME DOVERLAY, 0, STATIC
        ARGFRAME ISTACK, 0, STACK
        ARGFRAME PSTACK, 0, STACK
        ARGFRAME XSTACK, 36, STACK
        ARGFRAME IOVERLAY, 0, STATIC
        ARGFRAME DOVERLAY, 0, STATIC
        FUNCALL zdpProcessAddrReq, AssocGetWithExt
        LOCFRAME ISTACK, 0, STACK
        LOCFRAME PSTACK, 0, STACK
        LOCFRAME XSTACK, 36, STACK
        LOCFRAME IOVERLAY, 0, STATIC
        LOCFRAME DOVERLAY, 0, STATIC
        ARGFRAME ISTACK, 0, STACK
        ARGFRAME PSTACK, 0, STACK
        ARGFRAME XSTACK, 36, STACK
        ARGFRAME IOVERLAY, 0, STATIC
        ARGFRAME DOVERLAY, 0, STATIC
        FUNCALL zdpProcessAddrReq, AssocGetWithShort
        LOCFRAME ISTACK, 0, STACK
        LOCFRAME PSTACK, 0, STACK
        LOCFRAME XSTACK, 36, STACK
        LOCFRAME IOVERLAY, 0, STATIC
        LOCFRAME DOVERLAY, 0, STATIC
        ARGFRAME ISTACK, 0, STACK
        ARGFRAME PSTACK, 0, STACK
        ARGFRAME XSTACK, 36, STACK
        ARGFRAME IOVERLAY, 0, STATIC
        ARGFRAME DOVERLAY, 0, STATIC
        FUNCALL zdpProcessAddrReq, AddrMgrEntryGet
        LOCFRAME ISTACK, 0, STACK
        LOCFRAME PSTACK, 0, STACK
        LOCFRAME XSTACK, 36, STACK
        LOCFRAME IOVERLAY, 0, STATIC
        LOCFRAME DOVERLAY, 0, STATIC
        ARGFRAME ISTACK, 0, STACK
        ARGFRAME PSTACK, 0, STACK
        ARGFRAME XSTACK, 36, STACK
        ARGFRAME IOVERLAY, 0, STATIC
        ARGFRAME DOVERLAY, 0, STATIC
        FUNCALL zdpProcessAddrReq, sAddrExtCpy
        LOCFRAME ISTACK, 0, STACK
        LOCFRAME PSTACK, 0, STACK
        LOCFRAME XSTACK, 36, STACK
        LOCFRAME IOVERLAY, 0, STATIC
        LOCFRAME DOVERLAY, 0, STATIC
        ARGFRAME ISTACK, 0, STACK
        ARGFRAME PSTACK, 0, STACK
        ARGFRAME XSTACK, 36, STACK
        ARGFRAME IOVERLAY, 0, STATIC
        ARGFRAME DOVERLAY, 0, STATIC
        FUNCALL zdpProcessAddrReq, AssocMakeList
        LOCFRAME ISTACK, 0, STACK
        LOCFRAME PSTACK, 0, STACK
        LOCFRAME XSTACK, 36, STACK
        LOCFRAME IOVERLAY, 0, STATIC
        LOCFRAME DOVERLAY, 0, STATIC
        ARGFRAME ISTACK, 0, STACK
        ARGFRAME PSTACK, 0, STACK
        ARGFRAME XSTACK, 36, STACK
        ARGFRAME IOVERLAY, 0, STATIC
        ARGFRAME DOVERLAY, 0, STATIC
        FUNCALL zdpProcessAddrReq, osal_mem_free
        LOCFRAME ISTACK, 0, STACK
        LOCFRAME PSTACK, 0, STACK
        LOCFRAME XSTACK, 36, STACK
        LOCFRAME IOVERLAY, 0, STATIC
        LOCFRAME DOVERLAY, 0, STATIC
        ARGFRAME ISTACK, 0, STACK
        ARGFRAME PSTACK, 0, STACK
        ARGFRAME XSTACK, 36, STACK
        ARGFRAME IOVERLAY, 0, STATIC
        ARGFRAME DOVERLAY, 0, STATIC
        FUNCALL zdpProcessAddrReq, fillAndSend
        LOCFRAME ISTACK, 0, STACK
        LOCFRAME PSTACK, 0, STACK
        LOCFRAME XSTACK, 38, STACK
        LOCFRAME IOVERLAY, 0, STATIC
        LOCFRAME DOVERLAY, 0, STATIC
        ARGFRAME ISTACK, 0, STACK
        ARGFRAME PSTACK, 0, STACK
        ARGFRAME XSTACK, 38, STACK
        ARGFRAME IOVERLAY, 0, STATIC
        ARGFRAME DOVERLAY, 0, STATIC
        REQUIRE ?V0
        REQUIRE ?V1
        REQUIRE ?V2
        REQUIRE ?V3
        REQUIRE ?V4
        REQUIRE ?V5
        REQUIRE ?V6
        REQUIRE ?V7
        REQUIRE ?V8
        REQUIRE ?V9
        REQUIRE ?V10
        REQUIRE ?V11
        REQUIRE ?V12
        REQUIRE ?V13
        MOV     A,#-0x16
        LCALL   ?BANKED_ENTER_XDATA
          CFI DPH0 load(1, XDATA, add(CFA_XSP16, literal(-1)))
          CFI DPL0 load(1, XDATA, add(CFA_XSP16, literal(-2)))
          CFI ?BRET_EXT load(1, XDATA, add(CFA_XSP16, literal(-3)))
          CFI ?RET_HIGH load(1, XDATA, add(CFA_XSP16, literal(-4)))
          CFI ?RET_LOW load(1, XDATA, add(CFA_XSP16, literal(-5)))
          CFI R7 load(1, XDATA, add(CFA_XSP16, literal(-6)))
          CFI V13 load(1, XDATA, add(CFA_XSP16, literal(-7)))
          CFI V12 load(1, XDATA, add(CFA_XSP16, literal(-8)))
          CFI V11 load(1, XDATA, add(CFA_XSP16, literal(-9)))
          CFI V10 load(1, XDATA, add(CFA_XSP16, literal(-10)))
          CFI V9 load(1, XDATA, add(CFA_XSP16, literal(-11)))
          CFI V8 load(1, XDATA, add(CFA_XSP16, literal(-12)))
          CFI V7 load(1, XDATA, add(CFA_XSP16, literal(-13)))
          CFI V6 load(1, XDATA, add(CFA_XSP16, literal(-14)))
          CFI V5 load(1, XDATA, add(CFA_XSP16, literal(-15)))
          CFI V4 load(1, XDATA, add(CFA_XSP16, literal(-16)))
          CFI V3 load(1, XDATA, add(CFA_XSP16, literal(-17)))
          CFI V2 load(1, XDATA, add(CFA_XSP16, literal(-18)))
          CFI V1 load(1, XDATA, add(CFA_XSP16, literal(-19)))
          CFI V0 load(1, XDATA, add(CFA_XSP16, literal(-20)))
          CFI VB load(1, XDATA, add(CFA_XSP16, literal(-21)))
          CFI R6 load(1, XDATA, add(CFA_XSP16, literal(-22)))
          CFI CFA_SP SP+0
          CFI CFA_XSP16 add(XSP16, 22)
        ; Saved register size: 22
        ; Auto size: 14
        MOV     A,#-0xe
        LCALL   ?ALLOC_XSTACK8
          CFI CFA_XSP16 add(XSP16, 36)
        MOV     ?V6,R2
        MOV     ?V7,R3
//  656   associated_devices_t *pAssoc;
//  657   uint8 reqType;
//  658   uint16 aoi = INVALID_NODE_ADDR;
        MOV     ?V0,#-0x2
        MOV     ?V1,#-0x1
//  659   uint8 *ieee = NULL;
        MOV     R6,#0x0
        MOV     R7,#0x0
//  660 
//  661   reqType = inMsg->asdu[(inMsg->clusterID == NWK_addr_req) ? Z_EXTADDR_LEN : sizeof( uint16 ) ];
        MOV     A,R2
        ADD     A,#0xc
        MOV     ?V8,A
        CLR     A
        ADDC    A,?V7
        MOV     ?V9,A
        MOV     DPL,?V8
        MOV     DPH,A
        LCALL   ??Subroutine120_0 & 0xFFFF
??CrossCallReturnLabel_231:
        MOV     A,R2
        ORL     A,R3
        JNZ     ??zdpProcessAddrReq_0
        MOV     R4,#0x8
        SJMP    ??zdpProcessAddrReq_1
??zdpProcessAddrReq_0:
        MOV     R4,#0x2
??zdpProcessAddrReq_1:
        MOV     A,?V6
        ADD     A,#0x13
        MOV     ?V12,A
        CLR     A
        ADDC    A,?V7
        MOV     ?V13,A
        MOV     DPL,?V12
        MOV     DPH,A
        LCALL   ??Subroutine126_0 & 0xFFFF
??CrossCallReturnLabel_260:
        MOV     A,R0
        ADD     A,R4
        MOV     DPL,A
        CLR     A
        ADDC    A,R1
        MOV     DPH,A
        MOVX    A,@DPTR
        MOV     ?V3,A
//  662 
//  663   if ( inMsg->clusterID == NWK_addr_req )
        MOV     A,R2
        ORL     A,R3
        JNZ     ??zdpProcessAddrReq_2
//  664 
//  665   {
//  666     ieee = inMsg->asdu;
        MOV     A,R0
        MOV     R6,A
        MOV     A,R1
        MOV     R7,A
//  667 
//  668     if ( osal_ExtAddrEqual( saveExtAddr, ieee ) )
        ; Setup parameters for call to function sAddrExtCmp
        MOV     A,R6
        MOV     R4,A
        MOV     A,R7
        MOV     R5,A
        MOV     R2,#saveExtAddr & 0xff
        MOV     R3,#(saveExtAddr >> 8) & 0xff
        LCALL   `??sAddrExtCmp::?relay`; Banked call to: sAddrExtCmp
        MOV     A,R1
        JZ      ??zdpProcessAddrReq_3
//  669     {
//  670       aoi = ZDAppNwkAddr.addr.shortAddr;
        MOV     DPTR,#ZDAppNwkAddr
        LCALL   ??Subroutine101_0 & 0xFFFF
//  671     }
??CrossCallReturnLabel_165:
        LJMP    ??zdpProcessAddrReq_4 & 0xFFFF
//  672     // Handle response for sleeping end devices
//  673     else if ( (ZSTACK_ROUTER_BUILD)
//  674       && (((pAssoc = AssocGetWithExt( ieee )) != NULL)
//  675              && (pAssoc->nodeRelation == CHILD_RFD)) )
??zdpProcessAddrReq_3:
        ; Setup parameters for call to function AssocGetWithExt
        MOV     A,R6
        MOV     R2,A
        MOV     A,R7
        MOV     R3,A
        LCALL   `??AssocGetWithExt::?relay`; Banked call to: AssocGetWithExt
        MOV     ?V4,R2
        MOV     ?V5,R3
        MOV     R0,?V4
        MOV     R1,?V5
        MOV     A,R0
        ORL     A,R1
        JNZ     $+5
        LJMP    ??zdpProcessAddrReq_5 & 0xFFFF
        MOV     DPL,R0
        MOV     DPH,R1
        INC     DPTR
        INC     DPTR
        INC     DPTR
        INC     DPTR
        MOVX    A,@DPTR
        XRL     A,#0x1
        JZ      $+5
        LJMP    ??zdpProcessAddrReq_5 & 0xFFFF
//  676     {
//  677       aoi = pAssoc->shortAddr;
        MOV     DPL,R0
        MOV     DPH,R1
        LCALL   ??Subroutine101_0 & 0xFFFF
//  678       if ( reqType != ZDP_ADDR_REQTYPE_SINGLE )
??CrossCallReturnLabel_166:
        MOV     A,?V3
        JNZ     ??zdpProcessAddrReq_6
        SJMP    ??zdpProcessAddrReq_4
//  679         reqType = 0xFF; // Force Invalid
//  680     }
//  681   }
//  682   else  // if ( inMsg->clusterID == IEEE_addr_req )
//  683   {
//  684     aoi = BUILD_UINT16( inMsg->asdu[0], inMsg->asdu[1] );
??zdpProcessAddrReq_2:
        MOV     DPL,R0
        MOV     DPH,R1
        MOVX    A,@DPTR
        MOV     R2,A
        INC     DPTR
        MOVX    A,@DPTR
        MOV     R1,A
        MOV     A,R2
        ADD     A,R6
        MOV     ?V0,A
        CLR     A
        ADDC    A,R1
        MOV     ?V1,A
//  685 
//  686     if ( aoi == ZDAppNwkAddr.addr.shortAddr )
        MOV     DPTR,#ZDAppNwkAddr
        MOVX    A,@DPTR
        XRL     A,?V0
        JNZ     ??zdpProcessAddrReq_7
        INC     DPTR
        MOVX    A,@DPTR
        XRL     A,?V1
??zdpProcessAddrReq_7:
        JNZ     ??zdpProcessAddrReq_8
//  687     {
//  688       ieee = saveExtAddr;
        MOV     R6,#saveExtAddr & 0xff
        MOV     R7,#(saveExtAddr >> 8) & 0xff
        SJMP    ??zdpProcessAddrReq_4
//  689     }
//  690     else if ( (ZSTACK_ROUTER_BUILD)
//  691       && (((pAssoc = AssocGetWithShort( aoi )) != NULL)
//  692              && (pAssoc->nodeRelation == CHILD_RFD)) )
??zdpProcessAddrReq_8:
        ; Setup parameters for call to function AssocGetWithShort
        MOV     R3,?V1
        LCALL   `??AssocGetWithShort::?relay`; Banked call to: AssocGetWithShort
        MOV     ?V4,R2
        MOV     ?V5,R3
        MOV     R0,?V4
        MOV     R1,?V5
        MOV     A,R0
        ORL     A,R1
        JZ      ??zdpProcessAddrReq_5
        MOV     DPL,R0
        MOV     DPH,R1
        INC     DPTR
        INC     DPTR
        INC     DPTR
        INC     DPTR
        MOVX    A,@DPTR
        XRL     A,#0x1
        JNZ     ??zdpProcessAddrReq_5
//  693     {
//  694       AddrMgrEntry_t addrEntry;
//  695       addrEntry.user = ADDRMGR_USER_DEFAULT;
        MOV     A,#0x1
        LCALL   ?XSTACK_DISP0_8
        CLR     A
        LCALL   ?Subroutine39 & 0xFFFF
//  696       addrEntry.index = pAssoc->addrIdx;
??CrossCallReturnLabel_60:
        MOV     R0,A
        INC     DPTR
        MOVX    A,@DPTR
        MOV     R1,A
        MOV     A,#0xc
        LCALL   ?XSTACK_DISP0_8
        LCALL   ?Subroutine29 & 0xFFFF
//  697       if ( AddrMgrEntryGet( &addrEntry ) )
??CrossCallReturnLabel_43:
        ; Setup parameters for call to function AddrMgrEntryGet
        MOV     A,#0x1
        LCALL   ?XSTACK_DISP101_8
        LCALL   `??AddrMgrEntryGet::?relay`; Banked call to: AddrMgrEntryGet
        MOV     A,R1
        JZ      ??zdpProcessAddrReq_9
//  698       {
//  699         ieee = addrEntry.extAddr;
        MOV     A,#0x4
        LCALL   ?XSTACK_DISP0_8
        MOV     R6,DPL
        MOV     R7,DPH
//  700       }
//  701 
//  702       if ( reqType != ZDP_ADDR_REQTYPE_SINGLE )
??zdpProcessAddrReq_9:
        MOV     A,?V3
        JZ      ??zdpProcessAddrReq_4
//  703         reqType = 0xFF; // Force Invalid
??zdpProcessAddrReq_6:
        MOV     ?V3,#-0x1
//  704     }
//  705   }
//  706 
//  707   if ( ((aoi != INVALID_NODE_ADDR) && (ieee != NULL)) || (inMsg->wasBroadcast == FALSE) )
??zdpProcessAddrReq_4:
        MOV     A,#-0x2
        XRL     A,?V0
        JNZ     ??zdpProcessAddrReq_10
        MOV     A,#-0x1
        XRL     A,?V1
??zdpProcessAddrReq_10:
        JZ      ??zdpProcessAddrReq_5
        MOV     A,R6
        ORL     A,R7
        JNZ     ??zdpProcessAddrReq_11
??zdpProcessAddrReq_5:
        MOV     A,?V6
        ADD     A,#0xb
        MOV     DPL,A
        CLR     A
        ADDC    A,?V7
        MOV     DPH,A
        MOVX    A,@DPTR
        JZ      $+5
        LJMP    ??zdpProcessAddrReq_12 & 0xFFFF
//  708   {
//  709     uint8 stat;
//  710     uint8 *pBuf = ZDP_TmpBuf;
??zdpProcessAddrReq_11:
        LCALL   ??Subroutine119_0 & 0xFFFF
//  711     // Status + IEEE-Addr + Nwk-Addr.
//  712     uint8 len = 1 + Z_EXTADDR_LEN + 2;
??CrossCallReturnLabel_236:
        MOV     ?V2,#0xb
//  713 
//  714     // If aoi and iee are both setup, we found results
//  715     if ( (aoi != INVALID_NODE_ADDR) && (ieee != NULL) )
        MOV     A,#-0x2
        XRL     A,?V0
        JNZ     ??zdpProcessAddrReq_13
        MOV     A,#-0x1
        XRL     A,?V1
??zdpProcessAddrReq_13:
        JZ      ??zdpProcessAddrReq_14
        MOV     A,R6
        ORL     A,R7
        JZ      ??zdpProcessAddrReq_14
//  716     {
//  717       stat = ((reqType == ZDP_ADDR_REQTYPE_SINGLE) || (reqType == ZDP_ADDR_REQTYPE_EXTENDED))
//  718                     ? ZDP_SUCCESS : ZDP_INVALID_REQTYPE;
        MOV     A,?V3
        JZ      ??zdpProcessAddrReq_15
        MOV     A,#0x1
        XRL     A,?V3
        JNZ     ??zdpProcessAddrReq_16
??zdpProcessAddrReq_15:
        MOV     ?V4,#0x0
        SJMP    ??zdpProcessAddrReq_17
??zdpProcessAddrReq_16:
        MOV     ?V4,#-0x80
        SJMP    ??zdpProcessAddrReq_17
//  719     }
//  720     else
//  721     {
//  722       // not found and the req was unicast to this device
//  723       stat = ZDP_DEVICE_NOT_FOUND;
??zdpProcessAddrReq_14:
        MOV     ?V4,#-0x7f
//  724 
//  725       // Fill in the missing field with this device's address
//  726       if ( inMsg->clusterID == NWK_addr_req )
        LCALL   ?Subroutine54 & 0xFFFF
??CrossCallReturnLabel_174:
        JNZ     ??zdpProcessAddrReq_18
//  727       {
//  728         aoi = ZDAppNwkAddr.addr.shortAddr;
        MOV     DPTR,#ZDAppNwkAddr
        LCALL   ??Subroutine101_0 & 0xFFFF
//  729       }
??CrossCallReturnLabel_167:
        SJMP    ??zdpProcessAddrReq_17
//  730       else
//  731       {
//  732         ieee = saveExtAddr;
??zdpProcessAddrReq_18:
        MOV     R6,#saveExtAddr & 0xff
        MOV     R7,#(saveExtAddr >> 8) & 0xff
//  733       }
//  734     }
//  735 
//  736     *pBuf++ = stat;
??zdpProcessAddrReq_17:
        MOV     DPL,R2
        MOV     DPH,R3
        MOV     A,?V4
        LCALL   ?Subroutine23 & 0xFFFF
//  737 
//  738     pBuf = osal_cpyExtAddr( pBuf, ieee );
??CrossCallReturnLabel_27:
        ; Setup parameters for call to function sAddrExtCpy
        MOV     A,R6
        MOV     R4,A
        MOV     A,R7
        MOV     R5,A
        LCALL   `??sAddrExtCpy::?relay`; Banked call to: sAddrExtCpy
        MOV     ?V10,R2
        MOV     ?V11,R3
        MOV     R6,?V10
        MOV     R7,?V11
//  739 
//  740     *pBuf++ = LO_UINT16( aoi );
        MOV     DPL,R6
        MOV     DPH,R7
        MOV     A,?V0
        MOVX    @DPTR,A
//  741     *pBuf++ = HI_UINT16( aoi );
        INC     DPTR
        MOV     A,?V1
        MOVX    @DPTR,A
//  742 
//  743     if ( ZSTACK_ROUTER_BUILD )
//  744     {
//  745       if ( (reqType == ZDP_ADDR_REQTYPE_EXTENDED) && (aoi == ZDAppNwkAddr.addr.shortAddr)
//  746            && (stat == ZDP_SUCCESS) )
        MOV     A,#0x1
        XRL     A,?V3
        JZ      $+5
        LJMP    ??zdpProcessAddrReq_19 & 0xFFFF
        MOV     DPTR,#ZDAppNwkAddr
        MOVX    A,@DPTR
        XRL     A,?V0
        JNZ     ??zdpProcessAddrReq_20
        INC     DPTR
        MOVX    A,@DPTR
        XRL     A,?V1
??zdpProcessAddrReq_20:
        JZ      $+5
        LJMP    ??zdpProcessAddrReq_19 & 0xFFFF
        MOV     A,?V4
        JZ      $+5
        LJMP    ??zdpProcessAddrReq_19 & 0xFFFF
//  747       {
//  748         uint8  cnt = 0;
        MOV     DPL,?XSP + 0
        MOV     DPH,?XSP + 1
        CLR     A
        MOVX    @DPTR,A
//  749         uint16 *list = AssocMakeList( &cnt );
        ; Setup parameters for call to function AssocMakeList
        MOV     R2,?XSP + 0
        MOV     R3,?XSP + 1
        LCALL   `??AssocMakeList::?relay`; Banked call to: AssocMakeList
        MOV     ?V0,R2
        MOV     ?V1,R3
        MOV     R4,?V0
        MOV     R5,?V1
//  750 
//  751         if ( list != NULL )
        MOV     A,R6
        ADD     A,#0x2
        MOV     R0,A
        CLR     A
        ADDC    A,R7
        MOV     R1,A
        MOV     A,R0
        MOV     R2,A
        MOV     A,R1
        MOV     R3,A
        MOV     A,R4
        ORL     A,R5
        JNZ     $+5
        LJMP    ??zdpProcessAddrReq_21 & 0xFFFF
//  752         {
//  753           byte idx = inMsg->asdu[(((inMsg->clusterID == NWK_addr_req) ? Z_EXTADDR_LEN : sizeof( uint16 )) + 1)];
        LCALL   ?Subroutine54 & 0xFFFF
??CrossCallReturnLabel_175:
        JNZ     ??zdpProcessAddrReq_22
        MOV     R0,#0x8
        SJMP    ??zdpProcessAddrReq_23
??zdpProcessAddrReq_22:
        MOV     R0,#0x2
??zdpProcessAddrReq_23:
        MOV     DPL,?V12
        MOV     DPH,?V13
        MOVX    A,@DPTR
        ADD     A,R0
        MOV     ?V0,A
        INC     DPTR
        MOVX    A,@DPTR
        ADDC    A,#0x0
        MOV     DPL,?V0
        MOV     DPH,A
        INC     DPTR
        MOVX    A,@DPTR
        MOV     ?V0,A
//  754           uint16 *pList = list + idx;
        LCALL   ??Subroutine112_0 & 0xFFFF
??CrossCallReturnLabel_195:
        MOV     A,R4
        ADD     A,R0
        MOV     R0,A
        MOV     A,R5
        ADDC    A,R1
        MOV     R1,A
//  755 
//  756           // NumAssocDev field is only present on success.
//  757           if ( cnt > idx )
        MOV     DPL,?XSP + 0
        MOV     DPH,?XSP + 1
        MOVX    A,@DPTR
        MOV     ?V1,A
        MOV     A,?V0
        CLR     C
        SUBB    A,?V1
        JNC     ??zdpProcessAddrReq_24
//  758           {
//  759             cnt -= idx;
        MOVX    A,@DPTR
        CLR     C
        SUBB    A,?V0
        MOVX    @DPTR,A
//  760             len += (cnt * sizeof( uint16 ));
        CLR     C
        RLC     A
        ADD     A,#0xb
        MOV     ?V2,A
        SJMP    ??zdpProcessAddrReq_25
//  761           }
//  762           else
//  763           {
//  764             cnt = 0;
??zdpProcessAddrReq_24:
        CLR     A
        MOVX    @DPTR,A
//  765           }
//  766           *pBuf++ = cnt;
??zdpProcessAddrReq_25:
        LCALL   ??Subroutine118_0 & 0xFFFF
??CrossCallReturnLabel_223:
        LCALL   ?Subroutine38 & 0xFFFF
//  767           len++;
//  768 
//  769           // StartIndex field is only present if NumAssocDev field is non-zero.
//  770           *pBuf++ = idx;
??CrossCallReturnLabel_58:
        MOV     A,?V0
        MOVX    @DPTR,A
        MOV     A,R6
        ADD     A,#0x4
        MOV     R2,A
        CLR     A
        ADDC    A,R7
        MOV     R3,A
//  771           len++;
        INC     ?V2
        INC     ?V2
        SJMP    ??zdpProcessAddrReq_26
//  772 
//  773           while ( cnt != 0 )
//  774           {
//  775             *pBuf++ = LO_UINT16( *pList );
??zdpProcessAddrReq_27:
        LCALL   ?Subroutine68 & 0xFFFF
??CrossCallReturnLabel_227:
        LCALL   ?Subroutine25 & 0xFFFF
//  776             *pBuf++ = HI_UINT16( *pList );
??CrossCallReturnLabel_32:
        MOVX    @DPTR,A
        MOV     A,R2
        ADD     A,#0x2
        MOV     R2,A
        JNC     ??zdpProcessAddrReq_28
        INC     R3
//  777             pList++;
??zdpProcessAddrReq_28:
        MOV     A,R0
        ADD     A,#0x2
        MOV     R0,A
        JNC     ??zdpProcessAddrReq_29
        INC     R1
//  778             cnt--;
??zdpProcessAddrReq_29:
        MOV     DPL,?XSP + 0
        MOV     DPH,?XSP + 1
        MOVX    A,@DPTR
        DEC     A
        MOVX    @DPTR,A
//  779           }
??zdpProcessAddrReq_26:
        MOV     DPL,?XSP + 0
        MOV     DPH,?XSP + 1
        MOVX    A,@DPTR
        JNZ     ??zdpProcessAddrReq_27
//  780 
//  781           osal_mem_free( (uint8 *)list );
        ; Setup parameters for call to function osal_mem_free
        MOV     A,R4
        MOV     R2,A
        MOV     A,R5
        MOV     R3,A
        LCALL   `??osal_mem_free::?relay`; Banked call to: osal_mem_free
        SJMP    ??zdpProcessAddrReq_19
//  782         }
//  783         else
//  784         {
//  785           // NumAssocDev field is only present on success.
//  786           *pBuf++ = 0;
??zdpProcessAddrReq_21:
        MOV     DPL,R2
        MOV     DPH,R3
        CLR     A
        MOVX    @DPTR,A
//  787           len++;
        MOV     ?V2,#0xc
//  788         }
//  789       }
//  790     }
//  791 
//  792     ZDP_TxOptions = AF_MSG_ACK_REQUEST;
??zdpProcessAddrReq_19:
        MOV     DPTR,#ZDP_TxOptions
        MOV     A,#0x10
        LCALL   ?Subroutine27 & 0xFFFF
//  793     fillAndSend( &(inMsg->TransSeq), &(inMsg->srcAddr), (cId_t)(inMsg->clusterID | ZDO_RESPONSE_BIT), len );
??CrossCallReturnLabel_37:
        MOVX    A,@DPTR
        MOV     ?V0,A
        INC     DPTR
        MOVX    A,@DPTR
        ORL     A,#0x80
        MOV     ?V1,A
        MOV     R0,#?V0
        LCALL   ?PUSH_XSTACK_I_TWO
          CFI CFA_XSP16 add(XSP16, 38)
        MOV     R1,?V2
        MOV     A,?V6
        ADD     A,#0x2
        MOV     R4,A
        CLR     A
        ADDC    A,?V7
        MOV     R5,A
        MOV     A,?V6
        ADD     A,#0xf
        MOV     R2,A
        CLR     A
        ADDC    A,?V7
        MOV     R3,A
        LCALL   `??fillAndSend::?relay`; Banked call to: fillAndSend
        MOV     A,#0x2
        LCALL   ?DEALLOC_XSTACK8
          CFI CFA_XSP16 add(XSP16, 36)
//  794     ZDP_TxOptions = AF_TX_OPTIONS_NONE;
        MOV     DPTR,#ZDP_TxOptions
        CLR     A
        MOVX    @DPTR,A
//  795   }
//  796 }
??zdpProcessAddrReq_12:
        MOV     A,#0xe
        LJMP    ??Subroutine121_0 & 0xFFFF
          CFI EndBlock cfiBlock59

        RSEG BANKED_CODE:CODE:NOROOT(0)
?Subroutine54:
          CFI Block cfiCond60 Using cfiCommon0
          CFI Function zdpProcessAddrReq
          CFI Conditional ??CrossCallReturnLabel_174
          CFI R6 load(1, XDATA, add(CFA_XSP16, literal(-22)))
          CFI VB load(1, XDATA, add(CFA_XSP16, literal(-21)))
          CFI V0 load(1, XDATA, add(CFA_XSP16, literal(-20)))
          CFI V1 load(1, XDATA, add(CFA_XSP16, literal(-19)))
          CFI V2 load(1, XDATA, add(CFA_XSP16, literal(-18)))
          CFI V3 load(1, XDATA, add(CFA_XSP16, literal(-17)))
          CFI V4 load(1, XDATA, add(CFA_XSP16, literal(-16)))
          CFI V5 load(1, XDATA, add(CFA_XSP16, literal(-15)))
          CFI V6 load(1, XDATA, add(CFA_XSP16, literal(-14)))
          CFI V7 load(1, XDATA, add(CFA_XSP16, literal(-13)))
          CFI V8 load(1, XDATA, add(CFA_XSP16, literal(-12)))
          CFI V9 load(1, XDATA, add(CFA_XSP16, literal(-11)))
          CFI V10 load(1, XDATA, add(CFA_XSP16, literal(-10)))
          CFI V11 load(1, XDATA, add(CFA_XSP16, literal(-9)))
          CFI V12 load(1, XDATA, add(CFA_XSP16, literal(-8)))
          CFI V13 load(1, XDATA, add(CFA_XSP16, literal(-7)))
          CFI R7 load(1, XDATA, add(CFA_XSP16, literal(-6)))
          CFI ?RET_LOW load(1, XDATA, add(CFA_XSP16, literal(-5)))
          CFI ?RET_HIGH load(1, XDATA, add(CFA_XSP16, literal(-4)))
          CFI ?BRET_EXT load(1, XDATA, add(CFA_XSP16, literal(-3)))
          CFI DPL0 load(1, XDATA, add(CFA_XSP16, literal(-2)))
          CFI DPH0 load(1, XDATA, add(CFA_XSP16, literal(-1)))
          CFI CFA_SP SP+-2
          CFI CFA_XSP16 add(XSP16, 36)
          CFI Block cfiCond61 Using cfiCommon0
          CFI (cfiCond61) Function zdpProcessAddrReq
          CFI (cfiCond61) Conditional ??CrossCallReturnLabel_175
          CFI (cfiCond61) R6 load(1, XDATA, add(CFA_XSP16, literal(-22)))
          CFI (cfiCond61) VB load(1, XDATA, add(CFA_XSP16, literal(-21)))
          CFI (cfiCond61) V0 load(1, XDATA, add(CFA_XSP16, literal(-20)))
          CFI (cfiCond61) V1 load(1, XDATA, add(CFA_XSP16, literal(-19)))
          CFI (cfiCond61) V2 load(1, XDATA, add(CFA_XSP16, literal(-18)))
          CFI (cfiCond61) V3 load(1, XDATA, add(CFA_XSP16, literal(-17)))
          CFI (cfiCond61) V4 load(1, XDATA, add(CFA_XSP16, literal(-16)))
          CFI (cfiCond61) V5 load(1, XDATA, add(CFA_XSP16, literal(-15)))
          CFI (cfiCond61) V6 load(1, XDATA, add(CFA_XSP16, literal(-14)))
          CFI (cfiCond61) V7 load(1, XDATA, add(CFA_XSP16, literal(-13)))
          CFI (cfiCond61) V8 load(1, XDATA, add(CFA_XSP16, literal(-12)))
          CFI (cfiCond61) V9 load(1, XDATA, add(CFA_XSP16, literal(-11)))
          CFI (cfiCond61) V10 load(1, XDATA, add(CFA_XSP16, literal(-10)))
          CFI (cfiCond61) V11 load(1, XDATA, add(CFA_XSP16, literal(-9)))
          CFI (cfiCond61) V12 load(1, XDATA, add(CFA_XSP16, literal(-8)))
          CFI (cfiCond61) V13 load(1, XDATA, add(CFA_XSP16, literal(-7)))
          CFI (cfiCond61) R7 load(1, XDATA, add(CFA_XSP16, literal(-6)))
          CFI (cfiCond61) ?RET_LOW load(1, XDATA, add(CFA_XSP16, literal(-5)))
          CFI (cfiCond61) ?RET_HIGH load(1, XDATA, add(CFA_XSP16, literal(-4)))
          CFI (cfiCond61) ?BRET_EXT load(1, XDATA, add(CFA_XSP16, literal(-3)))
          CFI (cfiCond61) DPL0 load(1, XDATA, add(CFA_XSP16, literal(-2)))
          CFI (cfiCond61) DPH0 load(1, XDATA, add(CFA_XSP16, literal(-1)))
          CFI (cfiCond61) CFA_SP SP+-2
          CFI (cfiCond61) CFA_XSP16 add(XSP16, 36)
          CFI Block cfiPicker62 Using cfiCommon1
          CFI (cfiPicker62) NoFunction
          CFI (cfiPicker62) Picker
        MOV     DPL,?V8
        MOV     DPH,?V9
          CFI EndBlock cfiCond60
          CFI EndBlock cfiCond61
          CFI EndBlock cfiPicker62
        REQUIRE ??Subroutine108_0
        ; // Fall through to label ??Subroutine108_0

        RSEG BANKED_CODE:CODE:NOROOT(0)
??Subroutine108_0:
          CFI Block cfiCond63 Using cfiCommon0
          CFI Function ZDO_RemoveRegisteredCB
          CFI Conditional ??CrossCallReturnLabel_173
          CFI R6 load(1, XDATA, add(CFA_XSP16, literal(-9)))
          CFI VB load(1, XDATA, add(CFA_XSP16, literal(-8)))
          CFI V0 load(1, XDATA, add(CFA_XSP16, literal(-7)))
          CFI R7 load(1, XDATA, add(CFA_XSP16, literal(-6)))
          CFI ?RET_LOW load(1, XDATA, add(CFA_XSP16, literal(-5)))
          CFI ?RET_HIGH load(1, XDATA, add(CFA_XSP16, literal(-4)))
          CFI ?BRET_EXT load(1, XDATA, add(CFA_XSP16, literal(-3)))
          CFI DPL0 load(1, XDATA, add(CFA_XSP16, literal(-2)))
          CFI DPH0 load(1, XDATA, add(CFA_XSP16, literal(-1)))
          CFI CFA_SP SP+-2
          CFI CFA_XSP16 add(XSP16, 9)
          CFI Block cfiCond64 Using cfiCommon0
          CFI (cfiCond64) Function zdpProcessAddrReq
          CFI (cfiCond64) Conditional ??CrossCallReturnLabel_174
          CFI (cfiCond64) R6 load(1, XDATA, add(CFA_XSP16, literal(-22)))
          CFI (cfiCond64) VB load(1, XDATA, add(CFA_XSP16, literal(-21)))
          CFI (cfiCond64) V0 load(1, XDATA, add(CFA_XSP16, literal(-20)))
          CFI (cfiCond64) V1 load(1, XDATA, add(CFA_XSP16, literal(-19)))
          CFI (cfiCond64) V2 load(1, XDATA, add(CFA_XSP16, literal(-18)))
          CFI (cfiCond64) V3 load(1, XDATA, add(CFA_XSP16, literal(-17)))
          CFI (cfiCond64) V4 load(1, XDATA, add(CFA_XSP16, literal(-16)))
          CFI (cfiCond64) V5 load(1, XDATA, add(CFA_XSP16, literal(-15)))
          CFI (cfiCond64) V6 load(1, XDATA, add(CFA_XSP16, literal(-14)))
          CFI (cfiCond64) V7 load(1, XDATA, add(CFA_XSP16, literal(-13)))
          CFI (cfiCond64) V8 load(1, XDATA, add(CFA_XSP16, literal(-12)))
          CFI (cfiCond64) V9 load(1, XDATA, add(CFA_XSP16, literal(-11)))
          CFI (cfiCond64) V10 load(1, XDATA, add(CFA_XSP16, literal(-10)))
          CFI (cfiCond64) V11 load(1, XDATA, add(CFA_XSP16, literal(-9)))
          CFI (cfiCond64) V12 load(1, XDATA, add(CFA_XSP16, literal(-8)))
          CFI (cfiCond64) V13 load(1, XDATA, add(CFA_XSP16, literal(-7)))
          CFI (cfiCond64) R7 load(1, XDATA, add(CFA_XSP16, literal(-6)))
          CFI (cfiCond64) ?RET_LOW load(1, XDATA, add(CFA_XSP16, literal(-5)))
          CFI (cfiCond64) ?RET_HIGH load(1, XDATA, add(CFA_XSP16, literal(-4)))
          CFI (cfiCond64) ?BRET_EXT load(1, XDATA, add(CFA_XSP16, literal(-3)))
          CFI (cfiCond64) DPL0 load(1, XDATA, add(CFA_XSP16, literal(-2)))
          CFI (cfiCond64) DPH0 load(1, XDATA, add(CFA_XSP16, literal(-1)))
          CFI (cfiCond64) CFA_SP SP+-2
          CFI (cfiCond64) CFA_XSP16 add(XSP16, 36)
          CFI Block cfiCond65 Using cfiCommon0
          CFI (cfiCond65) Function zdpProcessAddrReq
          CFI (cfiCond65) Conditional ??CrossCallReturnLabel_175
          CFI (cfiCond65) R6 load(1, XDATA, add(CFA_XSP16, literal(-22)))
          CFI (cfiCond65) VB load(1, XDATA, add(CFA_XSP16, literal(-21)))
          CFI (cfiCond65) V0 load(1, XDATA, add(CFA_XSP16, literal(-20)))
          CFI (cfiCond65) V1 load(1, XDATA, add(CFA_XSP16, literal(-19)))
          CFI (cfiCond65) V2 load(1, XDATA, add(CFA_XSP16, literal(-18)))
          CFI (cfiCond65) V3 load(1, XDATA, add(CFA_XSP16, literal(-17)))
          CFI (cfiCond65) V4 load(1, XDATA, add(CFA_XSP16, literal(-16)))
          CFI (cfiCond65) V5 load(1, XDATA, add(CFA_XSP16, literal(-15)))
          CFI (cfiCond65) V6 load(1, XDATA, add(CFA_XSP16, literal(-14)))
          CFI (cfiCond65) V7 load(1, XDATA, add(CFA_XSP16, literal(-13)))
          CFI (cfiCond65) V8 load(1, XDATA, add(CFA_XSP16, literal(-12)))
          CFI (cfiCond65) V9 load(1, XDATA, add(CFA_XSP16, literal(-11)))
          CFI (cfiCond65) V10 load(1, XDATA, add(CFA_XSP16, literal(-10)))
          CFI (cfiCond65) V11 load(1, XDATA, add(CFA_XSP16, literal(-9)))
          CFI (cfiCond65) V12 load(1, XDATA, add(CFA_XSP16, literal(-8)))
          CFI (cfiCond65) V13 load(1, XDATA, add(CFA_XSP16, literal(-7)))
          CFI (cfiCond65) R7 load(1, XDATA, add(CFA_XSP16, literal(-6)))
          CFI (cfiCond65) ?RET_LOW load(1, XDATA, add(CFA_XSP16, literal(-5)))
          CFI (cfiCond65) ?RET_HIGH load(1, XDATA, add(CFA_XSP16, literal(-4)))
          CFI (cfiCond65) ?BRET_EXT load(1, XDATA, add(CFA_XSP16, literal(-3)))
          CFI (cfiCond65) DPL0 load(1, XDATA, add(CFA_XSP16, literal(-2)))
          CFI (cfiCond65) DPH0 load(1, XDATA, add(CFA_XSP16, literal(-1)))
          CFI (cfiCond65) CFA_SP SP+-2
          CFI (cfiCond65) CFA_XSP16 add(XSP16, 36)
          CFI Block cfiPicker66 Using cfiCommon1
          CFI (cfiPicker66) NoFunction
          CFI (cfiPicker66) Picker
        LCALL   ?Subroutine77 & 0xFFFF
??CrossCallReturnLabel_176:
        ORL     A,R1
        RET
          CFI EndBlock cfiCond63
          CFI EndBlock cfiCond64
          CFI EndBlock cfiCond65
          CFI EndBlock cfiPicker66
//  797 
//  798 /*********************************************************************
//  799  * @fn          ZDP_NodeDescMsg
//  800  *
//  801  * @brief       Builds and sends a Node Descriptor message, unicast to the
//  802  *              specified device.
//  803  *
//  804  * @param       inMsg - incoming message
//  805  * @param       nwkAddr - 16 bit network address for device
//  806  * @param       pNodeDesc - pointer to the node descriptor
//  807  *
//  808  * @return      afStatus_t
//  809  */

        RSEG BANKED_CODE:CODE:NOROOT(0)
//  810 afStatus_t ZDP_NodeDescMsg( zdoIncomingMsg_t *inMsg,
ZDP_NodeDescMsg:
          CFI Block cfiBlock67 Using cfiCommon0
          CFI Function ZDP_NodeDescMsg
        CODE
//  811                            uint16 nwkAddr, NodeDescriptorFormat_t *pNodeDesc )
//  812 {
        FUNCALL ZDP_NodeDescMsg, fillAndSend
        LOCFRAME ISTACK, 0, STACK
        LOCFRAME PSTACK, 0, STACK
        LOCFRAME XSTACK, 12, STACK
        LOCFRAME IOVERLAY, 0, STATIC
        LOCFRAME DOVERLAY, 0, STATIC
        ARGFRAME ISTACK, 0, STACK
        ARGFRAME PSTACK, 0, STACK
        ARGFRAME XSTACK, 12, STACK
        ARGFRAME IOVERLAY, 0, STATIC
        ARGFRAME DOVERLAY, 0, STATIC
        REQUIRE ?V0
        REQUIRE ?V1
        MOV     A,#-0xa
        LCALL   ?BANKED_ENTER_XDATA
          CFI DPH0 load(1, XDATA, add(CFA_XSP16, literal(-1)))
          CFI DPL0 load(1, XDATA, add(CFA_XSP16, literal(-2)))
          CFI ?BRET_EXT load(1, XDATA, add(CFA_XSP16, literal(-3)))
          CFI ?RET_HIGH load(1, XDATA, add(CFA_XSP16, literal(-4)))
          CFI ?RET_LOW load(1, XDATA, add(CFA_XSP16, literal(-5)))
          CFI R7 load(1, XDATA, add(CFA_XSP16, literal(-6)))
          CFI V1 load(1, XDATA, add(CFA_XSP16, literal(-7)))
          CFI V0 load(1, XDATA, add(CFA_XSP16, literal(-8)))
          CFI VB load(1, XDATA, add(CFA_XSP16, literal(-9)))
          CFI R6 load(1, XDATA, add(CFA_XSP16, literal(-10)))
          CFI CFA_SP SP+0
          CFI CFA_XSP16 add(XSP16, 10)
        ; Saved register size: 10
        ; Auto size: 0
//  813   uint8 *pBuf = ZDP_TmpBuf;
        MOV     DPTR,#ZDP_TmpBuf
        MOVX    A,@DPTR
        MOV     R6,A
        INC     DPTR
        MOVX    A,@DPTR
        LCALL   ?Subroutine20 & 0xFFFF
//  814   byte len;
//  815 
//  816   len = 1 + 2 + 13;  // Status + nwkAddr + Node descriptor
//  817 
//  818   *pBuf++ = ZDP_SUCCESS;
//  819 
//  820   *pBuf++ = LO_UINT16( nwkAddr );
//  821   *pBuf++ = HI_UINT16( nwkAddr );
??CrossCallReturnLabel_20:
        LCALL   ?XSTACK_DISP0_8
        LCALL   ?Subroutine47 & 0xFFFF
//  822 
//  823   *pBuf++ = (byte)((pNodeDesc->ComplexDescAvail << 3) |
//  824                      (pNodeDesc->UserDescAvail << 4) |
//  825                      (pNodeDesc->LogicalType & 0x07));
??CrossCallReturnLabel_77:
        ANL     A,#0x1f
        MOV     DPL,R6
        MOV     DPH,R7
        INC     DPTR
        INC     DPTR
        INC     DPTR
        LCALL   ?Subroutine40 & 0xFFFF
//  826 
//  827   *pBuf++ = (byte)((pNodeDesc->FrequencyBand << 3) | (pNodeDesc->APSFlags & 0x07));
??CrossCallReturnLabel_62:
        LCALL   ?Subroutine64 & 0xFFFF
??CrossCallReturnLabel_109:
        LCALL   ?Subroutine39 & 0xFFFF
//  828   *pBuf++ = pNodeDesc->CapabilityFlags;
??CrossCallReturnLabel_61:
        MOV     DPL,R6
        MOV     DPH,R7
        LCALL   ?Subroutine31 & 0xFFFF
//  829   *pBuf++ = pNodeDesc->ManufacturerCode[0];
??CrossCallReturnLabel_180:
        LCALL   ?Subroutine65 & 0xFFFF
??CrossCallReturnLabel_111:
        LCALL   ?Subroutine31 & 0xFFFF
//  830   *pBuf++ = pNodeDesc->ManufacturerCode[1];
??CrossCallReturnLabel_181:
        INC     DPTR
        MOVX    A,@DPTR
        MOV     DPL,R6
        MOV     DPH,R7
        LCALL   ?Subroutine30 & 0xFFFF
//  831   *pBuf++ = pNodeDesc->MaxBufferSize;
??CrossCallReturnLabel_50:
        LCALL   ?Subroutine65 & 0xFFFF
??CrossCallReturnLabel_112:
        LCALL   ?Subroutine30 & 0xFFFF
//  832   *pBuf++ = pNodeDesc->MaxInTransferSize[0];
??CrossCallReturnLabel_51:
        INC     DPTR
        LCALL   ?Subroutine49 & 0xFFFF
??CrossCallReturnLabel_81:
        LCALL   ?Subroutine24 & 0xFFFF
//  833   *pBuf++ = pNodeDesc->MaxInTransferSize[1];
??CrossCallReturnLabel_30:
        LCALL   ?Subroutine49 & 0xFFFF
??CrossCallReturnLabel_82:
        INC     DPTR
        MOVX    @DPTR,A
//  834 
//  835   *pBuf++ = LO_UINT16( pNodeDesc->ServerMask );
        MOV     A,R0
        ADD     A,#0x8
        MOV     R4,A
        CLR     A
        ADDC    A,R1
        MOV     R5,A
        MOV     DPL,R4
        MOV     DPH,R5
        MOVX    A,@DPTR
        MOV     ?V0,A
        MOV     A,R6
        ADD     A,#0xb
        MOV     DPL,A
        CLR     A
        ADDC    A,R7
        MOV     DPH,A
        MOV     A,?V0
        LCALL   ??Subroutine113_0 & 0xFFFF
//  836   *pBuf++ = HI_UINT16( pNodeDesc->ServerMask );
??CrossCallReturnLabel_200:
        MOVX    A,@DPTR
        PUSH    A
          CFI CFA_SP SP+-1
        MOV     A,R6
        ADD     A,#0xc
        MOV     DPL,A
        CLR     A
        ADDC    A,R7
        MOV     DPH,A
        POP     A
          CFI CFA_SP SP+0
        LCALL   ?Subroutine24 & 0xFFFF
//  837   *pBuf++ = pNodeDesc->MaxOutTransferSize[0];
??CrossCallReturnLabel_31:
        INC     DPTR
        INC     DPTR
        INC     DPTR
        MOVX    A,@DPTR
        PUSH    A
          CFI CFA_SP SP+-1
        MOV     A,R6
        ADD     A,#0xd
        MOV     DPL,A
        CLR     A
        ADDC    A,R7
        MOV     DPH,A
        POP     A
          CFI CFA_SP SP+0
        MOVX    @DPTR,A
//  838   *pBuf++ = pNodeDesc->MaxOutTransferSize[1];
        MOV     A,R0
        ADD     A,#0xb
        MOV     DPL,A
        CLR     A
        ADDC    A,R1
        MOV     DPH,A
        MOVX    A,@DPTR
        PUSH    A
          CFI CFA_SP SP+-1
        MOV     A,R6
        ADD     A,#0xe
        MOV     DPL,A
        CLR     A
        ADDC    A,R7
        MOV     DPH,A
        POP     A
          CFI CFA_SP SP+0
        MOVX    @DPTR,A
//  839   *pBuf = pNodeDesc->DescriptorCapability;
        MOV     A,R0
        ADD     A,#0xc
        MOV     DPL,A
        CLR     A
        ADDC    A,R1
        MOV     DPH,A
        MOVX    A,@DPTR
        PUSH    A
          CFI CFA_SP SP+-1
        MOV     A,R6
        ADD     A,#0xf
        MOV     DPL,A
        CLR     A
        ADDC    A,R7
        MOV     DPH,A
        POP     A
          CFI CFA_SP SP+0
        MOVX    @DPTR,A
//  840 
//  841   return fillAndSend( &(inMsg->TransSeq), &(inMsg->srcAddr), Node_Desc_rsp, len );
        ; Setup parameters for call to function fillAndSend
        MOV     ?V0,#0x2
        MOV     ?V1,#-0x80
        MOV     R0,#?V0
        LCALL   ?PUSH_XSTACK_I_TWO
          CFI CFA_XSP16 add(XSP16, 12)
        MOV     R1,#0x10
        LCALL   ?Subroutine72 & 0xFFFF
??CrossCallReturnLabel_129:
        JNC     ??ZDP_NodeDescMsg_0
        INC     R3
??ZDP_NodeDescMsg_0:
        SJMP    ??Subroutine110_0
//  842 }
          CFI EndBlock cfiBlock67

        RSEG BANKED_CODE:CODE:NOROOT(0)
?Subroutine49:
          CFI Block cfiCond68 Using cfiCommon0
          CFI Function ZDP_NodeDescMsg
          CFI Conditional ??CrossCallReturnLabel_81
          CFI R6 load(1, XDATA, add(CFA_XSP16, literal(-10)))
          CFI VB load(1, XDATA, add(CFA_XSP16, literal(-9)))
          CFI V0 load(1, XDATA, add(CFA_XSP16, literal(-8)))
          CFI V1 load(1, XDATA, add(CFA_XSP16, literal(-7)))
          CFI R7 load(1, XDATA, add(CFA_XSP16, literal(-6)))
          CFI ?RET_LOW load(1, XDATA, add(CFA_XSP16, literal(-5)))
          CFI ?RET_HIGH load(1, XDATA, add(CFA_XSP16, literal(-4)))
          CFI ?BRET_EXT load(1, XDATA, add(CFA_XSP16, literal(-3)))
          CFI DPL0 load(1, XDATA, add(CFA_XSP16, literal(-2)))
          CFI DPH0 load(1, XDATA, add(CFA_XSP16, literal(-1)))
          CFI CFA_SP SP+-2
          CFI CFA_XSP16 add(XSP16, 10)
          CFI Block cfiCond69 Using cfiCommon0
          CFI (cfiCond69) Function ZDP_NodeDescMsg
          CFI (cfiCond69) Conditional ??CrossCallReturnLabel_82
          CFI (cfiCond69) R6 load(1, XDATA, add(CFA_XSP16, literal(-10)))
          CFI (cfiCond69) VB load(1, XDATA, add(CFA_XSP16, literal(-9)))
          CFI (cfiCond69) V0 load(1, XDATA, add(CFA_XSP16, literal(-8)))
          CFI (cfiCond69) V1 load(1, XDATA, add(CFA_XSP16, literal(-7)))
          CFI (cfiCond69) R7 load(1, XDATA, add(CFA_XSP16, literal(-6)))
          CFI (cfiCond69) ?RET_LOW load(1, XDATA, add(CFA_XSP16, literal(-5)))
          CFI (cfiCond69) ?RET_HIGH load(1, XDATA, add(CFA_XSP16, literal(-4)))
          CFI (cfiCond69) ?BRET_EXT load(1, XDATA, add(CFA_XSP16, literal(-3)))
          CFI (cfiCond69) DPL0 load(1, XDATA, add(CFA_XSP16, literal(-2)))
          CFI (cfiCond69) DPH0 load(1, XDATA, add(CFA_XSP16, literal(-1)))
          CFI (cfiCond69) CFA_SP SP+-2
          CFI (cfiCond69) CFA_XSP16 add(XSP16, 10)
          CFI Block cfiPicker70 Using cfiCommon1
          CFI (cfiPicker70) NoFunction
          CFI (cfiPicker70) Picker
        LCALL   ?Subroutine81 & 0xFFFF
??CrossCallReturnLabel_144:
        INC     DPTR
        INC     DPTR
        INC     DPTR
        INC     DPTR
        INC     DPTR
        RET
          CFI EndBlock cfiCond68
          CFI EndBlock cfiCond69
          CFI EndBlock cfiPicker70

        RSEG BANKED_CODE:CODE:NOROOT(0)
?Subroutine47:
          CFI Block cfiCond71 Using cfiCommon0
          CFI Function ZDP_UserDescSet
          CFI Conditional ??CrossCallReturnLabel_76
          CFI R6 load(1, XDATA, add(CFA_XSP16, literal(-15)))
          CFI VB load(1, XDATA, add(CFA_XSP16, literal(-14)))
          CFI V0 load(1, XDATA, add(CFA_XSP16, literal(-13)))
          CFI V1 load(1, XDATA, add(CFA_XSP16, literal(-12)))
          CFI V2 load(1, XDATA, add(CFA_XSP16, literal(-11)))
          CFI V3 load(1, XDATA, add(CFA_XSP16, literal(-10)))
          CFI V4 load(1, XDATA, add(CFA_XSP16, literal(-9)))
          CFI V5 load(1, XDATA, add(CFA_XSP16, literal(-8)))
          CFI V6 load(1, XDATA, add(CFA_XSP16, literal(-7)))
          CFI R7 load(1, XDATA, add(CFA_XSP16, literal(-6)))
          CFI ?RET_LOW load(1, XDATA, add(CFA_XSP16, literal(-5)))
          CFI ?RET_HIGH load(1, XDATA, add(CFA_XSP16, literal(-4)))
          CFI ?BRET_EXT load(1, XDATA, add(CFA_XSP16, literal(-3)))
          CFI DPL0 load(1, XDATA, add(CFA_XSP16, literal(-2)))
          CFI DPH0 load(1, XDATA, add(CFA_XSP16, literal(-1)))
          CFI CFA_SP SP+-2
          CFI CFA_XSP16 add(XSP16, 15)
          CFI Block cfiCond72 Using cfiCommon0
          CFI (cfiCond72) Function ZDP_NodeDescMsg
          CFI (cfiCond72) Conditional ??CrossCallReturnLabel_77
          CFI (cfiCond72) R6 load(1, XDATA, add(CFA_XSP16, literal(-10)))
          CFI (cfiCond72) VB load(1, XDATA, add(CFA_XSP16, literal(-9)))
          CFI (cfiCond72) V0 load(1, XDATA, add(CFA_XSP16, literal(-8)))
          CFI (cfiCond72) V1 load(1, XDATA, add(CFA_XSP16, literal(-7)))
          CFI (cfiCond72) R7 load(1, XDATA, add(CFA_XSP16, literal(-6)))
          CFI (cfiCond72) ?RET_LOW load(1, XDATA, add(CFA_XSP16, literal(-5)))
          CFI (cfiCond72) ?RET_HIGH load(1, XDATA, add(CFA_XSP16, literal(-4)))
          CFI (cfiCond72) ?BRET_EXT load(1, XDATA, add(CFA_XSP16, literal(-3)))
          CFI (cfiCond72) DPL0 load(1, XDATA, add(CFA_XSP16, literal(-2)))
          CFI (cfiCond72) DPH0 load(1, XDATA, add(CFA_XSP16, literal(-1)))
          CFI (cfiCond72) CFA_SP SP+-2
          CFI (cfiCond72) CFA_XSP16 add(XSP16, 10)
          CFI Block cfiCond73 Using cfiCommon0
          CFI (cfiCond73) Function ZDP_PowerDescMsg
          CFI (cfiCond73) Conditional ??CrossCallReturnLabel_78
          CFI (cfiCond73) R6 load(1, XDATA, add(CFA_XSP16, literal(-10)))
          CFI (cfiCond73) VB load(1, XDATA, add(CFA_XSP16, literal(-9)))
          CFI (cfiCond73) V0 load(1, XDATA, add(CFA_XSP16, literal(-8)))
          CFI (cfiCond73) V1 load(1, XDATA, add(CFA_XSP16, literal(-7)))
          CFI (cfiCond73) R7 load(1, XDATA, add(CFA_XSP16, literal(-6)))
          CFI (cfiCond73) ?RET_LOW load(1, XDATA, add(CFA_XSP16, literal(-5)))
          CFI (cfiCond73) ?RET_HIGH load(1, XDATA, add(CFA_XSP16, literal(-4)))
          CFI (cfiCond73) ?BRET_EXT load(1, XDATA, add(CFA_XSP16, literal(-3)))
          CFI (cfiCond73) DPL0 load(1, XDATA, add(CFA_XSP16, literal(-2)))
          CFI (cfiCond73) DPH0 load(1, XDATA, add(CFA_XSP16, literal(-1)))
          CFI (cfiCond73) CFA_SP SP+-2
          CFI (cfiCond73) CFA_XSP16 add(XSP16, 10)
          CFI Block cfiPicker74 Using cfiCommon1
          CFI (cfiPicker74) NoFunction
          CFI (cfiPicker74) Picker
        LCALL   ?Subroutine79 & 0xFFFF
??CrossCallReturnLabel_271:
        MOV     DPL,R0
        MOV     DPH,R1
        MOVX    A,@DPTR
        RET
          CFI EndBlock cfiCond71
          CFI EndBlock cfiCond72
          CFI EndBlock cfiCond73
          CFI EndBlock cfiPicker74

        RSEG BANKED_CODE:CODE:NOROOT(0)
?Subroutine39:
          CFI Block cfiCond75 Using cfiCommon0
          CFI Function zdpProcessAddrReq
          CFI Conditional ??CrossCallReturnLabel_60
          CFI R6 load(1, XDATA, add(CFA_XSP16, literal(-22)))
          CFI VB load(1, XDATA, add(CFA_XSP16, literal(-21)))
          CFI V0 load(1, XDATA, add(CFA_XSP16, literal(-20)))
          CFI V1 load(1, XDATA, add(CFA_XSP16, literal(-19)))
          CFI V2 load(1, XDATA, add(CFA_XSP16, literal(-18)))
          CFI V3 load(1, XDATA, add(CFA_XSP16, literal(-17)))
          CFI V4 load(1, XDATA, add(CFA_XSP16, literal(-16)))
          CFI V5 load(1, XDATA, add(CFA_XSP16, literal(-15)))
          CFI V6 load(1, XDATA, add(CFA_XSP16, literal(-14)))
          CFI V7 load(1, XDATA, add(CFA_XSP16, literal(-13)))
          CFI V8 load(1, XDATA, add(CFA_XSP16, literal(-12)))
          CFI V9 load(1, XDATA, add(CFA_XSP16, literal(-11)))
          CFI V10 load(1, XDATA, add(CFA_XSP16, literal(-10)))
          CFI V11 load(1, XDATA, add(CFA_XSP16, literal(-9)))
          CFI V12 load(1, XDATA, add(CFA_XSP16, literal(-8)))
          CFI V13 load(1, XDATA, add(CFA_XSP16, literal(-7)))
          CFI R7 load(1, XDATA, add(CFA_XSP16, literal(-6)))
          CFI ?RET_LOW load(1, XDATA, add(CFA_XSP16, literal(-5)))
          CFI ?RET_HIGH load(1, XDATA, add(CFA_XSP16, literal(-4)))
          CFI ?BRET_EXT load(1, XDATA, add(CFA_XSP16, literal(-3)))
          CFI DPL0 load(1, XDATA, add(CFA_XSP16, literal(-2)))
          CFI DPH0 load(1, XDATA, add(CFA_XSP16, literal(-1)))
          CFI CFA_SP SP+-2
          CFI CFA_XSP16 add(XSP16, 36)
          CFI Block cfiCond76 Using cfiCommon0
          CFI (cfiCond76) Function ZDP_NodeDescMsg
          CFI (cfiCond76) Conditional ??CrossCallReturnLabel_61
          CFI (cfiCond76) R6 load(1, XDATA, add(CFA_XSP16, literal(-10)))
          CFI (cfiCond76) VB load(1, XDATA, add(CFA_XSP16, literal(-9)))
          CFI (cfiCond76) V0 load(1, XDATA, add(CFA_XSP16, literal(-8)))
          CFI (cfiCond76) V1 load(1, XDATA, add(CFA_XSP16, literal(-7)))
          CFI (cfiCond76) R7 load(1, XDATA, add(CFA_XSP16, literal(-6)))
          CFI (cfiCond76) ?RET_LOW load(1, XDATA, add(CFA_XSP16, literal(-5)))
          CFI (cfiCond76) ?RET_HIGH load(1, XDATA, add(CFA_XSP16, literal(-4)))
          CFI (cfiCond76) ?BRET_EXT load(1, XDATA, add(CFA_XSP16, literal(-3)))
          CFI (cfiCond76) DPL0 load(1, XDATA, add(CFA_XSP16, literal(-2)))
          CFI (cfiCond76) DPH0 load(1, XDATA, add(CFA_XSP16, literal(-1)))
          CFI (cfiCond76) CFA_SP SP+-2
          CFI (cfiCond76) CFA_XSP16 add(XSP16, 10)
          CFI Block cfiPicker77 Using cfiCommon1
          CFI (cfiPicker77) NoFunction
          CFI (cfiPicker77) Picker
        LCALL   ?Subroutine91 & 0xFFFF
??CrossCallReturnLabel_183:
        INC     DPTR
        MOVX    A,@DPTR
        RET
          CFI EndBlock cfiCond75
          CFI EndBlock cfiCond76
          CFI EndBlock cfiPicker77

        RSEG BANKED_CODE:CODE:NOROOT(0)
?Subroutine31:
          CFI Block cfiCond78 Using cfiCommon0
          CFI Function ZDP_NodeDescMsg
          CFI Conditional ??CrossCallReturnLabel_180
          CFI R6 load(1, XDATA, add(CFA_XSP16, literal(-10)))
          CFI VB load(1, XDATA, add(CFA_XSP16, literal(-9)))
          CFI V0 load(1, XDATA, add(CFA_XSP16, literal(-8)))
          CFI V1 load(1, XDATA, add(CFA_XSP16, literal(-7)))
          CFI R7 load(1, XDATA, add(CFA_XSP16, literal(-6)))
          CFI ?RET_LOW load(1, XDATA, add(CFA_XSP16, literal(-5)))
          CFI ?RET_HIGH load(1, XDATA, add(CFA_XSP16, literal(-4)))
          CFI ?BRET_EXT load(1, XDATA, add(CFA_XSP16, literal(-3)))
          CFI DPL0 load(1, XDATA, add(CFA_XSP16, literal(-2)))
          CFI DPH0 load(1, XDATA, add(CFA_XSP16, literal(-1)))
          CFI CFA_SP SP+-2
          CFI CFA_XSP16 add(XSP16, 10)
          CFI Block cfiCond79 Using cfiCommon0
          CFI (cfiCond79) Function ZDP_NodeDescMsg
          CFI (cfiCond79) Conditional ??CrossCallReturnLabel_181
          CFI (cfiCond79) R6 load(1, XDATA, add(CFA_XSP16, literal(-10)))
          CFI (cfiCond79) VB load(1, XDATA, add(CFA_XSP16, literal(-9)))
          CFI (cfiCond79) V0 load(1, XDATA, add(CFA_XSP16, literal(-8)))
          CFI (cfiCond79) V1 load(1, XDATA, add(CFA_XSP16, literal(-7)))
          CFI (cfiCond79) R7 load(1, XDATA, add(CFA_XSP16, literal(-6)))
          CFI (cfiCond79) ?RET_LOW load(1, XDATA, add(CFA_XSP16, literal(-5)))
          CFI (cfiCond79) ?RET_HIGH load(1, XDATA, add(CFA_XSP16, literal(-4)))
          CFI (cfiCond79) ?BRET_EXT load(1, XDATA, add(CFA_XSP16, literal(-3)))
          CFI (cfiCond79) DPL0 load(1, XDATA, add(CFA_XSP16, literal(-2)))
          CFI (cfiCond79) DPH0 load(1, XDATA, add(CFA_XSP16, literal(-1)))
          CFI (cfiCond79) CFA_SP SP+-2
          CFI (cfiCond79) CFA_XSP16 add(XSP16, 10)
          CFI Block cfiPicker80 Using cfiCommon1
          CFI (cfiPicker80) NoFunction
          CFI (cfiPicker80) Picker
        INC     DPTR
        INC     DPTR
        INC     DPTR
        INC     DPTR
        INC     DPTR
          CFI EndBlock cfiCond78
          CFI EndBlock cfiCond79
          CFI EndBlock cfiPicker80
        REQUIRE ??Subroutine109_0
        ; // Fall through to label ??Subroutine109_0

        RSEG BANKED_CODE:CODE:NOROOT(0)
??Subroutine109_0:
          CFI Block cfiCond81 Using cfiCommon0
          CFI Function ZDO_RegisterForZDOMsg
          CFI Conditional ??CrossCallReturnLabel_182
          CFI R6 load(1, XDATA, add(CFA_XSP16, literal(-14)))
          CFI VB load(1, XDATA, add(CFA_XSP16, literal(-13)))
          CFI V0 load(1, XDATA, add(CFA_XSP16, literal(-12)))
          CFI V1 load(1, XDATA, add(CFA_XSP16, literal(-11)))
          CFI V2 load(1, XDATA, add(CFA_XSP16, literal(-10)))
          CFI V3 load(1, XDATA, add(CFA_XSP16, literal(-9)))
          CFI V4 load(1, XDATA, add(CFA_XSP16, literal(-8)))
          CFI V5 load(1, XDATA, add(CFA_XSP16, literal(-7)))
          CFI R7 load(1, XDATA, add(CFA_XSP16, literal(-6)))
          CFI ?RET_LOW load(1, XDATA, add(CFA_XSP16, literal(-5)))
          CFI ?RET_HIGH load(1, XDATA, add(CFA_XSP16, literal(-4)))
          CFI ?BRET_EXT load(1, XDATA, add(CFA_XSP16, literal(-3)))
          CFI DPL0 load(1, XDATA, add(CFA_XSP16, literal(-2)))
          CFI DPH0 load(1, XDATA, add(CFA_XSP16, literal(-1)))
          CFI CFA_SP SP+-2
          CFI CFA_XSP16 add(XSP16, 14)
          CFI Block cfiCond82 Using cfiCommon0
          CFI (cfiCond82) Function ZDP_NodeDescMsg
          CFI (cfiCond82) Conditional ??CrossCallReturnLabel_180
          CFI (cfiCond82) R6 load(1, XDATA, add(CFA_XSP16, literal(-10)))
          CFI (cfiCond82) VB load(1, XDATA, add(CFA_XSP16, literal(-9)))
          CFI (cfiCond82) V0 load(1, XDATA, add(CFA_XSP16, literal(-8)))
          CFI (cfiCond82) V1 load(1, XDATA, add(CFA_XSP16, literal(-7)))
          CFI (cfiCond82) R7 load(1, XDATA, add(CFA_XSP16, literal(-6)))
          CFI (cfiCond82) ?RET_LOW load(1, XDATA, add(CFA_XSP16, literal(-5)))
          CFI (cfiCond82) ?RET_HIGH load(1, XDATA, add(CFA_XSP16, literal(-4)))
          CFI (cfiCond82) ?BRET_EXT load(1, XDATA, add(CFA_XSP16, literal(-3)))
          CFI (cfiCond82) DPL0 load(1, XDATA, add(CFA_XSP16, literal(-2)))
          CFI (cfiCond82) DPH0 load(1, XDATA, add(CFA_XSP16, literal(-1)))
          CFI (cfiCond82) CFA_SP SP+-2
          CFI (cfiCond82) CFA_XSP16 add(XSP16, 10)
          CFI Block cfiCond83 Using cfiCommon0
          CFI (cfiCond83) Function ZDP_NodeDescMsg
          CFI (cfiCond83) Conditional ??CrossCallReturnLabel_181
          CFI (cfiCond83) R6 load(1, XDATA, add(CFA_XSP16, literal(-10)))
          CFI (cfiCond83) VB load(1, XDATA, add(CFA_XSP16, literal(-9)))
          CFI (cfiCond83) V0 load(1, XDATA, add(CFA_XSP16, literal(-8)))
          CFI (cfiCond83) V1 load(1, XDATA, add(CFA_XSP16, literal(-7)))
          CFI (cfiCond83) R7 load(1, XDATA, add(CFA_XSP16, literal(-6)))
          CFI (cfiCond83) ?RET_LOW load(1, XDATA, add(CFA_XSP16, literal(-5)))
          CFI (cfiCond83) ?RET_HIGH load(1, XDATA, add(CFA_XSP16, literal(-4)))
          CFI (cfiCond83) ?BRET_EXT load(1, XDATA, add(CFA_XSP16, literal(-3)))
          CFI (cfiCond83) DPL0 load(1, XDATA, add(CFA_XSP16, literal(-2)))
          CFI (cfiCond83) DPH0 load(1, XDATA, add(CFA_XSP16, literal(-1)))
          CFI (cfiCond83) CFA_SP SP+-2
          CFI (cfiCond83) CFA_XSP16 add(XSP16, 10)
          CFI Block cfiPicker84 Using cfiCommon1
          CFI (cfiPicker84) NoFunction
          CFI (cfiPicker84) Picker
        LCALL   ?Subroutine91 & 0xFFFF
??CrossCallReturnLabel_184:
        INC     DPTR
        INC     DPTR
        RET
          CFI EndBlock cfiCond81
          CFI EndBlock cfiCond82
          CFI EndBlock cfiCond83
          CFI EndBlock cfiPicker84

        RSEG BANKED_CODE:CODE:NOROOT(0)
?Subroutine30:
          CFI Block cfiCond85 Using cfiCommon0
          CFI Function ZDP_NodeDescMsg
          CFI Conditional ??CrossCallReturnLabel_50
          CFI R6 load(1, XDATA, add(CFA_XSP16, literal(-10)))
          CFI VB load(1, XDATA, add(CFA_XSP16, literal(-9)))
          CFI V0 load(1, XDATA, add(CFA_XSP16, literal(-8)))
          CFI V1 load(1, XDATA, add(CFA_XSP16, literal(-7)))
          CFI R7 load(1, XDATA, add(CFA_XSP16, literal(-6)))
          CFI ?RET_LOW load(1, XDATA, add(CFA_XSP16, literal(-5)))
          CFI ?RET_HIGH load(1, XDATA, add(CFA_XSP16, literal(-4)))
          CFI ?BRET_EXT load(1, XDATA, add(CFA_XSP16, literal(-3)))
          CFI DPL0 load(1, XDATA, add(CFA_XSP16, literal(-2)))
          CFI DPH0 load(1, XDATA, add(CFA_XSP16, literal(-1)))
          CFI CFA_SP SP+-2
          CFI CFA_XSP16 add(XSP16, 10)
          CFI Block cfiCond86 Using cfiCommon0
          CFI (cfiCond86) Function ZDP_NodeDescMsg
          CFI (cfiCond86) Conditional ??CrossCallReturnLabel_51
          CFI (cfiCond86) R6 load(1, XDATA, add(CFA_XSP16, literal(-10)))
          CFI (cfiCond86) VB load(1, XDATA, add(CFA_XSP16, literal(-9)))
          CFI (cfiCond86) V0 load(1, XDATA, add(CFA_XSP16, literal(-8)))
          CFI (cfiCond86) V1 load(1, XDATA, add(CFA_XSP16, literal(-7)))
          CFI (cfiCond86) R7 load(1, XDATA, add(CFA_XSP16, literal(-6)))
          CFI (cfiCond86) ?RET_LOW load(1, XDATA, add(CFA_XSP16, literal(-5)))
          CFI (cfiCond86) ?RET_HIGH load(1, XDATA, add(CFA_XSP16, literal(-4)))
          CFI (cfiCond86) ?BRET_EXT load(1, XDATA, add(CFA_XSP16, literal(-3)))
          CFI (cfiCond86) DPL0 load(1, XDATA, add(CFA_XSP16, literal(-2)))
          CFI (cfiCond86) DPH0 load(1, XDATA, add(CFA_XSP16, literal(-1)))
          CFI (cfiCond86) CFA_SP SP+-2
          CFI (cfiCond86) CFA_XSP16 add(XSP16, 10)
          CFI Block cfiPicker87 Using cfiCommon1
          CFI (cfiPicker87) NoFunction
          CFI (cfiPicker87) Picker
        INC     DPTR
        INC     DPTR
        INC     DPTR
        INC     DPTR
        INC     DPTR
        INC     DPTR
        INC     DPTR
        LCALL   ?Subroutine90 & 0xFFFF
??CrossCallReturnLabel_154:
        RET
          CFI EndBlock cfiCond85
          CFI EndBlock cfiCond86
          CFI EndBlock cfiPicker87

        RSEG BANKED_CODE:CODE:NOROOT(0)
?Subroutine90:
          CFI Block cfiCond88 Using cfiCommon0
          CFI Function ZDP_NodeDescMsg
          CFI Conditional ??CrossCallReturnLabel_154, ??CrossCallReturnLabel_50
          CFI R6 load(1, XDATA, add(CFA_XSP16, literal(-10)))
          CFI VB load(1, XDATA, add(CFA_XSP16, literal(-9)))
          CFI V0 load(1, XDATA, add(CFA_XSP16, literal(-8)))
          CFI V1 load(1, XDATA, add(CFA_XSP16, literal(-7)))
          CFI R7 load(1, XDATA, add(CFA_XSP16, literal(-6)))
          CFI ?RET_LOW load(1, XDATA, add(CFA_XSP16, literal(-5)))
          CFI ?RET_HIGH load(1, XDATA, add(CFA_XSP16, literal(-4)))
          CFI ?BRET_EXT load(1, XDATA, add(CFA_XSP16, literal(-3)))
          CFI DPL0 load(1, XDATA, add(CFA_XSP16, literal(-2)))
          CFI DPH0 load(1, XDATA, add(CFA_XSP16, literal(-1)))
          CFI CFA_SP SP+-4
          CFI CFA_XSP16 add(XSP16, 10)
          CFI Block cfiCond89 Using cfiCommon0
          CFI (cfiCond89) Function ZDP_NodeDescMsg
          CFI (cfiCond89) Conditional ??CrossCallReturnLabel_154, ??CrossCallReturnLabel_51
          CFI (cfiCond89) R6 load(1, XDATA, add(CFA_XSP16, literal(-10)))
          CFI (cfiCond89) VB load(1, XDATA, add(CFA_XSP16, literal(-9)))
          CFI (cfiCond89) V0 load(1, XDATA, add(CFA_XSP16, literal(-8)))
          CFI (cfiCond89) V1 load(1, XDATA, add(CFA_XSP16, literal(-7)))
          CFI (cfiCond89) R7 load(1, XDATA, add(CFA_XSP16, literal(-6)))
          CFI (cfiCond89) ?RET_LOW load(1, XDATA, add(CFA_XSP16, literal(-5)))
          CFI (cfiCond89) ?RET_HIGH load(1, XDATA, add(CFA_XSP16, literal(-4)))
          CFI (cfiCond89) ?BRET_EXT load(1, XDATA, add(CFA_XSP16, literal(-3)))
          CFI (cfiCond89) DPL0 load(1, XDATA, add(CFA_XSP16, literal(-2)))
          CFI (cfiCond89) DPH0 load(1, XDATA, add(CFA_XSP16, literal(-1)))
          CFI (cfiCond89) CFA_SP SP+-4
          CFI (cfiCond89) CFA_XSP16 add(XSP16, 10)
          CFI Block cfiCond90 Using cfiCommon0
          CFI (cfiCond90) Function ZDP_NodeDescMsg
          CFI (cfiCond90) Conditional ??CrossCallReturnLabel_155, ??CrossCallReturnLabel_30
          CFI (cfiCond90) R6 load(1, XDATA, add(CFA_XSP16, literal(-10)))
          CFI (cfiCond90) VB load(1, XDATA, add(CFA_XSP16, literal(-9)))
          CFI (cfiCond90) V0 load(1, XDATA, add(CFA_XSP16, literal(-8)))
          CFI (cfiCond90) V1 load(1, XDATA, add(CFA_XSP16, literal(-7)))
          CFI (cfiCond90) R7 load(1, XDATA, add(CFA_XSP16, literal(-6)))
          CFI (cfiCond90) ?RET_LOW load(1, XDATA, add(CFA_XSP16, literal(-5)))
          CFI (cfiCond90) ?RET_HIGH load(1, XDATA, add(CFA_XSP16, literal(-4)))
          CFI (cfiCond90) ?BRET_EXT load(1, XDATA, add(CFA_XSP16, literal(-3)))
          CFI (cfiCond90) DPL0 load(1, XDATA, add(CFA_XSP16, literal(-2)))
          CFI (cfiCond90) DPH0 load(1, XDATA, add(CFA_XSP16, literal(-1)))
          CFI (cfiCond90) CFA_SP SP+-4
          CFI (cfiCond90) CFA_XSP16 add(XSP16, 10)
          CFI Block cfiCond91 Using cfiCommon0
          CFI (cfiCond91) Function ZDP_NodeDescMsg
          CFI (cfiCond91) Conditional ??CrossCallReturnLabel_155, ??CrossCallReturnLabel_31
          CFI (cfiCond91) R6 load(1, XDATA, add(CFA_XSP16, literal(-10)))
          CFI (cfiCond91) VB load(1, XDATA, add(CFA_XSP16, literal(-9)))
          CFI (cfiCond91) V0 load(1, XDATA, add(CFA_XSP16, literal(-8)))
          CFI (cfiCond91) V1 load(1, XDATA, add(CFA_XSP16, literal(-7)))
          CFI (cfiCond91) R7 load(1, XDATA, add(CFA_XSP16, literal(-6)))
          CFI (cfiCond91) ?RET_LOW load(1, XDATA, add(CFA_XSP16, literal(-5)))
          CFI (cfiCond91) ?RET_HIGH load(1, XDATA, add(CFA_XSP16, literal(-4)))
          CFI (cfiCond91) ?BRET_EXT load(1, XDATA, add(CFA_XSP16, literal(-3)))
          CFI (cfiCond91) DPL0 load(1, XDATA, add(CFA_XSP16, literal(-2)))
          CFI (cfiCond91) DPH0 load(1, XDATA, add(CFA_XSP16, literal(-1)))
          CFI (cfiCond91) CFA_SP SP+-4
          CFI (cfiCond91) CFA_XSP16 add(XSP16, 10)
          CFI Block cfiPicker92 Using cfiCommon1
          CFI (cfiPicker92) NoFunction
          CFI (cfiPicker92) Picker
        LCALL   ?Subroutine99 & 0xFFFF
??CrossCallReturnLabel_190:
        INC     DPTR
        INC     DPTR
        INC     DPTR
        INC     DPTR
        INC     DPTR
        RET
          CFI EndBlock cfiCond88
          CFI EndBlock cfiCond89
          CFI EndBlock cfiCond90
          CFI EndBlock cfiCond91
          CFI EndBlock cfiPicker92

        RSEG BANKED_CODE:CODE:NOROOT(0)
?Subroutine24:
          CFI Block cfiCond93 Using cfiCommon0
          CFI Function ZDP_NodeDescMsg
          CFI Conditional ??CrossCallReturnLabel_30
          CFI R6 load(1, XDATA, add(CFA_XSP16, literal(-10)))
          CFI VB load(1, XDATA, add(CFA_XSP16, literal(-9)))
          CFI V0 load(1, XDATA, add(CFA_XSP16, literal(-8)))
          CFI V1 load(1, XDATA, add(CFA_XSP16, literal(-7)))
          CFI R7 load(1, XDATA, add(CFA_XSP16, literal(-6)))
          CFI ?RET_LOW load(1, XDATA, add(CFA_XSP16, literal(-5)))
          CFI ?RET_HIGH load(1, XDATA, add(CFA_XSP16, literal(-4)))
          CFI ?BRET_EXT load(1, XDATA, add(CFA_XSP16, literal(-3)))
          CFI DPL0 load(1, XDATA, add(CFA_XSP16, literal(-2)))
          CFI DPH0 load(1, XDATA, add(CFA_XSP16, literal(-1)))
          CFI CFA_SP SP+-2
          CFI CFA_XSP16 add(XSP16, 10)
          CFI Block cfiCond94 Using cfiCommon0
          CFI (cfiCond94) Function ZDP_NodeDescMsg
          CFI (cfiCond94) Conditional ??CrossCallReturnLabel_31
          CFI (cfiCond94) R6 load(1, XDATA, add(CFA_XSP16, literal(-10)))
          CFI (cfiCond94) VB load(1, XDATA, add(CFA_XSP16, literal(-9)))
          CFI (cfiCond94) V0 load(1, XDATA, add(CFA_XSP16, literal(-8)))
          CFI (cfiCond94) V1 load(1, XDATA, add(CFA_XSP16, literal(-7)))
          CFI (cfiCond94) R7 load(1, XDATA, add(CFA_XSP16, literal(-6)))
          CFI (cfiCond94) ?RET_LOW load(1, XDATA, add(CFA_XSP16, literal(-5)))
          CFI (cfiCond94) ?RET_HIGH load(1, XDATA, add(CFA_XSP16, literal(-4)))
          CFI (cfiCond94) ?BRET_EXT load(1, XDATA, add(CFA_XSP16, literal(-3)))
          CFI (cfiCond94) DPL0 load(1, XDATA, add(CFA_XSP16, literal(-2)))
          CFI (cfiCond94) DPH0 load(1, XDATA, add(CFA_XSP16, literal(-1)))
          CFI (cfiCond94) CFA_SP SP+-2
          CFI (cfiCond94) CFA_XSP16 add(XSP16, 10)
          CFI Block cfiPicker95 Using cfiCommon1
          CFI (cfiPicker95) NoFunction
          CFI (cfiPicker95) Picker
        LCALL   ?Subroutine90 & 0xFFFF
??CrossCallReturnLabel_155:
        INC     DPTR
        INC     DPTR
        RET
          CFI EndBlock cfiCond93
          CFI EndBlock cfiCond94
          CFI EndBlock cfiPicker95

        RSEG BANKED_CODE:CODE:NOROOT(0)
?Subroutine8:
          CFI Block cfiBlock96 Using cfiCommon0
          CFI NoFunction
          CFI CFA_SP SP+0
          CFI CFA_XSP16 add(XSP16, 12)
          CFI VB load(1, XDATA, add(CFA_XSP16, literal(-9)))
          CFI DPL0 load(1, XDATA, add(CFA_XSP16, literal(-2)))
          CFI DPH0 load(1, XDATA, add(CFA_XSP16, literal(-1)))
          CFI R6 load(1, XDATA, add(CFA_XSP16, literal(-10)))
          CFI R7 load(1, XDATA, add(CFA_XSP16, literal(-6)))
          CFI V0 load(1, XDATA, add(CFA_XSP16, literal(-8)))
          CFI V1 load(1, XDATA, add(CFA_XSP16, literal(-7)))
          CFI ?BRET_EXT load(1, XDATA, add(CFA_XSP16, literal(-3)))
          CFI ?RET_HIGH load(1, XDATA, add(CFA_XSP16, literal(-4)))
          CFI ?RET_LOW load(1, XDATA, add(CFA_XSP16, literal(-5)))
        MOV     A,R2
        MOV     R4,A
        MOV     A,R3
        MOV     R5,A
        MOV     R2,#ZDP_TransID & 0xff
        MOV     R3,#(ZDP_TransID >> 8) & 0xff
          CFI EndBlock cfiBlock96
        REQUIRE ??Subroutine110_0
        ; // Fall through to label ??Subroutine110_0

        RSEG BANKED_CODE:CODE:NOROOT(0)
??Subroutine110_0:
          CFI Block cfiBlock97 Using cfiCommon0
          CFI NoFunction
          CFI CFA_SP SP+0
          CFI CFA_XSP16 add(XSP16, 12)
          CFI VB load(1, XDATA, add(CFA_XSP16, literal(-9)))
          CFI DPL0 load(1, XDATA, add(CFA_XSP16, literal(-2)))
          CFI DPH0 load(1, XDATA, add(CFA_XSP16, literal(-1)))
          CFI R6 load(1, XDATA, add(CFA_XSP16, literal(-10)))
          CFI R7 load(1, XDATA, add(CFA_XSP16, literal(-6)))
          CFI V0 load(1, XDATA, add(CFA_XSP16, literal(-8)))
          CFI V1 load(1, XDATA, add(CFA_XSP16, literal(-7)))
          CFI ?BRET_EXT load(1, XDATA, add(CFA_XSP16, literal(-3)))
          CFI ?RET_HIGH load(1, XDATA, add(CFA_XSP16, literal(-4)))
          CFI ?RET_LOW load(1, XDATA, add(CFA_XSP16, literal(-5)))
        LCALL   `??fillAndSend::?relay`; Banked call to: fillAndSend
        MOV     A,#0x2
        LJMP    ??Subroutine107_0 & 0xFFFF
          CFI EndBlock cfiBlock97
//  843 
//  844 /*********************************************************************
//  845  * @fn          ZDP_PowerDescMsg
//  846  *
//  847  * @brief       Builds and sends a Power Descriptor message, unicast to the
//  848  *              specified device.
//  849  *
//  850  * @param       inMsg - incoming message (request)
//  851  * @param       nwkAddr - 16 bit network address for device
//  852  * @param       pPowerDesc - pointer to the node descriptor
//  853  *
//  854  * @return      afStatus_t
//  855  */

        RSEG BANKED_CODE:CODE:NOROOT(0)
//  856 afStatus_t ZDP_PowerDescMsg( zdoIncomingMsg_t *inMsg,
ZDP_PowerDescMsg:
          CFI Block cfiBlock98 Using cfiCommon0
          CFI Function ZDP_PowerDescMsg
        CODE
//  857                      uint16 nwkAddr, NodePowerDescriptorFormat_t *pPowerDesc )
//  858 {
        FUNCALL ZDP_PowerDescMsg, fillAndSend
        LOCFRAME ISTACK, 0, STACK
        LOCFRAME PSTACK, 0, STACK
        LOCFRAME XSTACK, 12, STACK
        LOCFRAME IOVERLAY, 0, STATIC
        LOCFRAME DOVERLAY, 0, STATIC
        ARGFRAME ISTACK, 0, STACK
        ARGFRAME PSTACK, 0, STACK
        ARGFRAME XSTACK, 12, STACK
        ARGFRAME IOVERLAY, 0, STATIC
        ARGFRAME DOVERLAY, 0, STATIC
        REQUIRE ?V0
        REQUIRE ?V1
        MOV     A,#-0xa
        LCALL   ?BANKED_ENTER_XDATA
          CFI DPH0 load(1, XDATA, add(CFA_XSP16, literal(-1)))
          CFI DPL0 load(1, XDATA, add(CFA_XSP16, literal(-2)))
          CFI ?BRET_EXT load(1, XDATA, add(CFA_XSP16, literal(-3)))
          CFI ?RET_HIGH load(1, XDATA, add(CFA_XSP16, literal(-4)))
          CFI ?RET_LOW load(1, XDATA, add(CFA_XSP16, literal(-5)))
          CFI R7 load(1, XDATA, add(CFA_XSP16, literal(-6)))
          CFI V1 load(1, XDATA, add(CFA_XSP16, literal(-7)))
          CFI V0 load(1, XDATA, add(CFA_XSP16, literal(-8)))
          CFI VB load(1, XDATA, add(CFA_XSP16, literal(-9)))
          CFI R6 load(1, XDATA, add(CFA_XSP16, literal(-10)))
          CFI CFA_SP SP+0
          CFI CFA_XSP16 add(XSP16, 10)
        ; Saved register size: 10
        ; Auto size: 0
//  859   uint8 *pBuf = ZDP_TmpBuf;
        LCALL   ??Subroutine125_0 & 0xFFFF
??CrossCallReturnLabel_270:
        MOV     A,R0
        MOV     R6,A
        MOV     A,R1
        LCALL   ?Subroutine20 & 0xFFFF
//  860   byte len = 1 + 2 + 2;  // Status + nwkAddr + Node Power descriptor.
//  861 
//  862   *pBuf++ = ZDP_SUCCESS;
//  863 
//  864   *pBuf++ = LO_UINT16( nwkAddr );
//  865   *pBuf++ = HI_UINT16( nwkAddr );
??CrossCallReturnLabel_21:
        LCALL   ?XSTACK_DISP0_8
        LCALL   ?Subroutine47 & 0xFFFF
//  866 
//  867   *pBuf++ = (byte)((pPowerDesc->AvailablePowerSources << 4)
//  868                     | (pPowerDesc->PowerMode & 0x0F));
??CrossCallReturnLabel_78:
        MOV     DPL,R6
        MOV     DPH,R7
        INC     DPTR
        LCALL   ?Subroutine32 & 0xFFFF
//  869   *pBuf++ = (byte)((pPowerDesc->CurrentPowerSourceLevel << 4)
//  870                     | (pPowerDesc->CurrentPowerSource & 0x0F));
??CrossCallReturnLabel_187:
        MOV     ?V0,A
        INC     DPTR
        MOVX    A,@DPTR
        MOV     ?V1,A
        ANL     A,#0xf
        MOV     R1,A
        MOV     A,#0xc
        MOV     R0,#?V0
        LCALL   ?US_SHR
        MOV     A,?V0
        SWAP    A
        ORL     A,R1
        MOV     DPL,R6
        MOV     DPH,R7
        INC     DPTR
        INC     DPTR
        INC     DPTR
        INC     DPTR
        MOVX    @DPTR,A
//  871 
//  872   return fillAndSend( &(inMsg->TransSeq), &(inMsg->srcAddr), Power_Desc_rsp, len );
        ; Setup parameters for call to function fillAndSend
        MOV     ?V0,#0x3
        MOV     ?V1,#-0x80
        MOV     R0,#?V0
        LCALL   ?PUSH_XSTACK_I_TWO
          CFI CFA_XSP16 add(XSP16, 12)
        MOV     R1,#0x5
        LCALL   ?Subroutine72 & 0xFFFF
??CrossCallReturnLabel_130:
        JNC     ??ZDP_PowerDescMsg_0
        INC     R3
??ZDP_PowerDescMsg_0:
        SJMP    ??Subroutine110_0
//  873 }
          CFI EndBlock cfiBlock98

        RSEG BANKED_CODE:CODE:NOROOT(0)
?Subroutine72:
          CFI Block cfiCond99 Using cfiCommon0
          CFI Function ZDP_NodeDescMsg
          CFI Conditional ??CrossCallReturnLabel_129
          CFI R6 load(1, XDATA, add(CFA_XSP16, literal(-10)))
          CFI VB load(1, XDATA, add(CFA_XSP16, literal(-9)))
          CFI V0 load(1, XDATA, add(CFA_XSP16, literal(-8)))
          CFI V1 load(1, XDATA, add(CFA_XSP16, literal(-7)))
          CFI R7 load(1, XDATA, add(CFA_XSP16, literal(-6)))
          CFI ?RET_LOW load(1, XDATA, add(CFA_XSP16, literal(-5)))
          CFI ?RET_HIGH load(1, XDATA, add(CFA_XSP16, literal(-4)))
          CFI ?BRET_EXT load(1, XDATA, add(CFA_XSP16, literal(-3)))
          CFI DPL0 load(1, XDATA, add(CFA_XSP16, literal(-2)))
          CFI DPH0 load(1, XDATA, add(CFA_XSP16, literal(-1)))
          CFI CFA_SP SP+-2
          CFI CFA_XSP16 add(XSP16, 12)
          CFI Block cfiCond100 Using cfiCommon0
          CFI (cfiCond100) Function ZDP_PowerDescMsg
          CFI (cfiCond100) Conditional ??CrossCallReturnLabel_130
          CFI (cfiCond100) R6 load(1, XDATA, add(CFA_XSP16, literal(-10)))
          CFI (cfiCond100) VB load(1, XDATA, add(CFA_XSP16, literal(-9)))
          CFI (cfiCond100) V0 load(1, XDATA, add(CFA_XSP16, literal(-8)))
          CFI (cfiCond100) V1 load(1, XDATA, add(CFA_XSP16, literal(-7)))
          CFI (cfiCond100) R7 load(1, XDATA, add(CFA_XSP16, literal(-6)))
          CFI (cfiCond100) ?RET_LOW load(1, XDATA, add(CFA_XSP16, literal(-5)))
          CFI (cfiCond100) ?RET_HIGH load(1, XDATA, add(CFA_XSP16, literal(-4)))
          CFI (cfiCond100) ?BRET_EXT load(1, XDATA, add(CFA_XSP16, literal(-3)))
          CFI (cfiCond100) DPL0 load(1, XDATA, add(CFA_XSP16, literal(-2)))
          CFI (cfiCond100) DPH0 load(1, XDATA, add(CFA_XSP16, literal(-1)))
          CFI (cfiCond100) CFA_SP SP+-2
          CFI (cfiCond100) CFA_XSP16 add(XSP16, 12)
          CFI Block cfiPicker101 Using cfiCommon1
          CFI (cfiPicker101) NoFunction
          CFI (cfiPicker101) Picker
        MOV     A,R2
        ADD     A,#0x2
        MOV     R4,A
        CLR     A
        ADDC    A,R3
        MOV     R5,A
        MOV     A,R2
        ADD     A,#0xf
        MOV     R2,A
        RET
          CFI EndBlock cfiCond99
          CFI EndBlock cfiCond100
          CFI EndBlock cfiPicker101

        RSEG BANKED_CODE:CODE:NOROOT(0)
?Subroutine32:
          CFI Block cfiCond102 Using cfiCommon0
          CFI Function ZDP_PowerDescMsg
          CFI Conditional ??CrossCallReturnLabel_187
          CFI R6 load(1, XDATA, add(CFA_XSP16, literal(-10)))
          CFI VB load(1, XDATA, add(CFA_XSP16, literal(-9)))
          CFI V0 load(1, XDATA, add(CFA_XSP16, literal(-8)))
          CFI V1 load(1, XDATA, add(CFA_XSP16, literal(-7)))
          CFI R7 load(1, XDATA, add(CFA_XSP16, literal(-6)))
          CFI ?RET_LOW load(1, XDATA, add(CFA_XSP16, literal(-5)))
          CFI ?RET_HIGH load(1, XDATA, add(CFA_XSP16, literal(-4)))
          CFI ?BRET_EXT load(1, XDATA, add(CFA_XSP16, literal(-3)))
          CFI DPL0 load(1, XDATA, add(CFA_XSP16, literal(-2)))
          CFI DPH0 load(1, XDATA, add(CFA_XSP16, literal(-1)))
          CFI CFA_SP SP+-2
          CFI CFA_XSP16 add(XSP16, 10)
          CFI Block cfiCond103 Using cfiCommon0
          CFI (cfiCond103) Function ZDP_UserDescRsp
          CFI (cfiCond103) Conditional ??CrossCallReturnLabel_188
          CFI (cfiCond103) R6 load(1, XDATA, add(CFA_XSP16, literal(-18)))
          CFI (cfiCond103) VB load(1, XDATA, add(CFA_XSP16, literal(-17)))
          CFI (cfiCond103) V0 load(1, XDATA, add(CFA_XSP16, literal(-16)))
          CFI (cfiCond103) V1 load(1, XDATA, add(CFA_XSP16, literal(-15)))
          CFI (cfiCond103) V2 load(1, XDATA, add(CFA_XSP16, literal(-14)))
          CFI (cfiCond103) V3 load(1, XDATA, add(CFA_XSP16, literal(-13)))
          CFI (cfiCond103) V4 load(1, XDATA, add(CFA_XSP16, literal(-12)))
          CFI (cfiCond103) V5 load(1, XDATA, add(CFA_XSP16, literal(-11)))
          CFI (cfiCond103) V6 load(1, XDATA, add(CFA_XSP16, literal(-10)))
          CFI (cfiCond103) V7 load(1, XDATA, add(CFA_XSP16, literal(-9)))
          CFI (cfiCond103) V8 load(1, XDATA, add(CFA_XSP16, literal(-8)))
          CFI (cfiCond103) V9 load(1, XDATA, add(CFA_XSP16, literal(-7)))
          CFI (cfiCond103) R7 load(1, XDATA, add(CFA_XSP16, literal(-6)))
          CFI (cfiCond103) ?RET_LOW load(1, XDATA, add(CFA_XSP16, literal(-5)))
          CFI (cfiCond103) ?RET_HIGH load(1, XDATA, add(CFA_XSP16, literal(-4)))
          CFI (cfiCond103) ?BRET_EXT load(1, XDATA, add(CFA_XSP16, literal(-3)))
          CFI (cfiCond103) DPL0 load(1, XDATA, add(CFA_XSP16, literal(-2)))
          CFI (cfiCond103) DPH0 load(1, XDATA, add(CFA_XSP16, literal(-1)))
          CFI (cfiCond103) CFA_SP SP+-2
          CFI (cfiCond103) CFA_XSP16 add(XSP16, 19)
          CFI Block cfiPicker104 Using cfiCommon1
          CFI (cfiPicker104) NoFunction
          CFI (cfiPicker104) Picker
        INC     DPTR
        INC     DPTR
          CFI EndBlock cfiCond102
          CFI EndBlock cfiCond103
          CFI EndBlock cfiPicker104
        REQUIRE ??Subroutine111_0
        ; // Fall through to label ??Subroutine111_0

        RSEG BANKED_CODE:CODE:NOROOT(0)
??Subroutine111_0:
          CFI Block cfiCond105 Using cfiCommon0
          CFI Function ZDP_IncomingData
          CFI Conditional ??CrossCallReturnLabel_189
          CFI R6 load(1, XDATA, add(CFA_XSP16, literal(-10)))
          CFI VB load(1, XDATA, add(CFA_XSP16, literal(-9)))
          CFI V0 load(1, XDATA, add(CFA_XSP16, literal(-8)))
          CFI V1 load(1, XDATA, add(CFA_XSP16, literal(-7)))
          CFI R7 load(1, XDATA, add(CFA_XSP16, literal(-6)))
          CFI ?RET_LOW load(1, XDATA, add(CFA_XSP16, literal(-5)))
          CFI ?RET_HIGH load(1, XDATA, add(CFA_XSP16, literal(-4)))
          CFI ?BRET_EXT load(1, XDATA, add(CFA_XSP16, literal(-3)))
          CFI DPL0 load(1, XDATA, add(CFA_XSP16, literal(-2)))
          CFI DPH0 load(1, XDATA, add(CFA_XSP16, literal(-1)))
          CFI CFA_SP SP+-2
          CFI CFA_XSP16 add(XSP16, 33)
          CFI Block cfiCond106 Using cfiCommon0
          CFI (cfiCond106) Function ZDP_PowerDescMsg
          CFI (cfiCond106) Conditional ??CrossCallReturnLabel_187
          CFI (cfiCond106) R6 load(1, XDATA, add(CFA_XSP16, literal(-10)))
          CFI (cfiCond106) VB load(1, XDATA, add(CFA_XSP16, literal(-9)))
          CFI (cfiCond106) V0 load(1, XDATA, add(CFA_XSP16, literal(-8)))
          CFI (cfiCond106) V1 load(1, XDATA, add(CFA_XSP16, literal(-7)))
          CFI (cfiCond106) R7 load(1, XDATA, add(CFA_XSP16, literal(-6)))
          CFI (cfiCond106) ?RET_LOW load(1, XDATA, add(CFA_XSP16, literal(-5)))
          CFI (cfiCond106) ?RET_HIGH load(1, XDATA, add(CFA_XSP16, literal(-4)))
          CFI (cfiCond106) ?BRET_EXT load(1, XDATA, add(CFA_XSP16, literal(-3)))
          CFI (cfiCond106) DPL0 load(1, XDATA, add(CFA_XSP16, literal(-2)))
          CFI (cfiCond106) DPH0 load(1, XDATA, add(CFA_XSP16, literal(-1)))
          CFI (cfiCond106) CFA_SP SP+-2
          CFI (cfiCond106) CFA_XSP16 add(XSP16, 10)
          CFI Block cfiCond107 Using cfiCommon0
          CFI (cfiCond107) Function ZDP_UserDescRsp
          CFI (cfiCond107) Conditional ??CrossCallReturnLabel_188
          CFI (cfiCond107) R6 load(1, XDATA, add(CFA_XSP16, literal(-18)))
          CFI (cfiCond107) VB load(1, XDATA, add(CFA_XSP16, literal(-17)))
          CFI (cfiCond107) V0 load(1, XDATA, add(CFA_XSP16, literal(-16)))
          CFI (cfiCond107) V1 load(1, XDATA, add(CFA_XSP16, literal(-15)))
          CFI (cfiCond107) V2 load(1, XDATA, add(CFA_XSP16, literal(-14)))
          CFI (cfiCond107) V3 load(1, XDATA, add(CFA_XSP16, literal(-13)))
          CFI (cfiCond107) V4 load(1, XDATA, add(CFA_XSP16, literal(-12)))
          CFI (cfiCond107) V5 load(1, XDATA, add(CFA_XSP16, literal(-11)))
          CFI (cfiCond107) V6 load(1, XDATA, add(CFA_XSP16, literal(-10)))
          CFI (cfiCond107) V7 load(1, XDATA, add(CFA_XSP16, literal(-9)))
          CFI (cfiCond107) V8 load(1, XDATA, add(CFA_XSP16, literal(-8)))
          CFI (cfiCond107) V9 load(1, XDATA, add(CFA_XSP16, literal(-7)))
          CFI (cfiCond107) R7 load(1, XDATA, add(CFA_XSP16, literal(-6)))
          CFI (cfiCond107) ?RET_LOW load(1, XDATA, add(CFA_XSP16, literal(-5)))
          CFI (cfiCond107) ?RET_HIGH load(1, XDATA, add(CFA_XSP16, literal(-4)))
          CFI (cfiCond107) ?BRET_EXT load(1, XDATA, add(CFA_XSP16, literal(-3)))
          CFI (cfiCond107) DPL0 load(1, XDATA, add(CFA_XSP16, literal(-2)))
          CFI (cfiCond107) DPH0 load(1, XDATA, add(CFA_XSP16, literal(-1)))
          CFI (cfiCond107) CFA_SP SP+-2
          CFI (cfiCond107) CFA_XSP16 add(XSP16, 19)
          CFI Block cfiPicker108 Using cfiCommon1
          CFI (cfiPicker108) NoFunction
          CFI (cfiPicker108) Picker
        LCALL   ?Subroutine99 & 0xFFFF
??CrossCallReturnLabel_191:
        MOVX    A,@DPTR
        RET
          CFI EndBlock cfiCond105
          CFI EndBlock cfiCond106
          CFI EndBlock cfiCond107
          CFI EndBlock cfiPicker108

        RSEG BANKED_CODE:CODE:NOROOT(0)
?Subroutine20:
          CFI Block cfiCond109 Using cfiCommon0
          CFI Function ZDP_NodeDescMsg
          CFI Conditional ??CrossCallReturnLabel_20
          CFI R6 load(1, XDATA, add(CFA_XSP16, literal(-10)))
          CFI VB load(1, XDATA, add(CFA_XSP16, literal(-9)))
          CFI V0 load(1, XDATA, add(CFA_XSP16, literal(-8)))
          CFI V1 load(1, XDATA, add(CFA_XSP16, literal(-7)))
          CFI R7 load(1, XDATA, add(CFA_XSP16, literal(-6)))
          CFI ?RET_LOW load(1, XDATA, add(CFA_XSP16, literal(-5)))
          CFI ?RET_HIGH load(1, XDATA, add(CFA_XSP16, literal(-4)))
          CFI ?BRET_EXT load(1, XDATA, add(CFA_XSP16, literal(-3)))
          CFI DPL0 load(1, XDATA, add(CFA_XSP16, literal(-2)))
          CFI DPH0 load(1, XDATA, add(CFA_XSP16, literal(-1)))
          CFI CFA_SP SP+-2
          CFI CFA_XSP16 add(XSP16, 10)
          CFI Block cfiCond110 Using cfiCommon0
          CFI (cfiCond110) Function ZDP_PowerDescMsg
          CFI (cfiCond110) Conditional ??CrossCallReturnLabel_21
          CFI (cfiCond110) R6 load(1, XDATA, add(CFA_XSP16, literal(-10)))
          CFI (cfiCond110) VB load(1, XDATA, add(CFA_XSP16, literal(-9)))
          CFI (cfiCond110) V0 load(1, XDATA, add(CFA_XSP16, literal(-8)))
          CFI (cfiCond110) V1 load(1, XDATA, add(CFA_XSP16, literal(-7)))
          CFI (cfiCond110) R7 load(1, XDATA, add(CFA_XSP16, literal(-6)))
          CFI (cfiCond110) ?RET_LOW load(1, XDATA, add(CFA_XSP16, literal(-5)))
          CFI (cfiCond110) ?RET_HIGH load(1, XDATA, add(CFA_XSP16, literal(-4)))
          CFI (cfiCond110) ?BRET_EXT load(1, XDATA, add(CFA_XSP16, literal(-3)))
          CFI (cfiCond110) DPL0 load(1, XDATA, add(CFA_XSP16, literal(-2)))
          CFI (cfiCond110) DPH0 load(1, XDATA, add(CFA_XSP16, literal(-1)))
          CFI (cfiCond110) CFA_SP SP+-2
          CFI (cfiCond110) CFA_XSP16 add(XSP16, 10)
          CFI Block cfiPicker111 Using cfiCommon1
          CFI (cfiPicker111) NoFunction
          CFI (cfiPicker111) Picker
        MOV     R7,A
        MOV     DPL,R6
        MOV     DPH,R7
        CLR     A
        MOVX    @DPTR,A
        MOV     A,R4
        INC     DPTR
        MOVX    @DPTR,A
        MOV     A,R5
        MOV     DPL,R6
        MOV     DPH,R7
        INC     DPTR
        INC     DPTR
        MOVX    @DPTR,A
        MOV     A,#0xa
        RET
          CFI EndBlock cfiCond109
          CFI EndBlock cfiCond110
          CFI EndBlock cfiPicker111
//  874 
//  875 /*********************************************************************
//  876  * @fn          ZDP_SimpleDescMsg
//  877  *
//  878  * @brief       Builds and sends a Simple Descriptor message, unicast to the
//  879  *              specified device.
//  880  *
//  881  * @param       inMsg - incoming message (request)
//  882  * @param       Status - message status (ZDP_SUCCESS or other)
//  883  * @param       pSimpleDesc - pointer to the node descriptor
//  884  *
//  885  * @return      afStatus_t
//  886  */

        RSEG BANKED_CODE:CODE:NOROOT(0)
//  887 afStatus_t ZDP_SimpleDescMsg( zdoIncomingMsg_t *inMsg, byte Status,
ZDP_SimpleDescMsg:
          CFI Block cfiBlock112 Using cfiCommon0
          CFI Function ZDP_SimpleDescMsg
        CODE
//  888                               SimpleDescriptionFormat_t *pSimpleDesc )
//  889 {
        FUNCALL ZDP_SimpleDescMsg, fillAndSend
        LOCFRAME ISTACK, 0, STACK
        LOCFRAME PSTACK, 0, STACK
        LOCFRAME XSTACK, 22, STACK
        LOCFRAME IOVERLAY, 0, STATIC
        LOCFRAME DOVERLAY, 0, STATIC
        ARGFRAME ISTACK, 0, STACK
        ARGFRAME PSTACK, 0, STACK
        ARGFRAME XSTACK, 22, STACK
        ARGFRAME IOVERLAY, 0, STATIC
        ARGFRAME DOVERLAY, 0, STATIC
        REQUIRE ?V0
        REQUIRE ?V1
        REQUIRE ?V2
        REQUIRE ?V3
        REQUIRE ?V4
        REQUIRE ?V5
        REQUIRE ?V6
        REQUIRE ?V7
        REQUIRE ?V8
        REQUIRE ?V9
        REQUIRE ?V10
        REQUIRE ?V11
        MOV     A,#-0x14
        LCALL   ?BANKED_ENTER_XDATA
          CFI DPH0 load(1, XDATA, add(CFA_XSP16, literal(-1)))
          CFI DPL0 load(1, XDATA, add(CFA_XSP16, literal(-2)))
          CFI ?BRET_EXT load(1, XDATA, add(CFA_XSP16, literal(-3)))
          CFI ?RET_HIGH load(1, XDATA, add(CFA_XSP16, literal(-4)))
          CFI ?RET_LOW load(1, XDATA, add(CFA_XSP16, literal(-5)))
          CFI R7 load(1, XDATA, add(CFA_XSP16, literal(-6)))
          CFI V11 load(1, XDATA, add(CFA_XSP16, literal(-7)))
          CFI V10 load(1, XDATA, add(CFA_XSP16, literal(-8)))
          CFI V9 load(1, XDATA, add(CFA_XSP16, literal(-9)))
          CFI V8 load(1, XDATA, add(CFA_XSP16, literal(-10)))
          CFI V7 load(1, XDATA, add(CFA_XSP16, literal(-11)))
          CFI V6 load(1, XDATA, add(CFA_XSP16, literal(-12)))
          CFI V5 load(1, XDATA, add(CFA_XSP16, literal(-13)))
          CFI V4 load(1, XDATA, add(CFA_XSP16, literal(-14)))
          CFI V3 load(1, XDATA, add(CFA_XSP16, literal(-15)))
          CFI V2 load(1, XDATA, add(CFA_XSP16, literal(-16)))
          CFI V1 load(1, XDATA, add(CFA_XSP16, literal(-17)))
          CFI V0 load(1, XDATA, add(CFA_XSP16, literal(-18)))
          CFI VB load(1, XDATA, add(CFA_XSP16, literal(-19)))
          CFI R6 load(1, XDATA, add(CFA_XSP16, literal(-20)))
          CFI CFA_SP SP+0
          CFI CFA_XSP16 add(XSP16, 20)
        ; Saved register size: 20
        ; Auto size: 0
        MOV     ?V2,R2
        MOV     ?V3,R3
        MOV     A,R1
        MOV     R6,A
//  890   uint8 *pBuf = ZDP_TmpBuf;
        LCALL   ?Subroutine44 & 0xFFFF
//  891   uint8 i, len;
//  892 
//  893   if ( Status == ZDP_SUCCESS && pSimpleDesc )
??CrossCallReturnLabel_171:
        MOV     A,R4
        ADD     A,#0x9
        MOV     R0,A
        CLR     A
        ADDC    A,R5
        MOV     R1,A
        MOV     ?V4,R0
        MOV     ?V5,R1
        MOV     A,R4
        ADD     A,#0x6
        MOV     R0,A
        CLR     A
        ADDC    A,R5
        MOV     R1,A
        MOV     ?V6,R0
        MOV     ?V7,R1
        MOV     A,R6
        JNZ     ??ZDP_SimpleDescMsg_0
        MOV     A,R4
        ORL     A,R5
        JZ      ??ZDP_SimpleDescMsg_0
//  894   {
//  895     // Status + NWKAddrOfInterest + desc length + empty simple descriptor.
//  896     len = 1 + 2 + 1 + 8;
//  897     len += (pSimpleDesc->AppNumInClusters + pSimpleDesc->AppNumOutClusters) * sizeof ( uint16 );
        MOV     DPL,?V4
        MOV     DPH,?V5
        MOVX    A,@DPTR
        MOV     R0,A
        MOV     DPL,?V6
        MOV     DPH,R1
        MOVX    A,@DPTR
        ADD     A,R0
        CLR     C
        RLC     A
        ADD     A,#0xc
        MOV     R2,A
//  898   }
//  899   else
//  900   {
//  901     len = 1 + 2 + 1; // Status + desc length
//  902   }
//  903   if ( len >= ZDP_BUF_SZ-1 )
        CLR     C
        SUBB    A,#0x4f
        JC      ??ZDP_SimpleDescMsg_1
//  904   {
//  905     return afStatus_MEM_FAIL;
        MOV     R1,#0x10
        LJMP    ??ZDP_SimpleDescMsg_2 & 0xFFFF
//  906   }
??ZDP_SimpleDescMsg_0:
        MOV     R2,#0x4
//  907 
//  908   *pBuf++ = Status;
??ZDP_SimpleDescMsg_1:
        MOV     A,R6
        MOV     DPL,?V0
        MOV     DPH,?V1
        MOVX    @DPTR,A
//  909 
//  910   *pBuf++ = LO_UINT16( ZDAppNwkAddr.addr.shortAddr );
        MOV     DPTR,#ZDAppNwkAddr
        LCALL   ?Subroutine69 & 0xFFFF
??CrossCallReturnLabel_118:
        MOVX    @DPTR,A
//  911   *pBuf++ = HI_UINT16( ZDAppNwkAddr.addr.shortAddr );
        MOV     DPTR,#ZDAppNwkAddr + 1
        LCALL   ?Subroutine46 & 0xFFFF
??CrossCallReturnLabel_72:
        MOVX    @DPTR,A
//  912 
//  913   if ( len > 4 )
        MOV     A,?V0
        ADD     A,#0x3
        MOV     DPL,A
        CLR     A
        ADDC    A,?V1
        MOV     DPH,A
        MOV     A,R2
        CLR     C
        SUBB    A,#0x5
        JNC     $+5
        LJMP    ??ZDP_SimpleDescMsg_3 & 0xFFFF
//  914   {
//  915     *pBuf++ = len - 4;   // Simple descriptor length
        MOV     A,#-0x4
        ADD     A,R2
        LCALL   ?Subroutine89 & 0xFFFF
//  916 
//  917     *pBuf++ = pSimpleDesc->EndPoint;
??CrossCallReturnLabel_202:
        LCALL   ?Subroutine46 & 0xFFFF
??CrossCallReturnLabel_73:
        LCALL   ?Subroutine35 & 0xFFFF
//  918     *pBuf++ = LO_UINT16( pSimpleDesc->AppProfId );
??CrossCallReturnLabel_198:
        MOV     R0,DPL
        MOV     R1,DPH
        LCALL   ?Subroutine70 & 0xFFFF
??CrossCallReturnLabel_120:
        LCALL   ?Subroutine11 & 0xFFFF
//  919     *pBuf++ = HI_UINT16( pSimpleDesc->AppProfId );
??CrossCallReturnLabel_2:
        MOVX    @DPTR,A
//  920     *pBuf++ = LO_UINT16( pSimpleDesc->AppDeviceId );
        MOV     A,R4
        ADD     A,#0x3
        MOV     R0,A
        CLR     A
        ADDC    A,R5
        MOV     R1,A
        MOV     DPL,R0
        MOV     DPH,R1
        LCALL   ?Subroutine46 & 0xFFFF
??CrossCallReturnLabel_74:
        LCALL   ?Subroutine11 & 0xFFFF
//  921     *pBuf++ = HI_UINT16( pSimpleDesc->AppDeviceId );
??CrossCallReturnLabel_3:
        LCALL   ?Subroutine35 & 0xFFFF
//  922 
//  923     *pBuf++ = (byte)(pSimpleDesc->AppDevVer & 0x0F);
??CrossCallReturnLabel_199:
        INC     DPTR
        INC     DPTR
        INC     DPTR
        INC     DPTR
        MOVX    A,@DPTR
        ANL     A,#0xf
        MOV     DPL,?V0
        MOV     DPH,?V1
        INC     DPTR
        INC     DPTR
        INC     DPTR
        INC     DPTR
        INC     DPTR
        INC     DPTR
        INC     DPTR
        INC     DPTR
        INC     DPTR
        MOVX    @DPTR,A
//  924 
//  925     *pBuf++ = pSimpleDesc->AppNumInClusters;
        MOV     DPL,?V6
        MOV     DPH,?V7
        LCALL   ?Subroutine46 & 0xFFFF
??CrossCallReturnLabel_75:
        INC     DPTR
        INC     DPTR
        INC     DPTR
        INC     DPTR
        INC     DPTR
